 csgo_sdk

 Timestamp is 640d17ff (Sun Mar 12 02:08:31 2023)

 Preferred load address is 0000000010000000

 Start         Length     Name                   Class
 0001:00000000 000e154bH .text                   CODE
 0001:000e154b 0000000cH .text$di                CODE
 0001:000e1560 00057106H .text$mn                CODE
 0001:00138666 0000000aH .text$yd                CODE
 0002:00000000 00032cb8H .rdata                  DATA
 0002:00032cb8 00000018H .rdata$T                DATA
 0002:00032cd0 00000048H .rdata$r                DATA
 0002:00037270 00000004H .CRT$XCA                DATA
 0002:00037274 00000004H .CRT$XCL                DATA
 0002:00037278 000000c8H .CRT$XCU                DATA
 0002:00037340 00000004H .CRT$XCZ                DATA
 0002:00037344 00000004H .CRT$XIA                DATA
 0002:00037348 00000004H .CRT$XIZ                DATA
 0002:0003734c 00000004H .CRT$XLA                DATA
 0002:00037350 00000004H .CRT$XLZ                DATA
 0002:00037354 00000004H .CRT$XPA                DATA
 0002:00037358 00000004H .CRT$XPZ                DATA
 0002:0003735c 00000004H .CRT$XTA                DATA
 0002:00037360 00000004H .CRT$XTZ                DATA
 0002:000395ac 00000004H .rtc$IAA                DATA
 0002:000395b0 00000004H .rtc$IZZ                DATA
 0002:000395b4 00000004H .rtc$TAA                DATA
 0002:000395b8 00000004H .rtc$TZZ                DATA
 0002:000395c0 00003b74H .xdata                  DATA
 0002:0003d138 0000009cH .xdata$x                DATA
 0003:00000000 001b2234H .data                   DATA
 0003:001b2234 00000018H .data$rs                DATA
 0003:001b2250 000057c8H .bss                    DATA
 0004:00000000 00000008H .00cfg                  DATA
 0005:00000000 00000001H .tls                    DATA
 0005:00000001 00000002H .tls$                   DATA
 0005:00000003 00000001H .tls$ZZZ                DATA
 0006:00000000 00000058H .rsrc$01                DATA
 0006:00000060 00000148H .rsrc$02                DATA

  Address         Publics by Value              Rva+Base               Lib:Object

 0000:00000000       ___AbsoluteZero            0000000000000000     <absolute>
 0000:00000000       ___guard_fids_table        0000000000000000     <absolute>
 0000:00000000       ___guard_fids_count        0000000000000000     <absolute>
 0000:00000000       ___guard_flags             0000000000000000     <absolute>
 0000:00000000       ___guard_iat_table         0000000000000000     <absolute>
 0000:00000000       ___guard_iat_count         0000000000000000     <absolute>
 0000:00000000       ___guard_longjmp_table     0000000000000000     <absolute>
 0000:00000000       ___guard_longjmp_count     0000000000000000     <absolute>
 0000:00000000       ___enclave_config          0000000000000000     <absolute>
 0000:00000000       ___guard_eh_cont_table     0000000000000000     <absolute>
 0000:00000000       ___guard_eh_cont_count     0000000000000000     <absolute>
 0000:00000000       ___AbsoluteZero            0000000000000000     <absolute>
 0000:00000002       @vol.md                    0000000000000002     <absolute>
 0000:00000002       @vol.md                    0000000000000002     <absolute>
 0000:00000002       @vol.md                    0000000000000002     <absolute>
 0000:00000002       @vol.md                    0000000000000002     <absolute>
 0000:00000002       @vol.md                    0000000000000002     <absolute>
 0000:00000002       @vol.md                    0000000000000002     <absolute>
 0000:00000002       @vol.md                    0000000000000002     <absolute>
 0000:00000002       @vol.md                    0000000000000002     <absolute>
 0000:00000002       @vol.md                    0000000000000002     <absolute>
 0000:00000002       @vol.md                    0000000000000002     <absolute>
 0000:00000002       @vol.md                    0000000000000002     <absolute>
 0000:00000002       @vol.md                    0000000000000002     <absolute>
 0000:00000002       @vol.md                    0000000000000002     <absolute>
 0000:00000002       @vol.md                    0000000000000002     <absolute>
 0000:00000002       @vol.md                    0000000000000002     <absolute>
 0000:00000002       @vol.md                    0000000000000002     <absolute>
 0000:00000002       @vol.md                    0000000000000002     <absolute>
 0000:00000002       @vol.md                    0000000000000002     <absolute>
 0000:00000002       @vol.md                    0000000000000002     <absolute>
 0000:00000002       @vol.md                    0000000000000002     <absolute>
 0000:00000002       @vol.md                    0000000000000002     <absolute>
 0000:00000002       @vol.md                    0000000000000002     <absolute>
 0000:00000002       @vol.md                    0000000000000002     <absolute>
 0000:00000002       @vol.md                    0000000000000002     <absolute>
 0000:00000002       @vol.md                    0000000000000002     <absolute>
 0000:00000002       @vol.md                    0000000000000002     <absolute>
 0000:00000002       @vol.md                    0000000000000002     <absolute>
 0000:00000002       @vol.md                    0000000000000002     <absolute>
 0000:00000002       @vol.md                    0000000000000002     <absolute>
 0000:00000002       @vol.md                    0000000000000002     <absolute>
 0000:00000002       @vol.md                    0000000000000002     <absolute>
 0000:0000002c       __tls_array                000000000000002c     <absolute>
 0000:000000f2       ___safe_se_handler_count   00000000000000f2     <absolute>
 0000:00000000       ___ImageBase               0000000010000000     <linker-defined>
 0001:00000000       ??__Eg_thread_pool@sdk@@YAXXZ 0000000010001000     ctx.obj
 0001:00000020       ??$make_unique@Vc_thread_pool@sdk@@$$V$0A@@std@@YA?AV?$unique_ptr@Vc_thread_pool@sdk@@U?$default_delete@Vc_thread_pool@sdk@@@std@@@0@XZ 0000000010001020     ctx.obj
 0001:00000190       ??__Eg_cfg@sdk@@YAXXZ      0000000010001190     ctx.obj
 0001:000001f0       ??__Eg_ctx@csgo@@YAXXZ     00000000100011f0     ctx.obj
 0001:00000310       ??__Eg_key_binds@@YAXXZ    0000000010001310     ctx.obj
 0001:00000350       ??__Eg_menu@csgo@@YAXXZ    0000000010001350     ctx.obj
 0001:000003a0       ??__Eg_net_vars@valve@csgo@@YAXXZ 00000000100013a0     ctx.obj
 0001:000004c0       ??__Eg_global_vars@valve@csgo@@YAXXZ 00000000100014c0     ctx.obj
 0001:00000530       ??__Eg_client_state@valve@csgo@@YAXXZ 0000000010001530     ctx.obj
 0001:000005a0       ??__Eg_local_player@csgo@@YAXXZ 00000000100015a0     ctx.obj
 0001:000006e0       ??__Eg_render@csgo@@YAXXZ  00000000100016e0     ctx.obj
 0001:00000750       ??__Eg_move@hacks@csgo@@YAXXZ 0000000010001750     ctx.obj
 0001:00000850       ??__Eg_skins@hacks@csgo@@YAXXZ 0000000010001850     ctx.obj
 0001:000009b0       ??__Eg_ping_spike@hacks@csgo@@YAXXZ 00000000100019b0     ctx.obj
 0001:00000ab0       ??__Eg_misc@hacks@csgo@@YAXXZ 0000000010001ab0     ctx.obj
 0001:00000ad0       ??$make_unique@Vc_misc@hacks@csgo@@$$V$0A@@std@@YA?AV?$unique_ptr@Vc_misc@hacks@csgo@@U?$default_delete@Vc_misc@hacks@csgo@@@std@@@0@XZ 0000000010001ad0     ctx.obj
 0001:00000cd0       ??__Eg_auto_wall@hacks@csgo@@YAXXZ 0000000010001cd0     ctx.obj
 0001:00000d10       ??__Eg_dormant_esp@hacks@csgo@@YAXXZ 0000000010001d10     ctx.obj
 0001:00000d70       ??__Eg_chams@hacks@csgo@@YAXXZ 0000000010001d70     ctx.obj
 0001:00000d90       ??$make_unique@Vc_chams@hacks@csgo@@$$V$0A@@std@@YA?AV?$unique_ptr@Vc_chams@hacks@csgo@@U?$default_delete@Vc_chams@hacks@csgo@@@std@@@0@XZ 0000000010001d90     ctx.obj
 0001:00000eb0       ??__Eg_visuals@hacks@csgo@@YAXXZ 0000000010001eb0     ctx.obj
 0001:00000f80       ??__Eg_eng_pred@hacks@csgo@@YAXXZ 0000000010001f80     ctx.obj
 0001:000018d0       ??__Eg_exploits@hacks@csgo@@YAXXZ 00000000100028d0     ctx.obj
 0001:000019e0       ??__Eg_lag_comp@hacks@csgo@@YAXXZ 00000000100029e0     ctx.obj
 0001:00001a00       ??$make_unique@Vc_lag_comp@hacks@csgo@@$$V$0A@@std@@YA?AV?$unique_ptr@Vc_lag_comp@hacks@csgo@@U?$default_delete@Vc_lag_comp@hacks@csgo@@@std@@@0@XZ 0000000010002a00     ctx.obj
 0001:00001d20       ??__Eg_setup_bones@hacks@csgo@@YAXXZ 0000000010002d20     ctx.obj
 0001:00001d60       ??__Eg_resolver@hacks@csgo@@YAXXZ 0000000010002d60     ctx.obj
 0001:00001da0       ??__Eg_anim_sync@hacks@csgo@@YAXXZ 0000000010002da0     ctx.obj
 0001:00001de0       ??__Eg_local_sync@hacks@csgo@@YAXXZ 0000000010002de0     ctx.obj
 0001:00001e40       ??__Eg_anti_aim@hacks@csgo@@YAXXZ 0000000010002e40     ctx.obj
 0001:00001e60       ??$make_unique@Vc_anti_aim@hacks@csgo@@$$V$0A@@std@@YA?AV?$unique_ptr@Vc_anti_aim@hacks@csgo@@U?$default_delete@Vc_anti_aim@hacks@csgo@@@std@@@0@XZ 0000000010002e60     ctx.obj
 0001:00001fe0       ??__Eg_knife_bot@hacks@csgo@@YAXXZ 0000000010002fe0     ctx.obj
 0001:00002040       ??__Eg_aim_bot@hacks@csgo@@YAXXZ 0000000010003040     ctx.obj
 0001:00002060       ??$make_unique@Vc_aim_bot@hacks@csgo@@$$V$0A@@std@@YA?AV?$unique_ptr@Vc_aim_bot@hacks@csgo@@U?$default_delete@Vc_aim_bot@hacks@csgo@@@std@@@0@XZ 0000000010003060     ctx.obj
 0001:00002240       ??__Eg_shots@hacks@csgo@@YAXXZ 0000000010003240     ctx.obj
 0001:00002320       ??__Eg_logs@hacks@csgo@@YAXXZ 0000000010003320     ctx.obj
 0001:00002400       ??__Eg_shot_construct@hacks@csgo@@YAXXZ 0000000010003400     ctx.obj
 0001:000024f0       _DllMain@12                00000000100034f0     ctx.obj
 0001:000026e0       ??1jthread@std@@QAE@XZ     00000000100036e0     ctx.obj
 0001:00002720       ?wait_for_all_modules@c_ctx@csgo@@QBE_NAAV?$unordered_map@IPAU?$pe_image_t@$0A@@detail@sdk@@U?$hash@I@std@@U?$equal_to@I@5@V?$allocator@U?$pair@$$CBIPAU?$pe_image_t@$0A@@detail@sdk@@@std@@@5@@std@@@Z 0000000010003720     ctx.obj
 0001:00002870       ?init_imgui@c_ctx@csgo@@QBEXABV?$unordered_map@IPAU?$pe_image_t@$0A@@detail@sdk@@U?$hash@I@std@@U?$equal_to@I@5@V?$allocator@U?$pair@$$CBIPAU?$pe_image_t@$0A@@detail@sdk@@@std@@@5@@std@@@Z 0000000010003870     ctx.obj
 0001:00003d70       ??0runtime_error@std@@QAE@PBD@Z 0000000010004d70     ctx.obj
 0001:00003dd0       ??0runtime_error@std@@QAE@ABV01@@Z 0000000010004dd0     ctx.obj
 0001:00003e10       ??0exception@std@@QAE@ABV01@@Z 0000000010004e10     ctx.obj
 0001:00003e50       ?parse_interfaces@c_ctx@csgo@@QBEXQAU?$pe_image_t@$0A@@detail@sdk@@AAV?$unordered_map@IU?$base_address_t@I@detail@sdk@@U?$hash@I@std@@U?$equal_to@I@5@V?$allocator@U?$pair@$$CBIU?$base_address_t@I@detail@sdk@@@std@@@5@@std@@@Z 0000000010004e50     ctx.obj
 0001:00004160       ?init_interfaces@c_ctx@csgo@@QBEXABV?$unordered_map@IPAU?$pe_image_t@$0A@@detail@sdk@@U?$hash@I@std@@U?$equal_to@I@5@V?$allocator@U?$pair@$$CBIPAU?$pe_image_t@$0A@@detail@sdk@@@std@@@5@@std@@@Z 0000000010005160     ctx.obj
 0001:00005d00       ??1?$_Hash@V?$_Umap_traits@IU?$base_address_t@I@detail@sdk@@V?$_Uhash_compare@IU?$hash@I@std@@U?$equal_to@I@2@@std@@V?$allocator@U?$pair@$$CBIU?$base_address_t@I@detail@sdk@@@std@@@5@$0A@@std@@@std@@QAE@XZ 0000000010006d00     ctx.obj
 0001:00005d00       ??1?$_Hash@V?$_Umap_traits@IPAU?$pe_image_t@$0A@@detail@sdk@@V?$_Uhash_compare@IU?$hash@I@std@@U?$equal_to@I@2@@std@@V?$allocator@U?$pair@$$CBIPAU?$pe_image_t@$0A@@detail@sdk@@@std@@@5@$0A@@std@@@std@@QAE@XZ 0000000010006d00     ctx.obj
 0001:00005d90       ?parse_ent_offsets@c_ctx@csgo@@QBE_NAAV?$unordered_map@IUent_offset_t@c_ctx@csgo@@U?$hash@I@std@@U?$equal_to@I@5@V?$allocator@U?$pair@$$CBIUent_offset_t@c_ctx@csgo@@@std@@@5@@std@@ABV?$unordered_map@IPAU?$pe_image_t@$0A@@detail@sdk@@U?$hash@I@std@@U?$equal_to@I@5@V?$allocator@U?$pair@$$CBIPAU?$pe_image_t@$0A@@detail@sdk@@@std@@@5@@4@@Z 0000000010006d90     ctx.obj
 0001:000067d0       ??1?$basic_string@DU?$char_traits@D@std@@V?$allocator@D@2@@std@@QAE@XZ 00000000100077d0     ctx.obj
 0001:000067d0       ??1?$pair@$$CBV?$basic_string@DU?$char_traits@D@std@@V?$allocator@D@2@@std@@PAUkey_data_t@hacks@csgo@@@std@@QAE@XZ 00000000100077d0     visuals.obj
 0001:000067d0       ??1flags_data_t@c_visuals@hacks@csgo@@QAE@XZ 00000000100077d0     visuals.obj
 0001:00006830       ?init_offsets@c_ctx@csgo@@QAEXABV?$unordered_map@IPAU?$pe_image_t@$0A@@detail@sdk@@U?$hash@I@std@@U?$equal_to@I@5@V?$allocator@U?$pair@$$CBIPAU?$pe_image_t@$0A@@detail@sdk@@@std@@@5@@std@@@Z 0000000010007830     ctx.obj
 0001:0000ad20       ??1?$_Hash@V?$_Umap_traits@IUent_offset_t@c_ctx@csgo@@V?$_Uhash_compare@IU?$hash@I@std@@U?$equal_to@I@2@@std@@V?$allocator@U?$pair@$$CBIUent_offset_t@c_ctx@csgo@@@std@@@5@$0A@@std@@@std@@QAE@XZ 000000001000bd20     ctx.obj
 0001:0000adb0       ?init_addresses@c_ctx@csgo@@QAEXABV?$unordered_map@IPAU?$pe_image_t@$0A@@detail@sdk@@U?$hash@I@std@@U?$equal_to@I@5@V?$allocator@U?$pair@$$CBIPAU?$pe_image_t@$0A@@detail@sdk@@@std@@@5@@std@@@Z 000000001000bdb0     ctx.obj
 0001:00010ba0       ?init_cvars@c_ctx@csgo@@QAEXXZ 0000000010011ba0     ctx.obj
 0001:00011160       ?init_hooks@c_ctx@csgo@@QBEXABV?$unordered_map@IPAU?$pe_image_t@$0A@@detail@sdk@@U?$hash@I@std@@U?$equal_to@I@5@V?$allocator@U?$pair@$$CBIPAU?$pe_image_t@$0A@@detail@sdk@@@std@@@5@@std@@@Z 0000000010012160     ctx.obj
 0001:000140b0       ?init@c_ctx@csgo@@QAEXXZ   00000000100150b0     ctx.obj
 0001:00014c80       ??$sleep_for@_JU?$ratio@$00$0DOI@@std@@@this_thread@std@@YAXABV?$duration@_JU?$ratio@$00$0DOI@@std@@@chrono@1@@Z 0000000010015c80     ctx.obj
 0001:00014f00       ??0?$basic_string@DU?$char_traits@D@std@@V?$allocator@D@2@@std@@QAE@QBD@Z 0000000010015f00     ctx.obj
 0001:00014fd0       ?get_keybind_state@c_key_binds@@QAE_NPBUs_keybind@@@Z 0000000010015fd0     ctx.obj
 0001:00015020       ?get_keybind_mode@c_key_binds@@QAEHPBUs_keybind@@@Z 0000000010016020     ctx.obj
 0001:00015030       ?KeybindNelfo@c_key_binds@@QAEXPBDPAUs_keybind@@AAHHH2_NH@Z 0000000010016030     ctx.obj
 0001:00015a00       ??$?HDU?$char_traits@D@std@@V?$allocator@D@1@@std@@YA?AV?$basic_string@DU?$char_traits@D@std@@V?$allocator@D@2@@0@$$QAV10@QBD@Z 0000000010016a00     ctx.obj
 0001:00015ab0       ??1queue_t@c_thread_pool@sdk@@QAE@XZ 0000000010016ab0     ctx.obj
 0001:00015ae0       ??_Gc_thread_pool@sdk@@UAEPAXI@Z 0000000010016ae0     ctx.obj
 0001:00015b40       ?_Throw_bad_array_new_length@std@@YAXXZ 0000000010016b40     ctx.obj
 0001:00015b70       ??0bad_array_new_length@std@@QAE@ABV01@@Z 0000000010016b70     ctx.obj
 0001:00015bb0       ??0bad_alloc@std@@QAE@ABV01@@Z 0000000010016bb0     ctx.obj
 0001:00015bf0       ??1exception@std@@UAE@XZ   0000000010016bf0     ctx.obj
 0001:00015c10       ??_Gbad_array_new_length@std@@UAEPAXI@Z 0000000010016c10     ctx.obj
 0001:00015c10       ??_Gbad_alloc@std@@UAEPAXI@Z 0000000010016c10     ctx.obj
 0001:00015c10       ??_Gexception@std@@UAEPAXI@Z 0000000010016c10     ctx.obj
 0001:00015c10       ??_Gruntime_error@std@@UAEPAXI@Z 0000000010016c10     ctx.obj
 0001:00015c10       ??_Gfuture_error@std@@UAEPAXI@Z 0000000010016c10     aim_bot.obj
 0001:00015c10       ??_Glogic_error@std@@UAEPAXI@Z 0000000010016c10     aim_bot.obj
 0001:00015c10       ??_Gbad_optional_access@std@@UAEPAXI@Z 0000000010016c10     aim_bot.obj
 0001:00015c10       ??_Gbad_cast@std@@UAEPAXI@Z 0000000010016c10     visuals.obj
 0001:00015c10       ??_Gsystem_error@std@@UAEPAXI@Z 0000000010016c10     cfg.obj
 0001:00015c10       ??_G_System_error@std@@UAEPAXI@Z 0000000010016c10     cfg.obj
 0001:00015c10       ??_Gexception@std@@UAEPAXI@Z 0000000010016c10     ctx.obj
 0001:00015c10       ??_Gbad_alloc@std@@UAEPAXI@Z 0000000010016c10     ctx.obj
 0001:00015c10       ??_Gbad_array_new_length@std@@UAEPAXI@Z 0000000010016c10     ctx.obj
 0001:00015c40       ?what@exception@std@@UBEPBDXZ 0000000010016c40     ctx.obj
 0001:00015c50       ??$_Construct_n@$$V@?$vector@Uthread_t@c_thread_pool@sdk@@V?$allocator@Uthread_t@c_thread_pool@sdk@@@std@@@std@@AAEXI@Z 0000000010016c50     ctx.obj
 0001:00015d60       ?_Xlength@?$vector@Uthread_t@c_thread_pool@sdk@@V?$allocator@Uthread_t@c_thread_pool@sdk@@@std@@@std@@CAXXZ 0000000010016d60     ctx.obj
 0001:00015d60       ?_Xlength@?$vector@V?$basic_json@Vmap@std@@Vvector@2@V?$basic_string@DU?$char_traits@D@std@@V?$allocator@D@2@@2@_N_J_KNVallocator@2@Uadl_serializer@nlohmann@@V?$vector@EV?$allocator@E@std@@@2@@nlohmann@@V?$allocator@V?$basic_json@Vmap@std@@Vvector@2@V?$basic_string@DU?$char_traits@D@std@@V?$allocator@D@2@@2@_N_J_KNVallocator@2@Uadl_serializer@nlohmann@@V?$vector@EV?$allocator@E@std@@@2@@nlohmann@@@std@@@std@@CAXXZ 0000000010016d60     ctx.obj
 0001:00015d60       ?_Xlength@?$vector@Uaim_target_t@hacks@csgo@@V?$allocator@Uaim_target_t@hacks@csgo@@@std@@@std@@CAXXZ 0000000010016d60     aim_bot.obj
 0001:00015d60       ?_Xlength@?$vector@Upoint_t@hacks@csgo@@V?$allocator@Upoint_t@hacks@csgo@@@std@@@std@@CAXXZ 0000000010016d60     aim_bot.obj
 0001:00015d60       ?_Xlength@?$vector@U?$base_vec_t@M$02@detail@sdk@@V?$allocator@U?$base_vec_t@M$02@detail@sdk@@@std@@@std@@CAXXZ 0000000010016d60     aim_bot.obj
 0001:00015d60       ?_Xlength@?$vector@V?$basic_string@DU?$char_traits@D@std@@V?$allocator@D@2@@std@@V?$allocator@V?$basic_string@DU?$char_traits@D@std@@V?$allocator@D@2@@std@@@2@@std@@CAXXZ 0000000010016d60     visuals.obj
 0001:00015d60       ?_Xlength@?$vector@DV?$allocator@D@std@@@std@@CAXXZ 0000000010016d60     cfg.obj
 0001:00015d60       ?_Xlength@?$vector@IV?$allocator@I@std@@@std@@CAXXZ 0000000010016d60     cfg.obj
 0001:00015d60       ?_Xlength@?$vector@EV?$allocator@E@std@@@std@@CAXXZ 0000000010016d60     cfg.obj
 0001:00015d70       ??1?$_Uninitialized_backout_al@V?$allocator@Uthread_t@c_thread_pool@sdk@@@std@@@std@@QAE@XZ 0000000010016d70     ctx.obj
 0001:00015dd0       ??$?0A6AXVstop_token@std@@@Z$$V$0A@@jthread@std@@QAE@A6AXVstop_token@1@@Z@Z 0000000010016dd0     ctx.obj
 0001:00015f50       ??1stop_source@std@@QAE@XZ 0000000010016f50     ctx.obj
 0001:00015f80       ??$_Invoke@V?$tuple@P6AXVstop_token@std@@@ZV12@@std@@$0A@$00@thread@std@@CGIPAX@Z 0000000010016f80     ctx.obj
 0001:00016030       ??1?$unique_ptr@V?$tuple@P6AXVstop_token@std@@@ZV12@@std@@U?$default_delete@V?$tuple@P6AXVstop_token@std@@@ZV12@@std@@@2@@std@@QAE@XZ 0000000010017030     ctx.obj
 0001:00016060       ??$invoke@P6AXVstop_token@std@@@ZV12@$$V@std@@YAX$$QAP6AXVstop_token@0@@Z$$QAV10@@Z 0000000010017060     ctx.obj
 0001:000160a0       ?_Tidy@?$vector@Uthread_t@c_thread_pool@sdk@@V?$allocator@Uthread_t@c_thread_pool@sdk@@@std@@@std@@AAEXXZ 00000000100170a0     ctx.obj
 0001:00016150       ?_Tidy@?$deque@V?$function@$$A6AXXZ@std@@V?$allocator@V?$function@$$A6AXXZ@std@@@2@@std@@AAEXXZ 0000000010017150     ctx.obj
 0001:00016220       ??_Gc_cfg@sdk@@UAEPAXI@Z   0000000010017220     ctx.obj
 0001:00016290       ?_Tidy@?$deque@Uout_cmds_data_t@c_ctx@csgo@@V?$allocator@Uout_cmds_data_t@c_ctx@csgo@@@std@@@std@@AAEXXZ 0000000010017290     ctx.obj
 0001:00016320       ??0?$_Hash@V?$_Umap_traits@V?$basic_string@DU?$char_traits@D@std@@V?$allocator@D@2@@std@@U?$pair@PAUrecv_prop_t@valve@csgo@@I@2@V?$_Uhash_compare@V?$basic_string@DU?$char_traits@D@std@@V?$allocator@D@2@@std@@U?$hash@V?$basic_string@DU?$char_traits@D@std@@V?$allocator@D@2@@std@@@2@U?$equal_to@V?$basic_string@DU?$char_traits@D@std@@V?$allocator@D@2@@std@@@2@@2@V?$allocator@U?$pair@$$CBV?$basic_string@DU?$char_traits@D@std@@V?$allocator@D@2@@std@@U?$pair@PAUrecv_prop_t@valve@csgo@@I@2@@std@@@2@$0A@@std@@@std@@IAE@ABV?$_Uhash_compare@V?$basic_string@DU?$char_traits@D@std@@V?$allocator@D@2@@std@@U?$hash@V?$basic_string@DU?$char_traits@D@std@@V?$allocator@D@2@@std@@@2@U?$equal_to@V?$basic_string@DU?$char_traits@D@std@@V?$allocator@D@2@@std@@@2@@1@ABV?$allocator@U?$pair@$$CBV?$basic_string@DU?$char_traits@D@std@@V?$allocator@D@2@@std@@U?$pair@PAUrecv_prop_t@valve@csgo@@I@2@@std@@@1@@Z 0000000010017320     ctx.obj
 0001:00016420       ??1?$_Hash_vec@V?$allocator@V?$_List_unchecked_iterator@V?$_List_val@U?$_List_simple_types@U?$pair@$$CBV?$basic_string@DU?$char_traits@D@std@@V?$allocator@D@2@@std@@U?$pair@PAUrecv_prop_t@valve@csgo@@I@2@@std@@@std@@@std@@@std@@@std@@@std@@QAE@XZ 0000000010017420     ctx.obj
 0001:00016420       ??1?$_Hash_vec@V?$allocator@V?$_List_unchecked_iterator@V?$_List_val@U?$_List_simple_types@U?$pair@$$CBW4ent_handle_t@valve@csgo@@Ugrenade_simulation_t@c_visuals@hacks@3@@std@@@std@@@std@@@std@@@std@@@std@@QAE@XZ 0000000010017420     ctx.obj
 0001:00016420       ??1?$_Hash_vec@V?$allocator@V?$_List_unchecked_iterator@V?$_List_val@U?$_List_simple_types@U?$pair@$$CBIU?$base_address_t@I@detail@sdk@@@std@@@std@@@std@@@std@@@std@@@std@@QAE@XZ 0000000010017420     ctx.obj
 0001:00016420       ??1?$_Hash_vec@V?$allocator@V?$_List_unchecked_iterator@V?$_List_val@U?$_List_simple_types@U?$pair@$$CBIUent_offset_t@c_ctx@csgo@@@std@@@std@@@std@@@std@@@std@@@std@@QAE@XZ 0000000010017420     ctx.obj
 0001:00016420       ??1?$_Hash_vec@V?$allocator@V?$_List_unchecked_iterator@V?$_List_val@U?$_List_simple_types@U?$pair@$$CBIPAU?$pe_image_t@$0A@@detail@sdk@@@std@@@std@@@std@@@std@@@std@@@std@@QAE@XZ 0000000010017420     ctx.obj
 0001:00016470       ?_Tidy@?$list@U?$pair@$$CBV?$basic_string@DU?$char_traits@D@std@@V?$allocator@D@2@@std@@U?$pair@PAUrecv_prop_t@valve@csgo@@I@2@@std@@V?$allocator@U?$pair@$$CBV?$basic_string@DU?$char_traits@D@std@@V?$allocator@D@2@@std@@U?$pair@PAUrecv_prop_t@valve@csgo@@I@2@@std@@@2@@std@@AAEXXZ 0000000010017470     ctx.obj
 0001:000164f0       ?save@?$cfg_var_t@Ucfg_t@c_local_player@csgo@@@sdk@@UBEXAAV?$basic_json@Vmap@std@@Vvector@2@V?$basic_string@DU?$char_traits@D@std@@V?$allocator@D@2@@2@_N_J_KNVallocator@2@Uadl_serializer@nlohmann@@V?$vector@EV?$allocator@E@std@@@2@@nlohmann@@@Z 00000000100174f0     ctx.obj
 0001:000165d0       ?load@?$cfg_var_t@Ucfg_t@c_local_player@csgo@@@sdk@@UAEXABV?$basic_json@Vmap@std@@Vvector@2@V?$basic_string@DU?$char_traits@D@std@@V?$allocator@D@2@@2@_N_J_KNVallocator@2@Uadl_serializer@nlohmann@@V?$vector@EV?$allocator@E@std@@@2@@nlohmann@@@Z 00000000100175d0     ctx.obj
 0001:00016770       ??$_Emplace_reallocate@ABQAUbase_cfg_var_t@detail@sdk@@@?$vector@PAUbase_cfg_var_t@detail@sdk@@V?$allocator@PAUbase_cfg_var_t@detail@sdk@@@std@@@std@@AAEPAPAUbase_cfg_var_t@detail@sdk@@QAPAU234@ABQAU234@@Z 0000000010017770     ctx.obj
 0001:00016770       ??$_Emplace_reallocate@ABQAUcs_weapon_t@valve@csgo@@@?$vector@PAUcs_weapon_t@valve@csgo@@V?$allocator@PAUcs_weapon_t@valve@csgo@@@std@@@std@@AAEPAPAUcs_weapon_t@valve@csgo@@QAPAU234@ABQAU234@@Z 0000000010017770     misc.obj
 0001:00016770       ??$_Emplace_reallocate@AAPAUbase_entity_t@valve@csgo@@@?$vector@PAUbase_entity_t@valve@csgo@@V?$allocator@PAUbase_entity_t@valve@csgo@@@std@@@std@@AAEPAPAUbase_entity_t@valve@csgo@@QAPAU234@AAPAU234@@Z 0000000010017770     visuals.obj
 0001:00016770       ??$_Emplace_reallocate@ABQAV?$basic_json@Vmap@std@@Vvector@2@V?$basic_string@DU?$char_traits@D@std@@V?$allocator@D@2@@2@_N_J_KNVallocator@2@Uadl_serializer@nlohmann@@V?$vector@EV?$allocator@E@std@@@2@@nlohmann@@@?$vector@PAV?$basic_json@Vmap@std@@Vvector@2@V?$basic_string@DU?$char_traits@D@std@@V?$allocator@D@2@@2@_N_J_KNVallocator@2@Uadl_serializer@nlohmann@@V?$vector@EV?$allocator@E@std@@@2@@nlohmann@@V?$allocator@PAV?$basic_json@Vmap@std@@Vvector@2@V?$basic_string@DU?$char_traits@D@std@@V?$allocator@D@2@@2@_N_J_KNVallocator@2@Uadl_serializer@nlohmann@@V?$vector@EV?$allocator@E@std@@@2@@nlohmann@@@std@@@std@@AAEPAPAV?$basic_json@Vmap@std@@Vvector@2@V?$basic_string@DU?$char_traits@D@std@@V?$allocator@D@2@@2@_N_J_KNVallocator@2@Uadl_serializer@nlohmann@@V?$vector@EV?$allocator@E@std@@@2@@nlohmann@@QAPAV23@ABQAV23@@Z 0000000010017770     cfg.obj
 0001:00016770       ??$_Emplace_reallocate@PAV?$basic_json@Vmap@std@@Vvector@2@V?$basic_string@DU?$char_traits@D@std@@V?$allocator@D@2@@2@_N_J_KNVallocator@2@Uadl_serializer@nlohmann@@V?$vector@EV?$allocator@E@std@@@2@@nlohmann@@@?$vector@PAV?$basic_json@Vmap@std@@Vvector@2@V?$basic_string@DU?$char_traits@D@std@@V?$allocator@D@2@@2@_N_J_KNVallocator@2@Uadl_serializer@nlohmann@@V?$vector@EV?$allocator@E@std@@@2@@nlohmann@@V?$allocator@PAV?$basic_json@Vmap@std@@Vvector@2@V?$basic_string@DU?$char_traits@D@std@@V?$allocator@D@2@@2@_N_J_KNVallocator@2@Uadl_serializer@nlohmann@@V?$vector@EV?$allocator@E@std@@@2@@nlohmann@@@std@@@std@@AAEPAPAV?$basic_json@Vmap@std@@Vvector@2@V?$basic_string@DU?$char_traits@D@std@@V?$allocator@D@2@@2@_N_J_KNVallocator@2@Uadl_serializer@nlohmann@@V?$vector@EV?$allocator@E@std@@@2@@nlohmann@@QAPAV23@$$QAPAV23@@Z 0000000010017770     cfg.obj
 0001:000168c0       ??A?$basic_json@Vmap@std@@Vvector@2@V?$basic_string@DU?$char_traits@D@std@@V?$allocator@D@2@@2@_N_J_KNVallocator@2@Uadl_serializer@nlohmann@@V?$vector@EV?$allocator@E@std@@@2@@nlohmann@@QAEAAV01@ABV?$basic_string@DU?$char_traits@D@std@@V?$allocator@D@2@@std@@@Z 00000000100178c0     ctx.obj
 0001:00016a30       ??$emplace_back@ABE@?$basic_json@Vmap@std@@Vvector@2@V?$basic_string@DU?$char_traits@D@std@@V?$allocator@D@2@@2@_N_J_KNVallocator@2@Uadl_serializer@nlohmann@@V?$vector@EV?$allocator@E@std@@@2@@nlohmann@@QAEAAV01@ABE@Z 0000000010017a30     ctx.obj
 0001:00016b90       ?create@type_error@detail@nlohmann@@SA?AV123@HABV?$basic_string@DU?$char_traits@D@std@@V?$allocator@D@2@@std@@@Z 0000000010017b90     ctx.obj
 0001:00016de0       ??$?HDU?$char_traits@D@std@@V?$allocator@D@1@@std@@YA?AV?$basic_string@DU?$char_traits@D@std@@V?$allocator@D@2@@0@QBD$$QAV10@@Z 0000000010017de0     ctx.obj
 0001:00016ef0       ?type_name@?$basic_json@Vmap@std@@Vvector@2@V?$basic_string@DU?$char_traits@D@std@@V?$allocator@D@2@@2@_N_J_KNVallocator@2@Uadl_serializer@nlohmann@@V?$vector@EV?$allocator@E@std@@@2@@nlohmann@@QBEPBDXZ 0000000010017ef0     ctx.obj
 0001:00016f10       ??0type_error@detail@nlohmann@@QAE@ABV012@@Z 0000000010017f10     ctx.obj
 0001:00016f90       ??0exception@detail@nlohmann@@QAE@ABV012@@Z 0000000010017f90     ctx.obj
 0001:00017000       ??$_Try_emplace@ABV?$basic_string@DU?$char_traits@D@std@@V?$allocator@D@2@@std@@$$V@?$map@V?$basic_string@DU?$char_traits@D@std@@V?$allocator@D@2@@std@@V?$basic_json@Vmap@std@@Vvector@2@V?$basic_string@DU?$char_traits@D@std@@V?$allocator@D@2@@2@_N_J_KNVallocator@2@Uadl_serializer@nlohmann@@V?$vector@EV?$allocator@E@std@@@2@@nlohmann@@U?$less@X@2@V?$allocator@U?$pair@$$CBV?$basic_string@DU?$char_traits@D@std@@V?$allocator@D@2@@std@@V?$basic_json@Vmap@std@@Vvector@2@V?$basic_string@DU?$char_traits@D@std@@V?$allocator@D@2@@2@_N_J_KNVallocator@2@Uadl_serializer@nlohmann@@V?$vector@EV?$allocator@E@std@@@2@@nlohmann@@@std@@@2@@std@@AAE?AU?$pair@PAU?$_Tree_node@U?$pair@$$CBV?$basic_string@DU?$char_traits@D@std@@V?$allocator@D@2@@std@@V?$basic_json@Vmap@std@@Vvector@2@V?$basic_string@DU?$char_traits@D@std@@V?$allocator@D@2@@2@_N_J_KNVallocator@2@Uadl_serializer@nlohmann@@V?$vector@EV?$allocator@E@std@@@2@@nlohmann@@@std@@PAX@std@@_N@1@ABV?$basic_string@DU?$char_traits@D@std@@V?$allocator@D@2@@1@@Z 0000000010018000     ctx.obj
 0001:000171d0       ?_Insert_node@?$_Tree_val@U?$_Tree_simple_types@U?$pair@$$CBV?$basic_string@DU?$char_traits@D@std@@V?$allocator@D@2@@std@@V?$basic_json@Vmap@std@@Vvector@2@V?$basic_string@DU?$char_traits@D@std@@V?$allocator@D@2@@2@_N_J_KNVallocator@2@Uadl_serializer@nlohmann@@V?$vector@EV?$allocator@E@std@@@2@@nlohmann@@@std@@@std@@@std@@QAEPAU?$_Tree_node@U?$pair@$$CBV?$basic_string@DU?$char_traits@D@std@@V?$allocator@D@2@@std@@V?$basic_json@Vmap@std@@Vvector@2@V?$basic_string@DU?$char_traits@D@std@@V?$allocator@D@2@@2@_N_J_KNVallocator@2@Uadl_serializer@nlohmann@@V?$vector@EV?$allocator@E@std@@@2@@nlohmann@@@std@@PAX@2@U?$_Tree_id@PAU?$_Tree_node@U?$pair@$$CBV?$basic_string@DU?$char_traits@D@std@@V?$allocator@D@2@@std@@V?$basic_json@Vmap@std@@Vvector@2@V?$basic_string@DU?$char_traits@D@std@@V?$allocator@D@2@@2@_N_J_KNVallocator@2@Uadl_serializer@nlohmann@@V?$vector@EV?$allocator@E@std@@@2@@nlohmann@@@std@@PAX@std@@@2@QAU32@@Z 00000000100181d0     ctx.obj
 0001:000173c0       ?_Throw_tree_length_error@std@@YAXXZ 00000000100183c0     ctx.obj
 0001:000173d0       ??0?$basic_string@DU?$char_traits@D@std@@V?$allocator@D@2@@std@@QAE@ABV01@@Z 00000000100183d0     ctx.obj
 0001:000174a0       ?_Xlen_string@std@@YAXXZ   00000000100184a0     ctx.obj
 0001:000174b0       ?name@exception@detail@nlohmann@@KA?AV?$basic_string@DU?$char_traits@D@std@@V?$allocator@D@2@@std@@ABV45@H@Z 00000000100184b0     ctx.obj
 0001:000178b0       ??$_Reallocate_grow_by@V<lambda_1>@?0??append@?$basic_string@DU?$char_traits@D@std@@V?$allocator@D@2@@std@@QAEAAV34@QBDI@Z@PBDI@?$basic_string@DU?$char_traits@D@std@@V?$allocator@D@2@@std@@AAEAAV01@IV<lambda_1>@?0??append@01@QAEAAV01@QBDI@Z@PBDI@Z 00000000100188b0     ctx.obj
 0001:00017a10       ??0?$basic_string@DU?$char_traits@D@std@@V?$allocator@D@2@@std@@QAE@U_String_constructor_concat_tag@1@AAV01@1@Z 0000000010018a10     ctx.obj
 0001:00017bd0       ??$_Integral_to_string@DH@std@@YA?AV?$basic_string@DU?$char_traits@D@std@@V?$allocator@D@2@@0@H@Z 0000000010018bd0     ctx.obj
 0001:00017d20       ?what@exception@detail@nlohmann@@UBEPBDXZ 0000000010018d20     ctx.obj
 0001:00017d30       ??_Gexception@detail@nlohmann@@UAEPAXI@Z 0000000010018d30     ctx.obj
 0001:00017d30       ??_Gtype_error@detail@nlohmann@@UAEPAXI@Z 0000000010018d30     ctx.obj
 0001:00017d30       ??_Ginvalid_iterator@detail@nlohmann@@UAEPAXI@Z 0000000010018d30     ctx.obj
 0001:00017d30       ??_Gout_of_range@detail@nlohmann@@UAEPAXI@Z 0000000010018d30     ctx.obj
 0001:00017d30       ??_Gparse_error@detail@nlohmann@@UAEPAXI@Z 0000000010018d30     cfg.obj
 0001:00017d80       ?destroy@json_value@?$basic_json@Vmap@std@@Vvector@2@V?$basic_string@DU?$char_traits@D@std@@V?$allocator@D@2@@2@_N_J_KNVallocator@2@Uadl_serializer@nlohmann@@V?$vector@EV?$allocator@E@std@@@2@@nlohmann@@QAEXW4value_t@detail@3@@Z 0000000010018d80     ctx.obj
 0001:00018380       ??1?$vector@V?$basic_json@Vmap@std@@Vvector@2@V?$basic_string@DU?$char_traits@D@std@@V?$allocator@D@2@@2@_N_J_KNVallocator@2@Uadl_serializer@nlohmann@@V?$vector@EV?$allocator@E@std@@@2@@nlohmann@@V?$allocator@V?$basic_json@Vmap@std@@Vvector@2@V?$basic_string@DU?$char_traits@D@std@@V?$allocator@D@2@@2@_N_J_KNVallocator@2@Uadl_serializer@nlohmann@@V?$vector@EV?$allocator@E@std@@@2@@nlohmann@@@std@@@std@@QAE@XZ 0000000010019380     ctx.obj
 0001:00018400       ?_Reallocate_exactly@?$vector@V?$basic_json@Vmap@std@@Vvector@2@V?$basic_string@DU?$char_traits@D@std@@V?$allocator@D@2@@2@_N_J_KNVallocator@2@Uadl_serializer@nlohmann@@V?$vector@EV?$allocator@E@std@@@2@@nlohmann@@V?$allocator@V?$basic_json@Vmap@std@@Vvector@2@V?$basic_string@DU?$char_traits@D@std@@V?$allocator@D@2@@2@_N_J_KNVallocator@2@Uadl_serializer@nlohmann@@V?$vector@EV?$allocator@E@std@@@2@@nlohmann@@@std@@@std@@AAEXI@Z 0000000010019400     ctx.obj
 0001:00018540       ??$_Emplace_reallocate@V?$basic_json@Vmap@std@@Vvector@2@V?$basic_string@DU?$char_traits@D@std@@V?$allocator@D@2@@2@_N_J_KNVallocator@2@Uadl_serializer@nlohmann@@V?$vector@EV?$allocator@E@std@@@2@@nlohmann@@@?$vector@V?$basic_json@Vmap@std@@Vvector@2@V?$basic_string@DU?$char_traits@D@std@@V?$allocator@D@2@@2@_N_J_KNVallocator@2@Uadl_serializer@nlohmann@@V?$vector@EV?$allocator@E@std@@@2@@nlohmann@@V?$allocator@V?$basic_json@Vmap@std@@Vvector@2@V?$basic_string@DU?$char_traits@D@std@@V?$allocator@D@2@@2@_N_J_KNVallocator@2@Uadl_serializer@nlohmann@@V?$vector@EV?$allocator@E@std@@@2@@nlohmann@@@std@@@std@@AAEPAV?$basic_json@Vmap@std@@Vvector@2@V?$basic_string@DU?$char_traits@D@std@@V?$allocator@D@2@@2@_N_J_KNVallocator@2@Uadl_serializer@nlohmann@@V?$vector@EV?$allocator@E@std@@@2@@nlohmann@@QAV23@$$QAV23@@Z 0000000010019540     ctx.obj
 0001:00018790       ??$_Erase_tree@V?$allocator@U?$_Tree_node@U?$pair@$$CBV?$basic_string@DU?$char_traits@D@std@@V?$allocator@D@2@@std@@V?$basic_json@Vmap@std@@Vvector@2@V?$basic_string@DU?$char_traits@D@std@@V?$allocator@D@2@@2@_N_J_KNVallocator@2@Uadl_serializer@nlohmann@@V?$vector@EV?$allocator@E@std@@@2@@nlohmann@@@std@@PAX@std@@@std@@@?$_Tree_val@U?$_Tree_simple_types@U?$pair@$$CBV?$basic_string@DU?$char_traits@D@std@@V?$allocator@D@2@@std@@V?$basic_json@Vmap@std@@Vvector@2@V?$basic_string@DU?$char_traits@D@std@@V?$allocator@D@2@@2@_N_J_KNVallocator@2@Uadl_serializer@nlohmann@@V?$vector@EV?$allocator@E@std@@@2@@nlohmann@@@std@@@std@@@std@@QAEXAAV?$allocator@U?$_Tree_node@U?$pair@$$CBV?$basic_string@DU?$char_traits@D@std@@V?$allocator@D@2@@std@@V?$basic_json@Vmap@std@@Vvector@2@V?$basic_string@DU?$char_traits@D@std@@V?$allocator@D@2@@2@_N_J_KNVallocator@2@Uadl_serializer@nlohmann@@V?$vector@EV?$allocator@E@std@@@2@@nlohmann@@@std@@PAX@std@@@1@PAU?$_Tree_node@U?$pair@$$CBV?$basic_string@DU?$char_traits@D@std@@V?$allocator@D@2@@std@@V?$basic_json@Vmap@std@@Vvector@2@V?$basic_string@DU?$char_traits@D@std@@V?$allocator@D@2@@2@_N_J_KNVallocator@2@Uadl_serializer@nlohmann@@V?$vector@EV?$allocator@E@std@@@2@@nlohmann@@@std@@PAX@1@@Z 0000000010019790     ctx.obj
 0001:00018790       ??$_Erase_tree_and_orphan@V?$allocator@U?$_Tree_node@U?$pair@$$CBV?$basic_string@DU?$char_traits@D@std@@V?$allocator@D@2@@std@@V?$basic_json@Vmap@std@@Vvector@2@V?$basic_string@DU?$char_traits@D@std@@V?$allocator@D@2@@2@_N_J_KNVallocator@2@Uadl_serializer@nlohmann@@V?$vector@EV?$allocator@E@std@@@2@@nlohmann@@@std@@PAX@std@@@std@@@?$_Tree_val@U?$_Tree_simple_types@U?$pair@$$CBV?$basic_string@DU?$char_traits@D@std@@V?$allocator@D@2@@std@@V?$basic_json@Vmap@std@@Vvector@2@V?$basic_string@DU?$char_traits@D@std@@V?$allocator@D@2@@2@_N_J_KNVallocator@2@Uadl_serializer@nlohmann@@V?$vector@EV?$allocator@E@std@@@2@@nlohmann@@@std@@@std@@@std@@QAEXAAV?$allocator@U?$_Tree_node@U?$pair@$$CBV?$basic_string@DU?$char_traits@D@std@@V?$allocator@D@2@@std@@V?$basic_json@Vmap@std@@Vvector@2@V?$basic_string@DU?$char_traits@D@std@@V?$allocator@D@2@@2@_N_J_KNVallocator@2@Uadl_serializer@nlohmann@@V?$vector@EV?$allocator@E@std@@@2@@nlohmann@@@std@@PAX@std@@@1@PAU?$_Tree_node@U?$pair@$$CBV?$basic_string@DU?$char_traits@D@std@@V?$allocator@D@2@@std@@V?$basic_json@Vmap@std@@Vvector@2@V?$basic_string@DU?$char_traits@D@std@@V?$allocator@D@2@@2@_N_J_KNVallocator@2@Uadl_serializer@nlohmann@@V?$vector@EV?$allocator@E@std@@@2@@nlohmann@@@std@@PAX@1@@Z 0000000010019790     cfg.obj
 0001:00018830       ??$_Reallocate_grow_by@V<lambda_1>@?0??insert@?$basic_string@DU?$char_traits@D@std@@V?$allocator@D@2@@std@@QAEAAV34@IQBDI@Z@IPBDI@?$basic_string@DU?$char_traits@D@std@@V?$allocator@D@2@@std@@AAEAAV01@IV<lambda_1>@?0??insert@01@QAEAAV01@IQBDI@Z@IPBDI@Z 0000000010019830     ctx.obj
 0001:000189d0       ??$_UIntegral_to_string@DI@std@@YA?AV?$basic_string@DU?$char_traits@D@std@@V?$allocator@D@2@@0@I@Z 00000000100199d0     ctx.obj
 0001:00018b00       ??$_Emplace_reallocate@ABE@?$vector@V?$basic_json@Vmap@std@@Vvector@2@V?$basic_string@DU?$char_traits@D@std@@V?$allocator@D@2@@2@_N_J_KNVallocator@2@Uadl_serializer@nlohmann@@V?$vector@EV?$allocator@E@std@@@2@@nlohmann@@V?$allocator@V?$basic_json@Vmap@std@@Vvector@2@V?$basic_string@DU?$char_traits@D@std@@V?$allocator@D@2@@2@_N_J_KNVallocator@2@Uadl_serializer@nlohmann@@V?$vector@EV?$allocator@E@std@@@2@@nlohmann@@@std@@@std@@AAEPAV?$basic_json@Vmap@std@@Vvector@2@V?$basic_string@DU?$char_traits@D@std@@V?$allocator@D@2@@2@_N_J_KNVallocator@2@Uadl_serializer@nlohmann@@V?$vector@EV?$allocator@E@std@@@2@@nlohmann@@QAV23@ABE@Z 0000000010019b00     ctx.obj
 0001:00018d60       ?at@?$basic_json@Vmap@std@@Vvector@2@V?$basic_string@DU?$char_traits@D@std@@V?$allocator@D@2@@2@_N_J_KNVallocator@2@Uadl_serializer@nlohmann@@V?$vector@EV?$allocator@E@std@@@2@@nlohmann@@QBEABV12@I@Z 0000000010019d60     ctx.obj
 0001:00018f60       ??$_Find@V?$basic_string@DU?$char_traits@D@std@@V?$allocator@D@2@@std@@@?$_Tree@V?$_Tmap_traits@V?$basic_string@DU?$char_traits@D@std@@V?$allocator@D@2@@std@@V?$basic_json@Vmap@std@@Vvector@2@V?$basic_string@DU?$char_traits@D@std@@V?$allocator@D@2@@2@_N_J_KNVallocator@2@Uadl_serializer@nlohmann@@V?$vector@EV?$allocator@E@std@@@2@@nlohmann@@U?$less@X@2@V?$allocator@U?$pair@$$CBV?$basic_string@DU?$char_traits@D@std@@V?$allocator@D@2@@std@@V?$basic_json@Vmap@std@@Vvector@2@V?$basic_string@DU?$char_traits@D@std@@V?$allocator@D@2@@2@_N_J_KNVallocator@2@Uadl_serializer@nlohmann@@V?$vector@EV?$allocator@E@std@@@2@@nlohmann@@@std@@@2@$0A@@std@@@std@@ABEPAU?$_Tree_node@U?$pair@$$CBV?$basic_string@DU?$char_traits@D@std@@V?$allocator@D@2@@std@@V?$basic_json@Vmap@std@@Vvector@2@V?$basic_string@DU?$char_traits@D@std@@V?$allocator@D@2@@2@_N_J_KNVallocator@2@Uadl_serializer@nlohmann@@V?$vector@EV?$allocator@E@std@@@2@@nlohmann@@@std@@PAX@1@ABV?$basic_string@DU?$char_traits@D@std@@V?$allocator@D@2@@1@@Z 0000000010019f60     ctx.obj
 0001:00018f60       ??$_Find@V?$basic_string@DU?$char_traits@D@std@@V?$allocator@D@2@@std@@@?$_Tree@V?$_Tmap_traits@V?$basic_string@DU?$char_traits@D@std@@V?$allocator@D@2@@std@@PAUkey_data_t@hacks@csgo@@U?$less@V?$basic_string@DU?$char_traits@D@std@@V?$allocator@D@2@@std@@@2@V?$allocator@U?$pair@$$CBV?$basic_string@DU?$char_traits@D@std@@V?$allocator@D@2@@std@@PAUkey_data_t@hacks@csgo@@@std@@@2@$0A@@std@@@std@@ABEPAU?$_Tree_node@U?$pair@$$CBV?$basic_string@DU?$char_traits@D@std@@V?$allocator@D@2@@std@@PAUkey_data_t@hacks@csgo@@@std@@PAX@1@ABV?$basic_string@DU?$char_traits@D@std@@V?$allocator@D@2@@1@@Z 0000000010019f60     visuals.obj
 0001:00019050       ?create@invalid_iterator@detail@nlohmann@@SA?AV123@HABV?$basic_string@DU?$char_traits@D@std@@V?$allocator@D@2@@std@@@Z 000000001001a050     ctx.obj
 0001:000192a0       ??0invalid_iterator@detail@nlohmann@@QAE@ABV012@@Z 000000001001a2a0     ctx.obj
 0001:00019320       ??1exception@detail@nlohmann@@UAE@XZ 000000001001a320     ctx.obj
 0001:00019350       ??D?$iter_impl@$$CBV?$basic_json@Vmap@std@@Vvector@2@V?$basic_string@DU?$char_traits@D@std@@V?$allocator@D@2@@2@_N_J_KNVallocator@2@Uadl_serializer@nlohmann@@V?$vector@EV?$allocator@E@std@@@2@@nlohmann@@@detail@nlohmann@@QBEABV?$basic_json@Vmap@std@@Vvector@2@V?$basic_string@DU?$char_traits@D@std@@V?$allocator@D@2@@2@_N_J_KNVallocator@2@Uadl_serializer@nlohmann@@V?$vector@EV?$allocator@E@std@@@2@@2@XZ 000000001001a350     ctx.obj
 0001:00019470       ?create@out_of_range@detail@nlohmann@@SA?AV123@HABV?$basic_string@DU?$char_traits@D@std@@V?$allocator@D@2@@std@@@Z 000000001001a470     ctx.obj
 0001:000196c0       ??0out_of_range@detail@nlohmann@@QAE@ABV012@@Z 000000001001a6c0     ctx.obj
 0001:00019740       ?_Xrange@?$vector@V?$basic_json@Vmap@std@@Vvector@2@V?$basic_string@DU?$char_traits@D@std@@V?$allocator@D@2@@2@_N_J_KNVallocator@2@Uadl_serializer@nlohmann@@V?$vector@EV?$allocator@E@std@@@2@@nlohmann@@V?$allocator@V?$basic_json@Vmap@std@@Vvector@2@V?$basic_string@DU?$char_traits@D@std@@V?$allocator@D@2@@2@_N_J_KNVallocator@2@Uadl_serializer@nlohmann@@V?$vector@EV?$allocator@E@std@@@2@@nlohmann@@@std@@@std@@CAXXZ 000000001001a740     ctx.obj
 0001:00019740       ?_Xrange@?$vector@U?$pair@U?$base_vec_t@M$02@detail@sdk@@_N@std@@V?$allocator@U?$pair@U?$base_vec_t@M$02@detail@sdk@@_N@std@@@2@@std@@CAXXZ 000000001001a740     visuals.obj
 0001:00019750       ??$from_json@V?$basic_json@Vmap@std@@Vvector@2@V?$basic_string@DU?$char_traits@D@std@@V?$allocator@D@2@@2@_N_J_KNVallocator@2@Uadl_serializer@nlohmann@@V?$vector@EV?$allocator@E@std@@@2@@nlohmann@@E$0A@@detail@nlohmann@@YAXABV?$basic_json@Vmap@std@@Vvector@2@V?$basic_string@DU?$char_traits@D@std@@V?$allocator@D@2@@2@_N_J_KNVallocator@2@Uadl_serializer@nlohmann@@V?$vector@EV?$allocator@E@std@@@2@@1@AAE@Z 000000001001a750     ctx.obj
 0001:00019860       ?_Tidy@?$deque@PAUvfyd_user_cmd_t@valve@csgo@@V?$allocator@PAUvfyd_user_cmd_t@valve@csgo@@@std@@@std@@AAEXXZ 000000001001a860     ctx.obj
 0001:000198f0       ??R?$default_delete@Vc_render@csgo@@@std@@QBEXPAVc_render@csgo@@@Z 000000001001a8f0     ctx.obj
 0001:00019980       ?save@?$cfg_var_t@Ucfg_t@c_move@hacks@csgo@@@sdk@@UBEXAAV?$basic_json@Vmap@std@@Vvector@2@V?$basic_string@DU?$char_traits@D@std@@V?$allocator@D@2@@2@_N_J_KNVallocator@2@Uadl_serializer@nlohmann@@V?$vector@EV?$allocator@E@std@@@2@@nlohmann@@@Z 000000001001a980     ctx.obj
 0001:00019a70       ?load@?$cfg_var_t@Ucfg_t@c_move@hacks@csgo@@@sdk@@UAEXABV?$basic_json@Vmap@std@@Vvector@2@V?$basic_string@DU?$char_traits@D@std@@V?$allocator@D@2@@2@_N_J_KNVallocator@2@Uadl_serializer@nlohmann@@V?$vector@EV?$allocator@E@std@@@2@@nlohmann@@@Z 000000001001aa70     ctx.obj
 0001:00019c10       ?save@?$cfg_var_t@Ucfg_t@c_skins@hacks@csgo@@@sdk@@UBEXAAV?$basic_json@Vmap@std@@Vvector@2@V?$basic_string@DU?$char_traits@D@std@@V?$allocator@D@2@@2@_N_J_KNVallocator@2@Uadl_serializer@nlohmann@@V?$vector@EV?$allocator@E@std@@@2@@nlohmann@@@Z 000000001001ac10     ctx.obj
 0001:00019d00       ?load@?$cfg_var_t@Ucfg_t@c_skins@hacks@csgo@@@sdk@@UAEXABV?$basic_json@Vmap@std@@Vvector@2@V?$basic_string@DU?$char_traits@D@std@@V?$allocator@D@2@@2@_N_J_KNVallocator@2@Uadl_serializer@nlohmann@@V?$vector@EV?$allocator@E@std@@@2@@nlohmann@@@Z 000000001001ad00     ctx.obj
 0001:00019eb0       ?save@?$cfg_var_t@Ucfg_t@c_ping_spike@hacks@csgo@@@sdk@@UBEXAAV?$basic_json@Vmap@std@@Vvector@2@V?$basic_string@DU?$char_traits@D@std@@V?$allocator@D@2@@2@_N_J_KNVallocator@2@Uadl_serializer@nlohmann@@V?$vector@EV?$allocator@E@std@@@2@@nlohmann@@@Z 000000001001aeb0     ctx.obj
 0001:0001a030       ?load@?$cfg_var_t@Ucfg_t@c_ping_spike@hacks@csgo@@@sdk@@UAEXABV?$basic_json@Vmap@std@@Vvector@2@V?$basic_string@DU?$char_traits@D@std@@V?$allocator@D@2@@2@_N_J_KNVallocator@2@Uadl_serializer@nlohmann@@V?$vector@EV?$allocator@E@std@@@2@@nlohmann@@@Z 000000001001b030     ctx.obj
 0001:0001a1d0       ?save@?$cfg_var_t@Ucfg_t@c_misc@hacks@csgo@@@sdk@@UBEXAAV?$basic_json@Vmap@std@@Vvector@2@V?$basic_string@DU?$char_traits@D@std@@V?$allocator@D@2@@2@_N_J_KNVallocator@2@Uadl_serializer@nlohmann@@V?$vector@EV?$allocator@E@std@@@2@@nlohmann@@@Z 000000001001b1d0     ctx.obj
 0001:0001a2c0       ?load@?$cfg_var_t@Ucfg_t@c_misc@hacks@csgo@@@sdk@@UAEXABV?$basic_json@Vmap@std@@Vvector@2@V?$basic_string@DU?$char_traits@D@std@@V?$allocator@D@2@@2@_N_J_KNVallocator@2@Uadl_serializer@nlohmann@@V?$vector@EV?$allocator@E@std@@@2@@nlohmann@@@Z 000000001001b2c0     ctx.obj
 0001:0001a460       ?save@?$cfg_var_t@Ucfg_t@c_chams@hacks@csgo@@@sdk@@UBEXAAV?$basic_json@Vmap@std@@Vvector@2@V?$basic_string@DU?$char_traits@D@std@@V?$allocator@D@2@@2@_N_J_KNVallocator@2@Uadl_serializer@nlohmann@@V?$vector@EV?$allocator@E@std@@@2@@nlohmann@@@Z 000000001001b460     ctx.obj
 0001:0001a550       ?load@?$cfg_var_t@Ucfg_t@c_chams@hacks@csgo@@@sdk@@UAEXABV?$basic_json@Vmap@std@@Vvector@2@V?$basic_string@DU?$char_traits@D@std@@V?$allocator@D@2@@2@_N_J_KNVallocator@2@Uadl_serializer@nlohmann@@V?$vector@EV?$allocator@E@std@@@2@@nlohmann@@@Z 000000001001b550     ctx.obj
 0001:0001a700       ??0c_visuals@hacks@csgo@@QAE@XZ 000000001001b700     ctx.obj
 0001:0001aac0       ??1?$deque@Ubullet_trace_data_t@c_visuals@hacks@csgo@@V?$allocator@Ubullet_trace_data_t@c_visuals@hacks@csgo@@@std@@@std@@QAE@XZ 000000001001bac0     ctx.obj
 0001:0001aae0       ??1?$vector@Ubullet_impact_t@c_visuals@hacks@csgo@@V?$allocator@Ubullet_impact_t@c_visuals@hacks@csgo@@@std@@@std@@QAE@XZ 000000001001bae0     ctx.obj
 0001:0001aae0       ??1?$vector@Ushot_mdl_t@c_visuals@hacks@csgo@@V?$allocator@Ushot_mdl_t@c_visuals@hacks@csgo@@@std@@@std@@QAE@XZ 000000001001bae0     ctx.obj
 0001:0001aae0       ??1?$vector@Upoint_t@hacks@csgo@@V?$allocator@Upoint_t@hacks@csgo@@@std@@@std@@QAE@XZ 000000001001bae0     aim_bot.obj
 0001:0001aae0       ??1?$vector@U?$base_vec_t@M$02@detail@sdk@@V?$allocator@U?$base_vec_t@M$02@detail@sdk@@@std@@@std@@QAE@XZ 000000001001bae0     aim_bot.obj
 0001:0001ab30       ??1grenade_simulation_t@c_visuals@hacks@csgo@@QAE@XZ 000000001001bb30     ctx.obj
 0001:0001abd0       ??1?$_Hash@V?$_Umap_traits@W4ent_handle_t@valve@csgo@@Ugrenade_simulation_t@c_visuals@hacks@3@V?$_Uhash_compare@W4ent_handle_t@valve@csgo@@U?$hash@W4ent_handle_t@valve@csgo@@@std@@U?$equal_to@W4ent_handle_t@valve@csgo@@@5@@std@@V?$allocator@U?$pair@$$CBW4ent_handle_t@valve@csgo@@Ugrenade_simulation_t@c_visuals@hacks@3@@std@@@8@$0A@@std@@@std@@QAE@XZ 000000001001bbd0     ctx.obj
 0001:0001ac70       ?save@?$cfg_var_t@Ucfg_t@c_visuals@hacks@csgo@@@sdk@@UBEXAAV?$basic_json@Vmap@std@@Vvector@2@V?$basic_string@DU?$char_traits@D@std@@V?$allocator@D@2@@2@_N_J_KNVallocator@2@Uadl_serializer@nlohmann@@V?$vector@EV?$allocator@E@std@@@2@@nlohmann@@@Z 000000001001bc70     ctx.obj
 0001:0001ad60       ?load@?$cfg_var_t@Ucfg_t@c_visuals@hacks@csgo@@@sdk@@UAEXABV?$basic_json@Vmap@std@@Vvector@2@V?$basic_string@DU?$char_traits@D@std@@V?$allocator@D@2@@2@_N_J_KNVallocator@2@Uadl_serializer@nlohmann@@V?$vector@EV?$allocator@E@std@@@2@@nlohmann@@@Z 000000001001bd60     ctx.obj
 0001:0001af10       ??0?$_Hash@V?$_Umap_traits@W4ent_handle_t@valve@csgo@@Ugrenade_simulation_t@c_visuals@hacks@3@V?$_Uhash_compare@W4ent_handle_t@valve@csgo@@U?$hash@W4ent_handle_t@valve@csgo@@@std@@U?$equal_to@W4ent_handle_t@valve@csgo@@@5@@std@@V?$allocator@U?$pair@$$CBW4ent_handle_t@valve@csgo@@Ugrenade_simulation_t@c_visuals@hacks@3@@std@@@8@$0A@@std@@@std@@IAE@ABV?$_Uhash_compare@W4ent_handle_t@valve@csgo@@U?$hash@W4ent_handle_t@valve@csgo@@@std@@U?$equal_to@W4ent_handle_t@valve@csgo@@@5@@1@ABV?$allocator@U?$pair@$$CBW4ent_handle_t@valve@csgo@@Ugrenade_simulation_t@c_visuals@hacks@3@@std@@@1@@Z 000000001001bf10     ctx.obj
 0001:0001b010       ??1?$list@U?$pair@$$CBW4ent_handle_t@valve@csgo@@Ugrenade_simulation_t@c_visuals@hacks@3@@std@@V?$allocator@U?$pair@$$CBW4ent_handle_t@valve@csgo@@Ugrenade_simulation_t@c_visuals@hacks@3@@std@@@2@@std@@QAE@XZ 000000001001c010     ctx.obj
 0001:0001b060       ??$destroy_at@U?$pair@$$CBW4ent_handle_t@valve@csgo@@Ugrenade_simulation_t@c_visuals@hacks@3@@std@@@std@@YAXQAU?$pair@$$CBW4ent_handle_t@valve@csgo@@Ugrenade_simulation_t@c_visuals@hacks@3@@0@@Z 000000001001c060     ctx.obj
 0001:0001b100       ?_Tidy@?$deque@Ubullet_trace_data_t@c_visuals@hacks@csgo@@V?$allocator@Ubullet_trace_data_t@c_visuals@hacks@csgo@@@std@@@std@@AAEXXZ 000000001001c100     ctx.obj
 0001:0001b190       ??1c_visuals@hacks@csgo@@QAE@XZ 000000001001c190     ctx.obj
 0001:0001b400       ?_Tidy@?$deque@Uhit_marker_data_t@c_visuals@hacks@csgo@@V?$allocator@Uhit_marker_data_t@c_visuals@hacks@csgo@@@std@@@std@@AAEXXZ 000000001001c400     ctx.obj
 0001:0001b490       ?save@?$cfg_var_t@Ucfg_t@c_exploits@hacks@csgo@@@sdk@@UBEXAAV?$basic_json@Vmap@std@@Vvector@2@V?$basic_string@DU?$char_traits@D@std@@V?$allocator@D@2@@2@_N_J_KNVallocator@2@Uadl_serializer@nlohmann@@V?$vector@EV?$allocator@E@std@@@2@@nlohmann@@@Z 000000001001c490     ctx.obj
 0001:0001b5f0       ?load@?$cfg_var_t@Ucfg_t@c_exploits@hacks@csgo@@@sdk@@UAEXABV?$basic_json@Vmap@std@@Vvector@2@V?$basic_string@DU?$char_traits@D@std@@V?$allocator@D@2@@2@_N_J_KNVallocator@2@Uadl_serializer@nlohmann@@V?$vector@EV?$allocator@E@std@@@2@@nlohmann@@@Z 000000001001c5f0     ctx.obj
 0001:0001b8a0       ?_Tidy@?$deque@V?$shared_ptr@Ulag_record_t@hacks@csgo@@@std@@V?$allocator@V?$shared_ptr@Ulag_record_t@hacks@csgo@@@std@@@2@@std@@AAEXXZ 000000001001c8a0     ctx.obj
 0001:0001b980       ?save@?$cfg_var_t@Ucfg_t@c_anti_aim@hacks@csgo@@@sdk@@UBEXAAV?$basic_json@Vmap@std@@Vvector@2@V?$basic_string@DU?$char_traits@D@std@@V?$allocator@D@2@@2@_N_J_KNVallocator@2@Uadl_serializer@nlohmann@@V?$vector@EV?$allocator@E@std@@@2@@nlohmann@@@Z 000000001001c980     ctx.obj
 0001:0001ba70       ?load@?$cfg_var_t@Ucfg_t@c_anti_aim@hacks@csgo@@@sdk@@UAEXABV?$basic_json@Vmap@std@@Vvector@2@V?$basic_string@DU?$char_traits@D@std@@V?$allocator@D@2@@2@_N_J_KNVallocator@2@Uadl_serializer@nlohmann@@V?$vector@EV?$allocator@E@std@@@2@@nlohmann@@@Z 000000001001ca70     ctx.obj
 0001:0001bc10       ?save@?$cfg_var_t@Ucfg_t@c_aim_bot@hacks@csgo@@@sdk@@UBEXAAV?$basic_json@Vmap@std@@Vvector@2@V?$basic_string@DU?$char_traits@D@std@@V?$allocator@D@2@@2@_N_J_KNVallocator@2@Uadl_serializer@nlohmann@@V?$vector@EV?$allocator@E@std@@@2@@nlohmann@@@Z 000000001001cc10     ctx.obj
 0001:0001bd00       ?load@?$cfg_var_t@Ucfg_t@c_aim_bot@hacks@csgo@@@sdk@@UAEXABV?$basic_json@Vmap@std@@Vvector@2@V?$basic_string@DU?$char_traits@D@std@@V?$allocator@D@2@@2@_N_J_KNVallocator@2@Uadl_serializer@nlohmann@@V?$vector@EV?$allocator@E@std@@@2@@nlohmann@@@Z 000000001001cd00     ctx.obj
 0001:0001beb0       ??1c_aim_bot@hacks@csgo@@QAE@XZ 000000001001ceb0     ctx.obj
 0001:0001bff0       ??1aim_target_t@hacks@csgo@@QAE@XZ 000000001001cff0     ctx.obj
 0001:0001c0b0       ?_Tidy@?$deque@Ushot_t@hacks@csgo@@V?$allocator@Ushot_t@hacks@csgo@@@std@@@std@@AAEXXZ 000000001001d0b0     ctx.obj
 0001:0001c140       ?pop_back@?$deque@Ushot_t@hacks@csgo@@V?$allocator@Ushot_t@hacks@csgo@@@std@@@std@@QAEXXZ 000000001001d140     ctx.obj
 0001:0001c1d0       ?_Tidy@?$deque@Ulog_data_t@hacks@csgo@@V?$allocator@Ulog_data_t@hacks@csgo@@@std@@@std@@AAEXXZ 000000001001d1d0     ctx.obj
 0001:0001c2d0       ??0c_shot_construct@hacks@csgo@@QAE@XZ 000000001001d2d0     ctx.obj
 0001:0001c840       ??1?$array@V?$basic_string@DU?$char_traits@D@std@@V?$allocator@D@2@@std@@$0L@@std@@QAE@XZ 000000001001d840     ctx.obj
 0001:0001c8b0       ??R?$default_delete@Vc_shot_construct@hacks@csgo@@@std@@QBEXPAVc_shot_construct@hacks@csgo@@@Z 000000001001d8b0     ctx.obj
 0001:0001c960       ?_Tidy@?$deque@Vc_shot_record@hacks@csgo@@V?$allocator@Vc_shot_record@hacks@csgo@@@std@@@std@@AAEXXZ 000000001001d960     ctx.obj
 0001:0001ca50       ?_Try_cancel_and_join@jthread@std@@AAEXXZ 000000001001da50     ctx.obj
 0001:0001cb20       ?_Request_stop@_Stop_state@std@@QAE_NXZ 000000001001db20     ctx.obj
 0001:0001cc70       ??1?$list@U?$pair@$$CBIU?$base_address_t@I@detail@sdk@@@std@@V?$allocator@U?$pair@$$CBIU?$base_address_t@I@detail@sdk@@@std@@@2@@std@@QAE@XZ 000000001001dc70     ctx.obj
 0001:0001cc70       ??1?$list@U?$pair@$$CBIPAU?$pe_image_t@$0A@@detail@sdk@@@std@@V?$allocator@U?$pair@$$CBIPAU?$pe_image_t@$0A@@detail@sdk@@@std@@@2@@std@@QAE@XZ 000000001001dc70     ctx.obj
 0001:0001ccc0       ??$_Reallocate_grow_by@V<lambda_1>@?0??reserve@?$basic_string@DU?$char_traits@D@std@@V?$allocator@D@2@@std@@QAEXI@Z@$$V@?$basic_string@DU?$char_traits@D@std@@V?$allocator@D@2@@std@@AAEAAV01@IV<lambda_1>@?0??reserve@01@QAEXI@Z@@Z 000000001001dcc0     ctx.obj
 0001:0001cdf0       ??$_Reallocate_for@V<lambda_1>@?0??assign@?$basic_string@DU?$char_traits@D@std@@V?$allocator@D@2@@std@@QAEAAV34@QBDI@Z@PBD@?$basic_string@DU?$char_traits@D@std@@V?$allocator@D@2@@std@@AAEAAV01@IV<lambda_1>@?0??assign@01@QAEAAV01@QBDI@Z@PBD@Z 000000001001ddf0     ctx.obj
 0001:0001cee0       ??1?$list@U?$pair@$$CBIUent_offset_t@c_ctx@csgo@@@std@@V?$allocator@U?$pair@$$CBIUent_offset_t@c_ctx@csgo@@@std@@@2@@std@@QAE@XZ 000000001001dee0     ctx.obj
 0001:0001cf30       ?unk@base_event_listener_t@valve@csgo@@UAEXXZ 000000001001df30     ctx.obj
 0001:0001cf30       ?_Destroy@?$_Ref_count_obj2@Ulag_record_t@hacks@csgo@@@std@@EAEXXZ 000000001001df30     aim_bot.obj
 0001:0001cf30       _InitializeBuffer          000000001001df30     minhook_x86_v143_md:buffer.obj
 0001:0001cf40       ?debug_event_id@base_event_listener_t@valve@csgo@@UAEHXZ 000000001001df40     ctx.obj
 0001:0001d150       ??$_Insert_or_assign@IPAU?$pe_image_t@$0A@@detail@sdk@@@?$unordered_map@IPAU?$pe_image_t@$0A@@detail@sdk@@U?$hash@I@std@@U?$equal_to@I@5@V?$allocator@U?$pair@$$CBIPAU?$pe_image_t@$0A@@detail@sdk@@@std@@@5@@std@@AAE?AU?$pair@V?$_List_iterator@V?$_List_val@U?$_List_simple_types@U?$pair@$$CBIPAU?$pe_image_t@$0A@@detail@sdk@@@std@@@std@@@std@@@std@@_N@1@$$QAI$$QAPAU?$pe_image_t@$0A@@detail@sdk@@@Z 000000001001e150     ctx.obj
 0001:0001d150       ??$_Insert_or_assign@IPAI@?$unordered_map@IU?$base_address_t@I@detail@sdk@@U?$hash@I@std@@U?$equal_to@I@5@V?$allocator@U?$pair@$$CBIU?$base_address_t@I@detail@sdk@@@std@@@5@@std@@AAE?AU?$pair@V?$_List_iterator@V?$_List_val@U?$_List_simple_types@U?$pair@$$CBIU?$base_address_t@I@detail@sdk@@@std@@@std@@@std@@@std@@_N@1@$$QAI$$QAPAI@Z 000000001001e150     ctx.obj
 0001:0001d3e0       ?_Forced_rehash@?$_Hash@V?$_Umap_traits@IPAU?$pe_image_t@$0A@@detail@sdk@@V?$_Uhash_compare@IU?$hash@I@std@@U?$equal_to@I@2@@std@@V?$allocator@U?$pair@$$CBIPAU?$pe_image_t@$0A@@detail@sdk@@@std@@@5@$0A@@std@@@std@@IAEXI@Z 000000001001e3e0     ctx.obj
 0001:0001d3e0       ?_Forced_rehash@?$_Hash@V?$_Umap_traits@IU?$base_address_t@I@detail@sdk@@V?$_Uhash_compare@IU?$hash@I@std@@U?$equal_to@I@2@@std@@V?$allocator@U?$pair@$$CBIU?$base_address_t@I@detail@sdk@@@std@@@5@$0A@@std@@@std@@IAEXI@Z 000000001001e3e0     ctx.obj
 0001:0001d3e0       ?_Forced_rehash@?$_Hash@V?$_Umap_traits@IUent_offset_t@c_ctx@csgo@@V?$_Uhash_compare@IU?$hash@I@std@@U?$equal_to@I@2@@std@@V?$allocator@U?$pair@$$CBIUent_offset_t@c_ctx@csgo@@@std@@@5@$0A@@std@@@std@@IAEXI@Z 000000001001e3e0     ctx.obj
 0001:0001d3e0       ?_Forced_rehash@?$_Hash@V?$_Umap_traits@W4ent_handle_t@valve@csgo@@Ugrenade_simulation_t@c_visuals@hacks@3@V?$_Uhash_compare@W4ent_handle_t@valve@csgo@@U?$hash@W4ent_handle_t@valve@csgo@@@std@@U?$equal_to@W4ent_handle_t@valve@csgo@@@5@@std@@V?$allocator@U?$pair@$$CBW4ent_handle_t@valve@csgo@@Ugrenade_simulation_t@c_visuals@hacks@3@@std@@@8@$0A@@std@@@std@@IAEXI@Z 000000001001e3e0     visuals.obj
 0001:0001d550       ?_Assign_grow@?$_Hash_vec@V?$allocator@V?$_List_unchecked_iterator@V?$_List_val@U?$_List_simple_types@U?$pair@$$CBIPAU?$pe_image_t@$0A@@detail@sdk@@@std@@@std@@@std@@@std@@@std@@@std@@QAEXIV?$_List_unchecked_iterator@V?$_List_val@U?$_List_simple_types@U?$pair@$$CBIPAU?$pe_image_t@$0A@@detail@sdk@@@std@@@std@@@std@@@2@@Z 000000001001e550     ctx.obj
 0001:0001d550       ?_Assign_grow@?$_Hash_vec@V?$allocator@V?$_List_unchecked_iterator@V?$_List_val@U?$_List_simple_types@U?$pair@$$CBIU?$base_address_t@I@detail@sdk@@@std@@@std@@@std@@@std@@@std@@@std@@QAEXIV?$_List_unchecked_iterator@V?$_List_val@U?$_List_simple_types@U?$pair@$$CBIU?$base_address_t@I@detail@sdk@@@std@@@std@@@std@@@2@@Z 000000001001e550     ctx.obj
 0001:0001d550       ?_Assign_grow@?$_Hash_vec@V?$allocator@V?$_List_unchecked_iterator@V?$_List_val@U?$_List_simple_types@U?$pair@$$CBIUent_offset_t@c_ctx@csgo@@@std@@@std@@@std@@@std@@@std@@@std@@QAEXIV?$_List_unchecked_iterator@V?$_List_val@U?$_List_simple_types@U?$pair@$$CBIUent_offset_t@c_ctx@csgo@@@std@@@std@@@std@@@2@@Z 000000001001e550     ctx.obj
 0001:0001d550       ?_Assign_grow@?$_Hash_vec@V?$allocator@V?$_List_unchecked_iterator@V?$_List_val@U?$_List_simple_types@U?$pair@$$CBW4ent_handle_t@valve@csgo@@Ugrenade_simulation_t@c_visuals@hacks@3@@std@@@std@@@std@@@std@@@std@@@std@@QAEXIV?$_List_unchecked_iterator@V?$_List_val@U?$_List_simple_types@U?$pair@$$CBW4ent_handle_t@valve@csgo@@Ugrenade_simulation_t@c_visuals@hacks@3@@std@@@std@@@std@@@2@@Z 000000001001e550     visuals.obj
 0001:0001d550       ?_Assign_grow@?$_Hash_vec@V?$allocator@V?$_List_unchecked_iterator@V?$_List_val@U?$_List_simple_types@U?$pair@$$CBV?$basic_string@DU?$char_traits@D@std@@V?$allocator@D@2@@std@@U?$pair@PAUrecv_prop_t@valve@csgo@@I@2@@std@@@std@@@std@@@std@@@std@@@std@@QAEXIV?$_List_unchecked_iterator@V?$_List_val@U?$_List_simple_types@U?$pair@$$CBV?$basic_string@DU?$char_traits@D@std@@V?$allocator@D@2@@std@@U?$pair@PAUrecv_prop_t@valve@csgo@@I@2@@std@@@std@@@std@@@2@@Z 000000001001e550     other.obj
 0001:0001d850       ?_Destroy@?$_Ref_count_obj2@UImDrawList@@@std@@EAEXXZ 000000001001e850     ctx.obj
 0001:0001d860       ?_Delete_this@?$_Ref_count_obj2@UImDrawList@@@std@@EAEXXZ 000000001001e860     ctx.obj
 0001:0001d860       ?_Delete_this@?$_Ref_count_obj2@V?$packaged_task@$$A6AXXZ@std@@@std@@EAEXXZ 000000001001e860     aim_bot.obj
 0001:0001d860       ?_Delete_this@?$_Ref_count_obj2@Ulag_record_t@hacks@csgo@@@std@@EAEXXZ 000000001001e860     aim_bot.obj
 0001:0001d860       ?_Delete_this@?$_Ref_count_obj2@V?$output_string_adapter@DV?$basic_string@DU?$char_traits@D@std@@V?$allocator@D@2@@std@@@detail@nlohmann@@@std@@EAEXXZ 000000001001e860     cfg.obj
 0001:0001d870       ??_G?$_Ref_count_obj2@UImDrawList@@@std@@UAEPAXI@Z 000000001001e870     ctx.obj
 0001:0001d890       ?_Get_deleter@_Ref_count_base@std@@UBEPAXABVtype_info@@@Z 000000001001e890     ctx.obj
 0001:0001d8a0       ??1?$ImVector@UImVec2@@@@QAE@XZ 000000001001e8a0     ctx.obj
 0001:0001d8a0       ??1?$ImVector@PAX@@QAE@XZ  000000001001e8a0     ctx.obj
 0001:0001d8a0       ??1?$ImVector@UImVec4@@@@QAE@XZ 000000001001e8a0     ctx.obj
 0001:0001d8a0       ??1?$ImVector@UImDrawVert@@@@QAE@XZ 000000001001e8a0     ctx.obj
 0001:0001d8a0       ??1?$ImVector@G@@QAE@XZ    000000001001e8a0     ctx.obj
 0001:0001d8a0       ??1?$ImVector@UImDrawCmd@@@@QAE@XZ 000000001001e8a0     ctx.obj
 0001:0001d8a0       ??1?$ImVector@UImDrawChannel@@@@QAE@XZ 000000001001e8a0     ctx.obj
 0001:0001d8a0       ??1?$ImVector@Ustbtt_packedchar@@@@QAE@XZ 000000001001e8a0     imgui_draw.obj
 0001:0001d8a0       ??1?$ImVector@Ustbrp_rect@@@@QAE@XZ 000000001001e8a0     imgui_draw.obj
 0001:0001d8a0       ??1?$ImVector@UImFontGlyph@@@@QAE@XZ 000000001001e8a0     imgui_draw.obj
 0001:0001d8a0       ??1?$ImVector@M@@QAE@XZ    000000001001e8a0     imgui_draw.obj
 0001:0001d8a0       ??1?$ImVector@Ustbrp_node@@@@QAE@XZ 000000001001e8a0     imgui_freetype.obj
 0001:0001d8a0       ??1?$ImVector@PAE@@QAE@XZ  000000001001e8a0     imgui_freetype.obj
 0001:0001d910       ??1ImDrawList@@QAE@XZ      000000001001e910     ctx.obj
 0001:0001db10       ??1ImDrawListSplitter@@QAE@XZ 000000001001eb10     ctx.obj
 0001:0001dcd0       ??0?$_Hash@V?$_Umap_traits@IU?$base_address_t@I@detail@sdk@@V?$_Uhash_compare@IU?$hash@I@std@@U?$equal_to@I@2@@std@@V?$allocator@U?$pair@$$CBIU?$base_address_t@I@detail@sdk@@@std@@@5@$0A@@std@@@std@@IAE@ABV?$_Uhash_compare@IU?$hash@I@std@@U?$equal_to@I@2@@1@ABV?$allocator@U?$pair@$$CBIU?$base_address_t@I@detail@sdk@@@std@@@1@@Z 000000001001ecd0     ctx.obj
 0001:0001dcd0       ??0?$_Hash@V?$_Umap_traits@IPAU?$pe_image_t@$0A@@detail@sdk@@V?$_Uhash_compare@IU?$hash@I@std@@U?$equal_to@I@2@@std@@V?$allocator@U?$pair@$$CBIPAU?$pe_image_t@$0A@@detail@sdk@@@std@@@5@$0A@@std@@@std@@IAE@ABV?$_Uhash_compare@IU?$hash@I@std@@U?$equal_to@I@2@@1@ABV?$allocator@U?$pair@$$CBIPAU?$pe_image_t@$0A@@detail@sdk@@@std@@@1@@Z 000000001001ecd0     ctx.obj
 0001:0001dee0       ??$_Insert_or_assign@IUent_offset_t@c_ctx@csgo@@@?$unordered_map@IUent_offset_t@c_ctx@csgo@@U?$hash@I@std@@U?$equal_to@I@5@V?$allocator@U?$pair@$$CBIUent_offset_t@c_ctx@csgo@@@std@@@5@@std@@AAE?AU?$pair@V?$_List_iterator@V?$_List_val@U?$_List_simple_types@U?$pair@$$CBIUent_offset_t@c_ctx@csgo@@@std@@@std@@@std@@@std@@_N@1@$$QAI$$QAUent_offset_t@c_ctx@csgo@@@Z 000000001001eee0     ctx.obj
 0001:0001e180       ??0?$_Hash@V?$_Umap_traits@IUent_offset_t@c_ctx@csgo@@V?$_Uhash_compare@IU?$hash@I@std@@U?$equal_to@I@2@@std@@V?$allocator@U?$pair@$$CBIUent_offset_t@c_ctx@csgo@@@std@@@5@$0A@@std@@@std@@IAE@ABV?$_Uhash_compare@IU?$hash@I@std@@U?$equal_to@I@2@@1@ABV?$allocator@U?$pair@$$CBIUent_offset_t@c_ctx@csgo@@@std@@@1@@Z 000000001001f180     ctx.obj
 0001:0001e750       ?handle_ctx@c_aim_bot@hacks@csgo@@QAEXAAUuser_cmd_t@valve@3@AA_N@Z 000000001001f750     aim_bot.obj
 0001:0001efd0       ?setup_hitboxes@c_aim_bot@hacks@csgo@@SAXAAV?$vector@Uhit_box_data_t@hacks@csgo@@V?$allocator@Uhit_box_data_t@hacks@csgo@@@std@@@std@@@Z 000000001001ffd0     aim_bot.obj
 0001:0001f3c0       ?add_targets@c_aim_bot@hacks@csgo@@IAEXXZ 00000000100203c0     aim_bot.obj
 0001:0001f930       ?select@c_aim_bot@hacks@csgo@@IAEXAAUuser_cmd_t@valve@3@AA_N@Z 0000000010020930     aim_bot.obj
 0001:00022270       ?get_hitbox_data@c_aim_bot@hacks@csgo@@QAEXPAVc_hitbox@23@PAUcs_player_t@valve@3@HABV?$array@U?$base_mat_t@M$02$03@detail@sdk@@$0BAA@@std@@@Z 0000000010023270     aim_bot.obj
 0001:00022980       ?build_seed_table@hacks@csgo@@YAXXZ 0000000010023980     aim_bot.obj
 0001:00022a90       ?extrapolate@c_aim_bot@hacks@csgo@@QBE?AV?$optional@Uaim_target_t@hacks@csgo@@@std@@ABUplayer_entry_t@23@@Z 0000000010023a90     aim_bot.obj
 0001:00023760       ??$?0Uaim_target_t@hacks@csgo@@$0A@@?$optional@Uaim_target_t@hacks@csgo@@@std@@QAE@$$QAUaim_target_t@hacks@csgo@@@Z 0000000010024760     aim_bot.obj
 0001:00023820       ?at@?$deque@V?$shared_ptr@Ulag_record_t@hacks@csgo@@@std@@V?$allocator@V?$shared_ptr@Ulag_record_t@hacks@csgo@@@std@@@2@@std@@QBEABV?$shared_ptr@Ulag_record_t@hacks@csgo@@@2@I@Z 0000000010024820     aim_bot.obj
 0001:00023860       ?player_move@c_aim_bot@hacks@csgo@@QBEXAAUextrapolation_data_t@23@@Z 0000000010024860     aim_bot.obj
 0001:00024620       ??$make_shared@Ulag_record_t@hacks@csgo@@$$V@std@@YA?AV?$shared_ptr@Ulag_record_t@hacks@csgo@@@0@XZ 0000000010025620     aim_bot.obj
 0001:00024730       ??1?$shared_ptr@Ulag_record_t@hacks@csgo@@@std@@QAE@XZ 0000000010025730     aim_bot.obj
 0001:00024730       ??1?$shared_ptr@V?$packaged_task@$$A6AXXZ@std@@@std@@QAE@XZ 0000000010025730     aim_bot.obj
 0001:00024730       ??1?$output_adapter@DV?$basic_string@DU?$char_traits@D@std@@V?$allocator@D@2@@std@@@detail@nlohmann@@QAE@XZ 0000000010025730     cfg.obj
 0001:00024730       ??1?$shared_ptr@U?$output_adapter_protocol@D@detail@nlohmann@@@std@@QAE@XZ 0000000010025730     cfg.obj
 0001:00024760       ?get_min_dmg_override@hacks@csgo@@YAMXZ 0000000010025760     aim_bot.obj
 0001:00024810       ?get_force_head_conditions@hacks@csgo@@YAHXZ 0000000010025810     aim_bot.obj
 0001:000248b0       ?get_force_body_conditions@hacks@csgo@@YAHXZ 00000000100258b0     aim_bot.obj
 0001:00024950       ?get_min_dmg_override_state@hacks@csgo@@YA_NXZ 0000000010025950     aim_bot.obj
 0001:00024950       ?get_min_dmg_override_state_@hacks@csgo@@YA_NXZ 0000000010025950     visuals.obj
 0001:00024a10       ?get_min_dmg_to_set_up@hacks@csgo@@YAMXZ 0000000010025a10     aim_bot.obj
 0001:00024ad0       ?get_autostop_type@hacks@csgo@@YAHXZ 0000000010025ad0     aim_bot.obj
 0001:00024b80       ?get_hitboxes_setup@hacks@csgo@@YAHXZ 0000000010025b80     aim_bot.obj
 0001:00024c30       ?get_head_scale@hacks@csgo@@YAMXZ 0000000010025c30     aim_bot.obj
 0001:00024cf0       ?get_body_scale@hacks@csgo@@YAMXZ 0000000010025cf0     aim_bot.obj
 0001:00024db0       ?calc_hit_chance@c_aim_bot@hacks@csgo@@QAEHPAUcs_player_t@valve@3@V?$shared_ptr@Ulag_record_t@hacks@csgo@@@std@@ABU?$base_qang_t@M@detail@sdk@@H@Z 0000000010025db0     aim_bot.obj
 0001:000257b0       ?select_ideal_record@c_aim_bot@hacks@csgo@@QBE?AV?$optional@Uaim_target_t@hacks@csgo@@@std@@ABUplayer_entry_t@23@@Z 00000000100267b0     aim_bot.obj
 0001:00026330       ?scan_center_points@c_aim_bot@hacks@csgo@@QBEXAAUaim_target_t@23@V?$shared_ptr@Ulag_record_t@hacks@csgo@@@std@@U?$base_vec_t@M$02@detail@sdk@@AAV?$vector@Upoint_t@hacks@csgo@@V?$allocator@Upoint_t@hacks@csgo@@@std@@@6@@Z 0000000010027330     aim_bot.obj
 0001:00026820       ?get_latest_record@c_aim_bot@hacks@csgo@@QBE?AV?$optional@Uaim_target_t@hacks@csgo@@@std@@ABUplayer_entry_t@23@@Z 0000000010027820     aim_bot.obj
 0001:00026b10       ??$?4ABV?$shared_ptr@Ulag_record_t@hacks@csgo@@@std@@$0A@@?$optional@V?$shared_ptr@Ulag_record_t@hacks@csgo@@@std@@@std@@QAEAAV01@ABV?$shared_ptr@Ulag_record_t@hacks@csgo@@@1@@Z 0000000010027b10     aim_bot.obj
 0001:00026b10       ??$?4AAV?$shared_ptr@Ulag_record_t@hacks@csgo@@@std@@$0A@@?$optional@V?$shared_ptr@Ulag_record_t@hacks@csgo@@@std@@@std@@QAEAAV01@AAV?$shared_ptr@Ulag_record_t@hacks@csgo@@@1@@Z 0000000010027b10     exploits.obj
 0001:00026b90       ?scan_points@c_aim_bot@hacks@csgo@@QBE_NV?$c_crypt_container@PAUaim_target_t@hacks@csgo@@@@AAV?$vector@Upoint_t@hacks@csgo@@V?$allocator@Upoint_t@hacks@csgo@@@std@@@std@@_N@Z 0000000010027b90     aim_bot.obj
 0001:00027200       ??4?$shared_ptr@Ulag_record_t@hacks@csgo@@@std@@QAEAAV01@ABV01@@Z 0000000010028200     aim_bot.obj
 0001:00027250       ?calc_capsule_points@c_aim_bot@hacks@csgo@@SAXAAUaim_target_t@23@PBUstudio_bbox_t@valve@3@HU?$base_mat_t@M$02$03@detail@sdk@@M@Z 0000000010028250     aim_bot.obj
 0001:00027b00       ?setup_points@c_aim_bot@hacks@csgo@@SAXAAUaim_target_t@23@V?$shared_ptr@Ulag_record_t@hacks@csgo@@@std@@W4e_hitbox@valve@3@W4e_hit_scan_mode@23@@Z 0000000010028b00     aim_bot.obj
 0001:00028d70       ??$emplace_back@AAU?$base_vec_t@M$02@detail@sdk@@AAW4e_hitbox@valve@csgo@@_N@?$vector@Upoint_t@hacks@csgo@@V?$allocator@Upoint_t@hacks@csgo@@@std@@@std@@QAE?A?<decltype-auto>@@AAU?$base_vec_t@M$02@detail@sdk@@AAW4e_hitbox@valve@csgo@@$$QA_N@Z 0000000010029d70     aim_bot.obj
 0001:00028dd0       ?select_point@c_aim_bot@hacks@csgo@@QAEPAUpoint_t@23@V?$c_crypt_container@PAUaim_target_t@hacks@csgo@@@@H@Z 0000000010029dd0     aim_bot.obj
 0001:000293e0       ?can_shoot@c_aim_bot@hacks@csgo@@QBE_N_NH_N@Z 000000001002a3e0     aim_bot.obj
 0001:00029660       ??1?$_State_manager@H@std@@QAE@XZ 000000001002a660     aim_bot.obj
 0001:00029660       ??1?$_Promise@H@std@@QAE@XZ 000000001002a660     aim_bot.obj
 0001:000296e0       ??0?$basic_stringstream@DU?$char_traits@D@std@@V?$allocator@D@2@@std@@QAE@XZ 000000001002a6e0     aim_bot.obj
 0001:00029840       ??4?$basic_string@DU?$char_traits@D@std@@V?$allocator@D@2@@std@@QAEAAV01@QBD@Z 000000001002a840     aim_bot.obj
 0001:000298c0       ??$?6U?$char_traits@D@std@@@std@@YAAAV?$basic_ostream@DU?$char_traits@D@std@@@0@AAV10@PBD@Z 000000001002a8c0     aim_bot.obj
 0001:00029bc0       ??_D?$basic_stringstream@DU?$char_traits@D@std@@V?$allocator@D@2@@std@@QAEXXZ 000000001002abc0     aim_bot.obj
 0001:00029c50       ?handle_knife_bot@c_knife_bot@hacks@csgo@@QAEXAAUuser_cmd_t@valve@3@@Z 000000001002ac50     aim_bot.obj
 0001:0002a200       ?select_target@c_knife_bot@hacks@csgo@@QAE_NXZ 000000001002b200     aim_bot.obj
 0001:0002a3a0       ?_Destroy@?$_Ref_count_obj2@V?$packaged_task@$$A6AXXZ@std@@@std@@EAEXXZ 000000001002b3a0     aim_bot.obj
 0001:0002a460       ??_G?$_Ref_count_obj2@V?$packaged_task@$$A6AXXZ@std@@@std@@UAEPAXI@Z 000000001002b460     aim_bot.obj
 0001:0002a480       ??_G?$_Packaged_state@$$A6AXXZ@std@@UAEPAXI@Z 000000001002b480     aim_bot.obj
 0001:0002a510       ?_Wait@?$_Associated_state@H@std@@UAEXXZ 000000001002b510     aim_bot.obj
 0001:0002a5f0       ?_Get_value@?$_Associated_state@H@std@@UAEAAH_N@Z 000000001002b5f0     aim_bot.obj
 0001:0002a760       ?_Has_deferred_function@?$_Associated_state@H@std@@EBE_NXZ 000000001002b760     aim_bot.obj
 0001:0002a760       ??$toIntImpl@V?$basic_string@DU?$char_traits@D@std@@V?$allocator@D@2@@std@@@FormatArg@detail@tinyformat@hacks@csgo@@CAHPBX@Z 000000001002b760     shots.obj
 0001:0002a770       ?_Run_deferred_function@?$_Associated_state@H@std@@EAEXAAV?$unique_lock@Vmutex@std@@@2@@Z 000000001002b770     aim_bot.obj
 0001:0002a770       ?fake_move@c_anti_aim@hacks@csgo@@QAEXAAUuser_cmd_t@valve@3@@Z 000000001002b770     anti_aim.obj
 0001:0002a780       ?_Do_notify@?$_Associated_state@H@std@@EAEXPAV?$unique_lock@Vmutex@std@@@2@_N@Z 000000001002b780     aim_bot.obj
 0001:0002a7d0       ??_G?$_Associated_state@H@std@@UAEPAXI@Z 000000001002b7d0     aim_bot.obj
 0001:0002a8f0       ?_Throw_future_error2@std@@YAXW4future_errc@1@@Z 000000001002b8f0     aim_bot.obj
 0001:0002a910       ?rethrow_exception@std@@YAXVexception_ptr@1@@Z 000000001002b910     aim_bot.obj
 0001:0002a970       ??0future_error@std@@QAE@W4future_errc@1@@Z 000000001002b970     aim_bot.obj
 0001:0002a9e0       ??0future_error@std@@QAE@ABV01@@Z 000000001002b9e0     aim_bot.obj
 0001:0002aa30       ??0logic_error@std@@QAE@ABV01@@Z 000000001002ba30     aim_bot.obj
 0001:0002aa70       ?what@future_error@std@@UBEPBDXZ 000000001002ba70     aim_bot.obj
 0001:0002aa90       ??_G_Future_error_category2@std@@UAEPAXI@Z 000000001002ba90     aim_bot.obj
 0001:0002aa90       ??_G?$_Ref_count_obj2@Ulag_record_t@hacks@csgo@@@std@@UAEPAXI@Z 000000001002ba90     aim_bot.obj
 0001:0002aa90       ??_G_System_error_category@std@@UAEPAXI@Z 000000001002ba90     cfg.obj
 0001:0002aa90       ??_G_Generic_error_category@std@@UAEPAXI@Z 000000001002ba90     cfg.obj
 0001:0002aa90       ??_G?$output_string_adapter@DV?$basic_string@DU?$char_traits@D@std@@V?$allocator@D@2@@std@@@detail@nlohmann@@UAEPAXI@Z 000000001002ba90     cfg.obj
 0001:0002aab0       ?name@_Future_error_category2@std@@UBEPBDXZ 000000001002bab0     aim_bot.obj
 0001:0002aac0       ?message@_Future_error_category2@std@@UBE?AV?$basic_string@DU?$char_traits@D@std@@V?$allocator@D@2@@2@H@Z 000000001002bac0     aim_bot.obj
 0001:0002ab00       ?default_error_condition@error_category@std@@UBE?AVerror_condition@2@H@Z 000000001002bb00     aim_bot.obj
 0001:0002ab10       ?equivalent@error_category@std@@UBE_NABVerror_code@2@H@Z 000000001002bb10     aim_bot.obj
 0001:0002ab30       ?equivalent@error_category@std@@UBE_NHABVerror_condition@2@@Z 000000001002bb30     aim_bot.obj
 0001:0002ab80       ?_Abandon@?$_Associated_state@H@std@@QAEXXZ 000000001002bb80     aim_bot.obj
 0001:0002ad70       ?_Growmap@?$deque@V?$function@$$A6AXXZ@std@@V?$allocator@V?$function@$$A6AXXZ@std@@@2@@std@@AAEXI@Z 000000001002bd70     aim_bot.obj
 0001:0002af10       ?_Xlen@?$deque@V?$function@$$A6AXXZ@std@@V?$allocator@V?$function@$$A6AXXZ@std@@@2@@std@@ABEXXZ 000000001002bf10     aim_bot.obj
 0001:0002af10       ?_Xlen@?$deque@Ushot_t@hacks@csgo@@V?$allocator@Ushot_t@hacks@csgo@@@std@@@std@@ABEXXZ 000000001002bf10     aim_bot.obj
 0001:0002af10       ?_Xlen@?$deque@Uout_cmds_data_t@c_ctx@csgo@@V?$allocator@Uout_cmds_data_t@c_ctx@csgo@@@std@@@std@@ABEXXZ 000000001002bf10     exploits.obj
 0001:0002af10       ?_Xlen@?$deque@V?$shared_ptr@Ulag_record_t@hacks@csgo@@@std@@V?$allocator@V?$shared_ptr@Ulag_record_t@hacks@csgo@@@std@@@2@@std@@ABEXXZ 000000001002bf10     lag_comp.obj
 0001:0002af10       ?_Xlen@?$deque@Ulog_data_t@hacks@csgo@@V?$allocator@Ulog_data_t@hacks@csgo@@@std@@@std@@ABEXXZ 000000001002bf10     shots.obj
 0001:0002af10       ?_Xlen@?$deque@Ubullet_trace_data_t@c_visuals@hacks@csgo@@V?$allocator@Ubullet_trace_data_t@c_visuals@hacks@csgo@@@std@@@std@@ABEXXZ 000000001002bf10     shots.obj
 0001:0002af10       ?_Xlen@?$deque@Uhit_marker_data_t@c_visuals@hacks@csgo@@V?$allocator@Uhit_marker_data_t@c_visuals@hacks@csgo@@@std@@@std@@ABEXXZ 000000001002bf10     shots.obj
 0001:0002afe0       ?_Call_immediate@?$_Packaged_state@$$A6AXXZ@std@@QAEXXZ 000000001002bfe0     aim_bot.obj
 0001:0002b0c0       ?_Set_value@?$_Associated_state@H@std@@QAEX$$QAH_N@Z 000000001002c0c0     aim_bot.obj
 0001:0002b190       ?_Set_exception@?$_Associated_state@H@std@@QAEXVexception_ptr@2@_N@Z 000000001002c190     aim_bot.obj
 0001:0002b2e0       ??$_Emplace_reallocate@MMM@?$vector@V?$tuple@MMM@std@@V?$allocator@V?$tuple@MMM@std@@@2@@std@@AAEPAV?$tuple@MMM@1@QAV21@$$QAM11@Z 000000001002c2e0     aim_bot.obj
 0001:0002b4e0       ??1?$_Optional_destruct_base@V?$shared_ptr@Ulag_record_t@hacks@csgo@@@std@@$0A@@std@@QAE@XZ 000000001002c4e0     aim_bot.obj
 0001:0002b510       ??$_Assign_from@ABU?$_Optional_construct_base@V?$shared_ptr@Ulag_record_t@hacks@csgo@@@std@@@std@@@?$_Optional_construct_base@V?$shared_ptr@Ulag_record_t@hacks@csgo@@@std@@@std@@QAEXABU01@@Z 000000001002c510     aim_bot.obj
 0001:0002b5c0       ?_Throw_bad_optional_access@std@@YAXXZ 000000001002c5c0     aim_bot.obj
 0001:0002b5f0       ??0bad_optional_access@std@@QAE@ABV01@@Z 000000001002c5f0     aim_bot.obj
 0001:0002b630       ?what@bad_optional_access@std@@UBEPBDXZ 000000001002c630     aim_bot.obj
 0001:0002b640       ?_Xran@?$array@U?$base_mat_t@M$02$03@detail@sdk@@$0BAA@@std@@QBEXXZ 000000001002c640     aim_bot.obj
 0001:0002b640       ?_Xran@?$array@Uplayer_entry_t@hacks@csgo@@$0EA@@std@@QBEXXZ 000000001002c640     aim_bot.obj
 0001:0002b640       ?_Xran@?$array@PAUpoint_t@hacks@csgo@@$0BE@@std@@QBEXXZ 000000001002c640     aim_bot.obj
 0001:0002b640       ?_Xran@?$array@Uanim_layer_t@valve@csgo@@$0N@@std@@QBEXXZ 000000001002c640     anim_sync.obj
 0001:0002b640       ?_Xran@?$array@Ulocal_data_t@c_eng_pred@hacks@csgo@@$0JG@@std@@QBEXXZ 000000001002c640     eng_pred.obj
 0001:0002b640       ?_Xran@?$array@H$0CAN@@std@@QBEXXZ 000000001002c640     misc.obj
 0001:0002b640       ?_Xran@?$array@Udormant_data_t@hacks@csgo@@$0EB@@std@@QBEXXZ 000000001002c640     shots.obj
 0001:0002b640       ?_Xran@?$array@U?$base_vec_t@M$02@detail@sdk@@$0EB@@std@@QBEXXZ 000000001002c640     visuals.obj
 0001:0002b640       ?_Xran@?$array@_N$0EB@@std@@QBEXXZ 000000001002c640     visuals.obj
 0001:0002b640       ?_Xran@?$array@Unet_vars_t@c_eng_pred@hacks@csgo@@$0JG@@std@@QBEXXZ 000000001002c640     hooks.obj
 0001:0002b650       ?should_hit_entity@trace_filter_world_only_t@valve@csgo@@UBE_NQAUbase_entity_t@23@W4e_mask@23@@Z 000000001002c650     aim_bot.obj
 0001:0002b660       ?type@trace_filter_world_only_t@valve@csgo@@UBEHXZ 000000001002c660     aim_bot.obj
 0001:0002b660       ?type@trace_filter_t@valve@csgo@@UBEHXZ 000000001002c660     anti_aim.obj
 0001:0002b670       ?sin@sdk@@YINN@Z           000000001002c670     aim_bot.obj
 0001:0002b680       ?cos@sdk@@YINN@Z           000000001002c680     aim_bot.obj
 0001:0002b690       ?_Reallocate_exactly@?$vector@Uaim_target_t@hacks@csgo@@V?$allocator@Uaim_target_t@hacks@csgo@@@std@@@std@@AAEXI@Z 000000001002c690     aim_bot.obj
 0001:0002b850       ??$_Emplace_reallocate@Uaim_target_t@hacks@csgo@@@?$vector@Uaim_target_t@hacks@csgo@@V?$allocator@Uaim_target_t@hacks@csgo@@@std@@@std@@AAEPAUaim_target_t@hacks@csgo@@QAU234@$$QAU234@@Z 000000001002c850     aim_bot.obj
 0001:0002bcd0       ??$_Emplace_reallocate@ABUpoint_t@hacks@csgo@@@?$vector@Upoint_t@hacks@csgo@@V?$allocator@Upoint_t@hacks@csgo@@@std@@@std@@AAEPAUpoint_t@hacks@csgo@@QAU234@ABU234@@Z 000000001002ccd0     aim_bot.obj
 0001:0002bcd0       ??$_Emplace_reallocate@Upoint_t@hacks@csgo@@@?$vector@Upoint_t@hacks@csgo@@V?$allocator@Upoint_t@hacks@csgo@@@std@@@std@@AAEPAUpoint_t@hacks@csgo@@QAU234@$$QAU234@@Z 000000001002ccd0     aim_bot.obj
 0001:0002be50       ??$_Emplace_reallocate@AAU?$base_vec_t@M$02@detail@sdk@@W4e_hitbox@valve@csgo@@_N@?$vector@Upoint_t@hacks@csgo@@V?$allocator@Upoint_t@hacks@csgo@@@std@@@std@@AAEPAUpoint_t@hacks@csgo@@QAU234@AAU?$base_vec_t@M$02@detail@sdk@@$$QAW4e_hitbox@valve@4@$$QA_N@Z 000000001002ce50     aim_bot.obj
 0001:0002be50       ??$_Emplace_reallocate@AAU?$base_vec_t@M$02@detail@sdk@@AAW4e_hitbox@valve@csgo@@_N@?$vector@Upoint_t@hacks@csgo@@V?$allocator@Upoint_t@hacks@csgo@@@std@@@std@@AAEPAUpoint_t@hacks@csgo@@QAU234@AAU?$base_vec_t@M$02@detail@sdk@@AAW4e_hitbox@valve@4@$$QA_N@Z 000000001002ce50     aim_bot.obj
 0001:0002c000       ??$_Emplace_reallocate@Uhit_box_data_t@hacks@csgo@@@?$vector@Uhit_box_data_t@hacks@csgo@@V?$allocator@Uhit_box_data_t@hacks@csgo@@@std@@@std@@AAEPAUhit_box_data_t@hacks@csgo@@QAU234@$$QAU234@@Z 000000001002d000     aim_bot.obj
 0001:0002c000       ??$_Emplace_reallocate@Uincoming_seq_t@hooks@csgo@@@?$vector@Uincoming_seq_t@hooks@csgo@@V?$allocator@Uincoming_seq_t@hooks@csgo@@@std@@@std@@AAEPAUincoming_seq_t@hooks@csgo@@QAU234@$$QAU234@@Z 000000001002d000     hooks.obj
 0001:0002c150       ?_Clear_and_reserve_geometric@?$vector@Upoint_t@hacks@csgo@@V?$allocator@Upoint_t@hacks@csgo@@@std@@@std@@AAEXI@Z 000000001002d150     aim_bot.obj
 0001:0002c240       ??4aim_target_t@hacks@csgo@@QAEAAU012@$$QAU012@@Z 000000001002d240     aim_bot.obj
 0001:0002c360       ??$_Assign_from@U?$_Optional_construct_base@V?$shared_ptr@Ulag_record_t@hacks@csgo@@@std@@@std@@@?$_Optional_construct_base@V?$shared_ptr@Ulag_record_t@hacks@csgo@@@std@@@std@@QAEX$$QAU01@@Z 000000001002d360     aim_bot.obj
 0001:0002c410       ??$emplace_back@ABU?$base_vec_t@M$02@detail@sdk@@ABQBUaim_target_t@hacks@csgo@@ABHABHABMABM@?$deque@Ushot_t@hacks@csgo@@V?$allocator@Ushot_t@hacks@csgo@@@std@@@std@@QAE?A?<decltype-auto>@@ABU?$base_vec_t@M$02@detail@sdk@@ABQBUaim_target_t@hacks@csgo@@ABH2ABM3@Z 000000001002d410     aim_bot.obj
 0001:0002c4b0       ?_Growmap@?$deque@Ushot_t@hacks@csgo@@V?$allocator@Ushot_t@hacks@csgo@@@std@@@std@@AAEXI@Z 000000001002d4b0     aim_bot.obj
 0001:0002c650       ??$construct@Ushot_t@hacks@csgo@@ABU?$base_vec_t@M$02@detail@sdk@@ABQBUaim_target_t@23@ABHABHABMABM@?$_Default_allocator_traits@V?$allocator@Ushot_t@hacks@csgo@@@std@@@std@@SAXAAV?$allocator@Ushot_t@hacks@csgo@@@1@QAUshot_t@hacks@csgo@@ABU?$base_vec_t@M$02@detail@sdk@@ABQBUaim_target_t@45@ABH4ABM5@Z 000000001002d650     aim_bot.obj
 0001:0002c870       ??0?$vector@U?$base_vec_t@M$02@detail@sdk@@V?$allocator@U?$base_vec_t@M$02@detail@sdk@@@std@@@std@@QAE@ABV01@@Z 000000001002d870     aim_bot.obj
 0001:0002c920       ??0?$vector@Upoint_t@hacks@csgo@@V?$allocator@Upoint_t@hacks@csgo@@@std@@@std@@QAE@ABV01@@Z 000000001002d920     aim_bot.obj
 0001:0002c9d0       ??_E?$basic_stringstream@DU?$char_traits@D@std@@V?$allocator@D@2@@std@@$4PPPPPPPM@A@AEPAXI@Z 000000001002d9d0     aim_bot.obj
 0001:0002ca30       ?_Tidy@?$basic_stringbuf@DU?$char_traits@D@std@@V?$allocator@D@2@@std@@IAEXXZ 000000001002da30     aim_bot.obj
 0001:0002cad0       ??_G?$basic_stringbuf@DU?$char_traits@D@std@@V?$allocator@D@2@@std@@UAEPAXI@Z 000000001002dad0     aim_bot.obj
 0001:0002cb00       ?overflow@?$basic_stringbuf@DU?$char_traits@D@std@@V?$allocator@D@2@@std@@MAEHH@Z 000000001002db00     aim_bot.obj
 0001:0002cc80       ?pbackfail@?$basic_stringbuf@DU?$char_traits@D@std@@V?$allocator@D@2@@std@@MAEHH@Z 000000001002dc80     aim_bot.obj
 0001:0002cce0       ?underflow@?$basic_stringbuf@DU?$char_traits@D@std@@V?$allocator@D@2@@std@@MAEHXZ 000000001002dce0     aim_bot.obj
 0001:0002cd30       ?seekoff@?$basic_stringbuf@DU?$char_traits@D@std@@V?$allocator@D@2@@std@@MAE?AV?$fpos@U_Mbstatet@@@2@_JHH@Z 000000001002dd30     aim_bot.obj
 0001:0002cf00       ?seekpos@?$basic_stringbuf@DU?$char_traits@D@std@@V?$allocator@D@2@@std@@MAE?AV?$fpos@U_Mbstatet@@@2@V32@H@Z 000000001002df00     aim_bot.obj
 0001:0002d050       ?_Xran@?$deque@V?$shared_ptr@Ulag_record_t@hacks@csgo@@@std@@V?$allocator@V?$shared_ptr@Ulag_record_t@hacks@csgo@@@std@@@2@@std@@ABEXXZ 000000001002e050     aim_bot.obj
 0001:0002d6a0       ??_G?$basic_ios@DU?$char_traits@D@std@@@std@@UAEPAXI@Z 000000001002e6a0     aim_bot.obj
 0001:0002d6c0       ??_E?$basic_iostream@DU?$char_traits@D@std@@@std@@$4PPPPPPPM@A@AEPAXI@Z 000000001002e6c0     aim_bot.obj
 0001:0002d6f0       ??_E?$basic_istream@DU?$char_traits@D@std@@@std@@$4PPPPPPPM@A@AEPAXI@Z 000000001002e6f0     aim_bot.obj
 0001:0002d720       ??_E?$basic_ostream@DU?$char_traits@D@std@@@std@@$4PPPPPPPM@A@AEPAXI@Z 000000001002e720     aim_bot.obj
 0001:0002d750       ??0sentry@?$basic_ostream@DU?$char_traits@D@std@@@std@@QAE@AAV12@@Z 000000001002e750     aim_bot.obj
 0001:0002d820       ??1sentry@?$basic_ostream@DU?$char_traits@D@std@@@std@@QAE@XZ 000000001002e820     aim_bot.obj
 0001:0002d8d0       ??1_Sentry_base@?$basic_ostream@DU?$char_traits@D@std@@@std@@QAE@XZ 000000001002e8d0     aim_bot.obj
 0001:0002d8d0       ??1_Sentry_base@?$basic_istream@DU?$char_traits@D@std@@@std@@QAE@XZ 000000001002e8d0     cfg.obj
 0001:0002db50       ?handle_player_update@c_anim_sync@hacks@csgo@@QAEXV?$c_crypt_container@PAUlag_record_t@hacks@csgo@@@@V?$c_crypt_container@PAUprevious_lag_data_t@hacks@csgo@@@@1AAUplayer_entry_t@23@@Z 000000001002eb50     anim_sync.obj
 0001:00031c10       ?catch_ground@c_anim_sync@hacks@csgo@@QAEXV?$c_crypt_container@PAUlag_record_t@hacks@csgo@@@@V?$c_crypt_container@PAUprevious_lag_data_t@hacks@csgo@@@@AAUplayer_entry_t@23@@Z 0000000010032c10     anim_sync.obj
 0001:00032ba0       ?handle_ctx@c_resolver@hacks@csgo@@QAEXV?$c_crypt_container@PAUlag_record_t@hacks@csgo@@@@V?$c_crypt_container@PAUprevious_lag_data_t@hacks@csgo@@@@1AAUplayer_entry_t@23@@Z 0000000010033ba0     anim_sync.obj
 0001:00033550       ?setup_bones@c_anim_sync@hacks@csgo@@QAEXPAUcs_player_t@valve@3@AAV?$array@U?$base_mat_t@M$02$03@detail@sdk@@$0BAA@@std@@M@Z 0000000010034550     anim_sync.obj
 0001:00033810       ?set_solve_mode@c_resolver@hacks@csgo@@IAEXV?$c_crypt_container@PAUlag_record_t@hacks@csgo@@@@AAUplayer_entry_t@23@@Z 0000000010034810     anim_sync.obj
 0001:000339d0       ?solve_stand@c_resolver@hacks@csgo@@IAEXV?$c_crypt_container@PAUlag_record_t@hacks@csgo@@@@V?$c_crypt_container@PAUprevious_lag_data_t@hacks@csgo@@@@1AAUplayer_entry_t@23@@Z 00000000100349d0     anim_sync.obj
 0001:000345f0       ?solve_walk@c_resolver@hacks@csgo@@IAEXV?$c_crypt_container@PAUlag_record_t@hacks@csgo@@@@AAUplayer_entry_t@23@@Z 00000000100355f0     anim_sync.obj
 0001:00034a70       ?solve_air@c_resolver@hacks@csgo@@IAEXV?$c_crypt_container@PAUlag_record_t@hacks@csgo@@@@V?$c_crypt_container@PAUprevious_lag_data_t@hacks@csgo@@@@AAUplayer_entry_t@23@@Z 0000000010035a70     anim_sync.obj
 0001:00034c80       ?parse_lby_proxy@c_resolver@hacks@csgo@@QAEXPAUcs_player_t@valve@3@PAM@Z 0000000010035c80     anim_sync.obj
 0001:00034cd0       ?anti_freestand@c_resolver@hacks@csgo@@QAEXAAUplayer_entry_t@23@@Z 0000000010035cd0     anim_sync.obj
 0001:00035400       ?handle_ctx@c_local_sync@hacks@csgo@@QAEXABUuser_cmd_t@valve@3@AA_N@Z 0000000010036400     anim_sync.obj
 0001:000362b0       ?do_anim_event@c_local_sync@hacks@csgo@@QAEXXZ 00000000100372b0     anim_sync.obj
 0001:000364a0       ?setup_bones@c_local_sync@hacks@csgo@@QAEXAAV?$array@U?$base_mat_t@M$02$03@detail@sdk@@$0BAA@@std@@MH@Z 00000000100374a0     anim_sync.obj
 0001:00036b60       ?simulate@c_local_sync@hacks@csgo@@QAEXXZ 0000000010037b60     anim_sync.obj
 0001:00036d80       ?handle_ctx@c_anti_aim@hacks@csgo@@QAEXAAUuser_cmd_t@valve@3@AA_N@Z 0000000010037d80     anti_aim.obj
 0001:000372a0       ?handle_yaw@c_anti_aim@hacks@csgo@@QAEMAAUuser_cmd_t@valve@3@@Z 00000000100382a0     anti_aim.obj
 0001:00037600       ?handle_distortion@c_anti_aim@hacks@csgo@@QAEXAAUuser_cmd_t@valve@3@@Z 0000000010038600     anti_aim.obj
 0001:00037d60       ?break_freestand@c_anti_aim@hacks@csgo@@QAE_NAAM@Z 0000000010038d60     anti_aim.obj
 0001:00038620       ?fake_flick@c_anti_aim@hacks@csgo@@QAEXAAUuser_cmd_t@valve@3@AA_N@Z 0000000010039620     anti_aim.obj
 0001:000386f0       ?freestanding@c_anti_aim@hacks@csgo@@QAE_NAAM@Z 00000000100396f0     anti_aim.obj
 0001:000395a0       ?handle_fake_lag@c_anti_aim@hacks@csgo@@QAEXAAUuser_cmd_t@valve@3@@Z 000000001003a5a0     anti_aim.obj
 0001:00039760       ?handle_pitch@c_anti_aim@hacks@csgo@@QAEXAAUuser_cmd_t@valve@3@@Z 000000001003a760     anti_aim.obj
 0001:00039930       ?scale_dmg@c_auto_wall@hacks@csgo@@QAEXPAUcs_player_t@valve@3@AAUtrace_t@53@PAUweapon_info_t@53@AAMH@Z 000000001003a930     auto_wall.obj
 0001:0003a090       ?trace_to_exit@c_auto_wall@hacks@csgo@@QAE_NABU?$base_vec_t@M$02@detail@sdk@@0ABUtrace_t@valve@3@AAU783@@Z 000000001003b090     auto_wall.obj
 0001:0003a5e0       ?handle_bullet_penetration@c_auto_wall@hacks@csgo@@QAE_NPAUweapon_info_t@valve@3@AAUtrace_t@53@AAU?$base_vec_t@M$02@detail@sdk@@ABU789@AAHAAMMMM@Z 000000001003b5e0     auto_wall.obj
 0001:0003a8e0       ?clip_trace_to_player@hacks@csgo@@YAXABU?$base_vec_t@M$02@detail@sdk@@0AAUtrace_t@valve@2@QAUcs_player_t@72@ABQ6A_NQAUbase_entity_t@72@W4e_mask@72@@Z@Z 000000001003b8e0     auto_wall.obj
 0001:0003ada0       ?fire_bullet@c_auto_wall@hacks@csgo@@QAE_NPAUcs_weapon_t@valve@3@AAU?$base_vec_t@M$02@detail@sdk@@AA_NAAMAAH44PAUbase_entity_t@53@MABU678@@Z 000000001003bda0     auto_wall.obj
 0001:0003b460       ?wall_penetration@c_auto_wall@hacks@csgo@@QAE?AUauto_wall_data_t@23@AAU?$base_vec_t@M$02@detail@sdk@@0PAUcs_player_t@valve@3@@Z 000000001003c460     auto_wall.obj
 0001:0003b920       ?prepare@c_eng_pred@hacks@csgo@@QAEXXZ 000000001003c920     eng_pred.obj
 0001:0003bb00       ?process@c_eng_pred@hacks@csgo@@QAEXQAUuser_cmd_t@valve@3@_N1@Z 000000001003cb00     eng_pred.obj
 0001:0003bcc0       ?predict@c_eng_pred@hacks@csgo@@QAEXQAUuser_cmd_t@valve@3@_N1@Z 000000001003ccc0     eng_pred.obj
 0001:0003c1b0       ?update_shoot_pos@c_eng_pred@hacks@csgo@@QBEXABUuser_cmd_t@valve@3@@Z 000000001003d1b0     eng_pred.obj
 0001:0003c4b0       ?restore@c_eng_pred@hacks@csgo@@QAEXXZ 000000001003d4b0     eng_pred.obj
 0001:0003c570       ?is_peeking@c_exploits@hacks@csgo@@QAE_NAAU?$base_qang_t@M@detail@sdk@@M@Z 000000001003d570     exploits.obj
 0001:0003ce10       ?handle_context@c_exploits@hacks@csgo@@QAEXAAUuser_cmd_t@valve@3@@Z 000000001003de10     exploits.obj
 0001:0003d2e0       ?skip_lag_interpolation@c_exploits@hacks@csgo@@QAEX_N@Z 000000001003e2e0     exploits.obj
 0001:0003d460       ?try_to_recharge@c_exploits@hacks@csgo@@QAE_NAA_NAAUuser_cmd_t@valve@3@@Z 000000001003e460     exploits.obj
 0001:0003d6f0       ?clock_correction@c_exploits@hacks@csgo@@QBEHXZ 000000001003e6f0     exploits.obj
 0001:0003d900       ?adjust_tick_base@c_exploits@hacks@csgo@@QBEHHHH@Z 000000001003e900     exploits.obj
 0001:0003da90       ?handle_break_lc@c_exploits@hacks@csgo@@QAEXIIHV?$c_crypt_container@PAUbf_write_t@valve@csgo@@@@AAH1V?$c_crypt_container@PAUmove_msg_t@valve@csgo@@@@@Z 000000001003ea90     exploits.obj
 0001:0003de20       ?process_real_cmds@c_exploits@hacks@csgo@@QAEXIIHV?$c_crypt_container@PAUbf_write_t@valve@csgo@@@@AAH1V?$c_crypt_container@PAUmove_msg_t@valve@csgo@@@@@Z 000000001003ee20     exploits.obj
 0001:0003ebb0       ?_Growmap@?$deque@Uout_cmds_data_t@c_ctx@csgo@@V?$allocator@Uout_cmds_data_t@c_ctx@csgo@@@std@@@std@@AAEXI@Z 000000001003fbb0     exploits.obj
 0001:0003edc0       ?handle_net_update@c_lag_comp@hacks@csgo@@QAEXXZ 000000001003fdc0     lag_comp.obj
 0001:00040270       ??$emplace_front@V?$shared_ptr@Ulag_record_t@hacks@csgo@@@std@@@?$deque@V?$shared_ptr@Ulag_record_t@hacks@csgo@@@std@@V?$allocator@V?$shared_ptr@Ulag_record_t@hacks@csgo@@@std@@@2@@std@@QAE?A?<decltype-auto>@@$$QAV?$shared_ptr@Ulag_record_t@hacks@csgo@@@1@@Z 0000000010041270     lag_comp.obj
 0001:00040330       ??$make_shared@Ulag_record_t@hacks@csgo@@ABQAUcs_player_t@valve@3@@std@@YA?AV?$shared_ptr@Ulag_record_t@hacks@csgo@@@0@ABQAUcs_player_t@valve@csgo@@@Z 0000000010041330     lag_comp.obj
 0001:000403e0       ??$emplace@ABQAUlag_record_t@hacks@csgo@@@?$optional@Uprevious_lag_data_t@hacks@csgo@@@std@@QAEAAUprevious_lag_data_t@hacks@csgo@@ABQAUlag_record_t@34@@Z 00000000100413e0     lag_comp.obj
 0001:00040530       ?_Growmap@?$deque@V?$shared_ptr@Ulag_record_t@hacks@csgo@@@std@@V?$allocator@V?$shared_ptr@Ulag_record_t@hacks@csgo@@@std@@@2@@std@@AAEXI@Z 0000000010041530     lag_comp.obj
 0001:000406d0       ??$_Construct_in_place@Ulag_record_t@hacks@csgo@@ABQAUcs_player_t@valve@3@@std@@YAXAAUlag_record_t@hacks@csgo@@ABQAUcs_player_t@valve@3@@Z 00000000100416d0     lag_comp.obj
 0001:00040ae0       ?clan_tag@c_misc@hacks@csgo@@QBEXXZ 0000000010041ae0     misc.obj
 0001:00040c30       ?kill_feed@c_misc@hacks@csgo@@QAEXXZ 0000000010041c30     misc.obj
 0001:00040e20       ?third_person@c_misc@hacks@csgo@@QAEXXZ 0000000010041e20     misc.obj
 0001:00041250       ?get_weapon_id@c_skins@hacks@csgo@@AAEHPAUcs_weapon_t@valve@3@@Z 0000000010042250     misc.obj
 0001:000412e0       ?get_skin@c_skins@hacks@csgo@@AAEHPAUcs_weapon_t@valve@3@@Z 00000000100422e0     misc.obj
 0001:00041430       ?override_weapon@c_skins@hacks@csgo@@AAEXPAUcs_weapon_t@valve@3@AAV?$vector@PAUcs_weapon_t@valve@csgo@@V?$allocator@PAUcs_weapon_t@valve@csgo@@@std@@@std@@@Z 0000000010042430     misc.obj
 0001:00041780       ?handle_ctx@c_skins@hacks@csgo@@QAEXXZ 0000000010042780     misc.obj
 0001:00041f90       ??1?$vector@PAUcs_weapon_t@valve@csgo@@V?$allocator@PAUcs_weapon_t@valve@csgo@@@std@@@std@@QAE@XZ 0000000010042f90     misc.obj
 0001:00041f90       ??1?$_Vb_val@V?$allocator@_N@std@@@std@@QAE@XZ 0000000010042f90     cfg.obj
 0001:00041f90       ??1?$vector@PAV?$basic_json@Vmap@std@@Vvector@2@V?$basic_string@DU?$char_traits@D@std@@V?$allocator@D@2@@2@_N_J_KNVallocator@2@Uadl_serializer@nlohmann@@V?$vector@EV?$allocator@E@std@@@2@@nlohmann@@V?$allocator@PAV?$basic_json@Vmap@std@@Vvector@2@V?$basic_string@DU?$char_traits@D@std@@V?$allocator@D@2@@2@_N_J_KNVallocator@2@Uadl_serializer@nlohmann@@V?$vector@EV?$allocator@E@std@@@2@@nlohmann@@@std@@@std@@QAE@XZ 0000000010042f90     cfg.obj
 0001:00041fe0       ?buy_bot@c_misc@hacks@csgo@@QAEXXZ 0000000010042fe0     misc.obj
 0001:000428b0       ?draw_spectators@c_misc@hacks@csgo@@QAEX_N@Z 00000000100438b0     misc.obj
 0001:00043440       ?draw_watermark@c_misc@hacks@csgo@@QAEXXZ 0000000010044440     misc.obj
 0001:00043ee0       ??$_Emplace_reallocate@V?$basic_string@DU?$char_traits@D@std@@V?$allocator@D@2@@std@@@?$vector@V?$basic_string@DU?$char_traits@D@std@@V?$allocator@D@2@@std@@V?$allocator@V?$basic_string@DU?$char_traits@D@std@@V?$allocator@D@2@@std@@@2@@std@@AAEPAV?$basic_string@DU?$char_traits@D@std@@V?$allocator@D@2@@1@QAV21@$$QAV21@@Z 0000000010044ee0     misc.obj
 0001:00044130       ?_Change_array@?$vector@V?$basic_string@DU?$char_traits@D@std@@V?$allocator@D@2@@std@@V?$allocator@V?$basic_string@DU?$char_traits@D@std@@V?$allocator@D@2@@std@@@2@@std@@AAEXQAV?$basic_string@DU?$char_traits@D@std@@V?$allocator@D@2@@2@II@Z 0000000010045130     misc.obj
 0001:00044200       ?_Tidy@?$vector@V?$basic_string@DU?$char_traits@D@std@@V?$allocator@D@2@@std@@V?$allocator@V?$basic_string@DU?$char_traits@D@std@@V?$allocator@D@2@@std@@@2@@std@@AAEXXZ 0000000010045200     misc.obj
 0001:00044350       ?handle@c_move@hacks@csgo@@QAEXAAUuser_cmd_t@valve@3@U?$base_qang_t@M@detail@sdk@@@Z 0000000010045350     move.obj
 0001:00044510       ?auto_strafe@c_move@hacks@csgo@@QBEXAAUuser_cmd_t@valve@3@@Z 0000000010045510     move.obj
 0001:00044e40       ?fast_stop@c_move@hacks@csgo@@QBEXAAUuser_cmd_t@valve@3@@Z 0000000010045e40     move.obj
 0001:00045190       ?slow_walk@c_move@hacks@csgo@@QBEXAAUuser_cmd_t@valve@3@@Z 0000000010046190     move.obj
 0001:00045550       ?auto_stop@c_move@hacks@csgo@@QAEXAAUuser_cmd_t@valve@3@AAU?$base_qang_t@M@detail@sdk@@M@Z 0000000010046550     move.obj
 0001:00046340       ?auto_peek@c_move@hacks@csgo@@QAEXAAU?$base_qang_t@M@detail@sdk@@AAUuser_cmd_t@valve@3@@Z 0000000010047340     move.obj
 0001:00046ab0       ?rotate@c_move@hacks@csgo@@QBEXAAUuser_cmd_t@valve@3@ABU?$base_qang_t@M@detail@sdk@@W4e_ent_flags@53@W4e_move_type@53@@Z 0000000010047ab0     move.obj
 0001:00046eb0       ?accelerate@c_move@hacks@csgo@@QBEXABUuser_cmd_t@valve@3@ABU?$base_vec_t@M$02@detail@sdk@@MAAU678@M@Z 0000000010047eb0     move.obj
 0001:000474e0       ?full_walk_move@c_move@hacks@csgo@@QBEXABUuser_cmd_t@valve@3@AAU?$base_vec_t@M$02@detail@sdk@@111@Z 00000000100484e0     move.obj
 0001:00047860       ?walk_move@c_move@hacks@csgo@@QBEXABUuser_cmd_t@valve@3@AAU?$base_vec_t@M$02@detail@sdk@@111@Z 0000000010048860     move.obj
 0001:00047cf0       ?modify_move@c_move@hacks@csgo@@QBEXAAUuser_cmd_t@valve@3@AAU?$base_vec_t@M$02@detail@sdk@@@Z 0000000010048cf0     move.obj
 0001:00047f80       ?predict_move@c_move@hacks@csgo@@QBEXABUuser_cmd_t@valve@3@AAU?$base_vec_t@M$02@detail@sdk@@@Z 0000000010048f80     move.obj
 0001:000483d0       ?on_new_event@c_shots@hacks@csgo@@QAEXQAUgame_event_t@valve@3@@Z 00000000100493d0     shots.obj
 0001:00049990       ?erase@?$deque@Ushot_t@hacks@csgo@@V?$allocator@Ushot_t@hacks@csgo@@@std@@@std@@QAE?AV?$_Deque_iterator@V?$_Deque_val@U?$_Deque_simple_types@Ushot_t@hacks@csgo@@@std@@@std@@@2@V?$_Deque_const_iterator@V?$_Deque_val@U?$_Deque_simple_types@Ushot_t@hacks@csgo@@@std@@@std@@@2@0@Z 000000001004a990     shots.obj
 0001:00049b70       ?on_hurt@c_shot_construct@hacks@csgo@@QAEXPAUgame_event_t@valve@3@@Z 000000001004ab70     shots.obj
 0001:0004a680       ?on_impact@c_shot_construct@hacks@csgo@@QAEXPAUgame_event_t@valve@3@@Z 000000001004b680     shots.obj
 0001:0004ad80       ?draw_data@c_logs@hacks@csgo@@QAEXXZ 000000001004bd80     shots.obj
 0001:0004b340       ?erase@?$deque@Ulog_data_t@hacks@csgo@@V?$allocator@Ulog_data_t@hacks@csgo@@@std@@@std@@QAE?AV?$_Deque_iterator@V?$_Deque_val@U?$_Deque_simple_types@Ulog_data_t@hacks@csgo@@@std@@@std@@@2@V?$_Deque_const_iterator@V?$_Deque_val@U?$_Deque_simple_types@Ulog_data_t@hacks@csgo@@@std@@@std@@@2@@Z 000000001004c340     shots.obj
 0001:0004b3a0       ?push_log@c_logs@hacks@csgo@@QAEXV?$basic_string@DU?$char_traits@D@std@@V?$allocator@D@2@@std@@Ucol_t@sdk@@@Z 000000001004c3a0     shots.obj
 0001:0004b5f0       ??$emplace_back@AAUlog_data_t@hacks@csgo@@@?$deque@Ulog_data_t@hacks@csgo@@V?$allocator@Ulog_data_t@hacks@csgo@@@std@@@std@@QAE?A?<decltype-auto>@@AAUlog_data_t@hacks@csgo@@@Z 000000001004c5f0     shots.obj
 0001:0004b690       ??1log_data_t@hacks@csgo@@QAE@XZ 000000001004c690     shots.obj
 0001:0004b6f0       ??4?$basic_string@DU?$char_traits@D@std@@V?$allocator@D@2@@std@@QAEAAV01@$$QAV01@@Z 000000001004c6f0     shots.obj
 0001:0004b770       ??$format@V?$basic_string@DU?$char_traits@D@std@@V?$allocator@D@2@@std@@V12@HH@tinyformat@hacks@csgo@@YA?AV?$basic_string@DU?$char_traits@D@std@@V?$allocator@D@2@@std@@PBDABV34@1ABH2@Z 000000001004c770     shots.obj
 0001:0004b970       ??$emplace_back@AAUhit_marker_data_t@c_visuals@hacks@csgo@@@?$deque@Uhit_marker_data_t@c_visuals@hacks@csgo@@V?$allocator@Uhit_marker_data_t@c_visuals@hacks@csgo@@@std@@@std@@QAE?A?<decltype-auto>@@AAUhit_marker_data_t@c_visuals@hacks@csgo@@@Z 000000001004c970     shots.obj
 0001:0004b9f0       ?push_log_in_console@hacks@csgo@@YAXV?$basic_string@DU?$char_traits@D@std@@V?$allocator@D@2@@std@@@Z 000000001004c9f0     shots.obj
 0001:0004bb70       ?on_render_start@c_shot_construct@hacks@csgo@@QAEXXZ 000000001004cb70     shots.obj
 0001:0004ce60       ??$format@V?$basic_string@DU?$char_traits@D@std@@V?$allocator@D@2@@std@@@tinyformat@hacks@csgo@@YA?AV?$basic_string@DU?$char_traits@D@std@@V?$allocator@D@2@@std@@PBDABV34@@Z 000000001004de60     shots.obj
 0001:0004d030       ?_Xran@?$_String_val@U?$_Simple_types@D@std@@@std@@SAXXZ 000000001004e030     shots.obj
 0001:0004d030       ?_Xran@?$_String_val@U?$_Simple_types@_W@std@@@std@@SAXXZ 000000001004e030     cfg.obj
 0001:0004d040       ?_Growmap@?$deque@Ulog_data_t@hacks@csgo@@V?$allocator@Ulog_data_t@hacks@csgo@@@std@@@std@@AAEXI@Z 000000001004e040     shots.obj
 0001:0004d1e0       ?_Growmap@?$deque@Ubullet_trace_data_t@c_visuals@hacks@csgo@@V?$allocator@Ubullet_trace_data_t@c_visuals@hacks@csgo@@@std@@@std@@AAEXI@Z 000000001004e1e0     shots.obj
 0001:0004d380       ??$_Emplace_reallocate@AAMAAU?$base_vec_t@M$02@detail@sdk@@AAU123@@?$vector@Ubullet_impact_t@c_visuals@hacks@csgo@@V?$allocator@Ubullet_impact_t@c_visuals@hacks@csgo@@@std@@@std@@AAEPAUbullet_impact_t@c_visuals@hacks@csgo@@QAU2345@AAMAAU?$base_vec_t@M$02@detail@sdk@@2@Z 000000001004e380     shots.obj
 0001:0004d500       ??0?$basic_string@DU?$char_traits@D@std@@V?$allocator@D@2@@std@@QAE@ABV01@IIABV?$allocator@D@1@@Z 000000001004e500     shots.obj
 0001:0004d600       ?_Growmap@?$deque@Uhit_marker_data_t@c_visuals@hacks@csgo@@V?$allocator@Uhit_marker_data_t@c_visuals@hacks@csgo@@@std@@@std@@AAEXI@Z 000000001004e600     shots.obj
 0001:0004d7a0       ??$_Move_backward_unchecked@V?$_Deque_unchecked_iterator@V?$_Deque_val@U?$_Deque_simple_types@Ushot_t@hacks@csgo@@@std@@@std@@@std@@V12@@std@@YA?AV?$_Deque_unchecked_iterator@V?$_Deque_val@U?$_Deque_simple_types@Ushot_t@hacks@csgo@@@std@@@std@@@0@V10@00@Z 000000001004e7a0     shots.obj
 0001:0004d900       ??$_Move_unchecked@V?$_Deque_unchecked_iterator@V?$_Deque_val@U?$_Deque_simple_types@Ushot_t@hacks@csgo@@@std@@@std@@@std@@V12@@std@@YA?AV?$_Deque_unchecked_iterator@V?$_Deque_val@U?$_Deque_simple_types@Ushot_t@hacks@csgo@@@std@@@std@@@0@V10@00@Z 000000001004e900     shots.obj
 0001:0004da40       ?erase@?$deque@Ulog_data_t@hacks@csgo@@V?$allocator@Ulog_data_t@hacks@csgo@@@std@@@std@@QAE?AV?$_Deque_iterator@V?$_Deque_val@U?$_Deque_simple_types@Ulog_data_t@hacks@csgo@@@std@@@std@@@2@V?$_Deque_const_iterator@V?$_Deque_val@U?$_Deque_simple_types@Ulog_data_t@hacks@csgo@@@std@@@std@@@2@0@Z 000000001004ea40     shots.obj
 0001:0004dc90       ??$_Move_backward_unchecked@V?$_Deque_unchecked_iterator@V?$_Deque_val@U?$_Deque_simple_types@Ulog_data_t@hacks@csgo@@@std@@@std@@@std@@V12@@std@@YA?AV?$_Deque_unchecked_iterator@V?$_Deque_val@U?$_Deque_simple_types@Ulog_data_t@hacks@csgo@@@std@@@std@@@0@V10@00@Z 000000001004ec90     shots.obj
 0001:0004ddc0       ??$_Move_unchecked@V?$_Deque_unchecked_iterator@V?$_Deque_val@U?$_Deque_simple_types@Ulog_data_t@hacks@csgo@@@std@@@std@@@std@@V12@@std@@YA?AV?$_Deque_unchecked_iterator@V?$_Deque_val@U?$_Deque_simple_types@Ulog_data_t@hacks@csgo@@@std@@@std@@@0@V10@00@Z 000000001004edc0     shots.obj
 0001:0004ded0       ??0?$basic_ostringstream@DU?$char_traits@D@std@@V?$allocator@D@2@@std@@QAE@XZ 000000001004eed0     shots.obj
 0001:0004dfe0       ??_D?$basic_ostringstream@DU?$char_traits@D@std@@V?$allocator@D@2@@std@@QAEXXZ 000000001004efe0     shots.obj
 0001:0004e030       ??_E?$basic_ostringstream@DU?$char_traits@D@std@@V?$allocator@D@2@@std@@$4PPPPPPPM@A@AEPAXI@Z 000000001004f030     shots.obj
 0001:0004e090       ?formatImpl@detail@tinyformat@hacks@csgo@@YAXAAV?$basic_ostream@DU?$char_traits@D@std@@@std@@PBDPBVFormatArg@1234@H@Z 000000001004f090     shots.obj
 0001:0004e540       ?streamStateFromFormat@detail@tinyformat@hacks@csgo@@YAPBDAAV?$basic_ostream@DU?$char_traits@D@std@@@std@@AA_N1AAHPBDPBVFormatArg@1234@2H@Z 000000001004f540     shots.obj
 0001:0004ed70       ??$_Insert_string@DU?$char_traits@D@std@@I@std@@YAAAV?$basic_ostream@DU?$char_traits@D@std@@@0@AAV10@QBDI@Z 000000001004fd70     shots.obj
 0001:0004eff0       ??$formatImpl@V?$basic_string@DU?$char_traits@D@std@@V?$allocator@D@2@@std@@@FormatArg@detail@tinyformat@hacks@csgo@@CAXAAV?$basic_ostream@DU?$char_traits@D@std@@@std@@PBD1HPBX@Z 000000001004fff0     shots.obj
 0001:0004f030       ??$formatTruncated@V?$basic_string@DU?$char_traits@D@std@@V?$allocator@D@2@@std@@@detail@tinyformat@hacks@csgo@@YAXAAV?$basic_ostream@DU?$char_traits@D@std@@@std@@ABV?$basic_string@DU?$char_traits@D@std@@V?$allocator@D@2@@5@H@Z 0000000010050030     shots.obj
 0001:0004f280       ??$formatImpl@H@FormatArg@detail@tinyformat@hacks@csgo@@CAXAAV?$basic_ostream@DU?$char_traits@D@std@@@std@@PBD1HPBX@Z 0000000010050280     shots.obj
 0001:0004f2c0       ??$toIntImpl@H@FormatArg@detail@tinyformat@hacks@csgo@@CAHPBX@Z 00000000100502c0     shots.obj
 0001:0004f2d0       ??$formatTruncated@H@detail@tinyformat@hacks@csgo@@YAXAAV?$basic_ostream@DU?$char_traits@D@std@@@std@@ABHH@Z 00000000100502d0     shots.obj
 0001:0004f520       ??$?6U?$char_traits@D@std@@@std@@YAAAV?$basic_ostream@DU?$char_traits@D@std@@@0@AAV10@D@Z 0000000010050520     shots.obj
 0001:0004f9b0       ?get_bbox@hacks@csgo@@YA?AUtagRECT@@PAUbase_entity_t@valve@2@@Z 00000000100509b0     visuals.obj
 0001:0004ff50       ?manuals_indicators@c_visuals@hacks@csgo@@QAEXXZ 0000000010050f50     visuals.obj
 0001:00050700       ?oof_indicators@c_visuals@hacks@csgo@@QAEXPAUcs_player_t@valve@3@@Z 0000000010051700     visuals.obj
 0001:00050a70       ?get_min_dmg_override_key@hacks@csgo@@YAHXZ 0000000010051a70     visuals.obj
 0001:00050b30       ?draw_key_binds@c_visuals@hacks@csgo@@QAEXXZ 0000000010051b30     visuals.obj
 0001:00055ce0       ??0?$map@V?$basic_string@DU?$char_traits@D@std@@V?$allocator@D@2@@std@@PAUkey_data_t@hacks@csgo@@U?$less@V?$basic_string@DU?$char_traits@D@std@@V?$allocator@D@2@@std@@@2@V?$allocator@U?$pair@$$CBV?$basic_string@DU?$char_traits@D@std@@V?$allocator@D@2@@std@@PAUkey_data_t@hacks@csgo@@@std@@@2@@std@@QAE@V?$initializer_list@U?$pair@$$CBV?$basic_string@DU?$char_traits@D@std@@V?$allocator@D@2@@std@@PAUkey_data_t@hacks@csgo@@@std@@@1@@Z 0000000010056ce0     visuals.obj
 0001:00055db0       ??1?$_Tree@V?$_Tmap_traits@V?$basic_string@DU?$char_traits@D@std@@V?$allocator@D@2@@std@@PAUkey_data_t@hacks@csgo@@U?$less@V?$basic_string@DU?$char_traits@D@std@@V?$allocator@D@2@@std@@@2@V?$allocator@U?$pair@$$CBV?$basic_string@DU?$char_traits@D@std@@V?$allocator@D@2@@std@@PAUkey_data_t@hacks@csgo@@@std@@@2@$0A@@std@@@std@@QAE@XZ 0000000010056db0     visuals.obj
 0001:00055e60       ?handle_warning_pred@c_visuals@hacks@csgo@@QAEXQAUbase_entity_t@valve@3@W4e_class_id@53@@Z 0000000010056e60     visuals.obj
 0001:00056210       ?clear@?$_Hash@V?$_Umap_traits@W4ent_handle_t@valve@csgo@@Ugrenade_simulation_t@c_visuals@hacks@3@V?$_Uhash_compare@W4ent_handle_t@valve@csgo@@U?$hash@W4ent_handle_t@valve@csgo@@@std@@U?$equal_to@W4ent_handle_t@valve@csgo@@@5@@std@@V?$allocator@U?$pair@$$CBW4ent_handle_t@valve@csgo@@Ugrenade_simulation_t@c_visuals@hacks@3@@std@@@8@$0A@@std@@@std@@QAEXXZ 0000000010057210     visuals.obj
 0001:000563b0       ?find@?$basic_string_view@DU?$char_traits@D@std@@@std@@QBEIQBDI@Z 00000000100573b0     visuals.obj
 0001:00056460       ??$emplace@ABUpiecewise_construct_t@std@@V?$tuple@ABW4ent_handle_t@valve@csgo@@@2@V?$tuple@$$QAPAUcs_player_t@valve@csgo@@$$QAW4e_item_index@23@AAU?$base_vec_t@M$02@detail@sdk@@AAU567@AAM$$QAH@2@@?$_Hash@V?$_Umap_traits@W4ent_handle_t@valve@csgo@@Ugrenade_simulation_t@c_visuals@hacks@3@V?$_Uhash_compare@W4ent_handle_t@valve@csgo@@U?$hash@W4ent_handle_t@valve@csgo@@@std@@U?$equal_to@W4ent_handle_t@valve@csgo@@@5@@std@@V?$allocator@U?$pair@$$CBW4ent_handle_t@valve@csgo@@Ugrenade_simulation_t@c_visuals@hacks@3@@std@@@8@$0A@@std@@@std@@QAE?AU?$pair@V?$_List_iterator@V?$_List_val@U?$_List_simple_types@U?$pair@$$CBW4ent_handle_t@valve@csgo@@Ugrenade_simulation_t@c_visuals@hacks@3@@std@@@std@@@std@@@std@@_N@1@ABUpiecewise_construct_t@1@$$QAV?$tuple@ABW4ent_handle_t@valve@csgo@@@1@$$QAV?$tuple@$$QAPAUcs_player_t@valve@csgo@@$$QAW4e_item_index@23@AAU?$base_vec_t@M$02@detail@sdk@@AAU567@AAM$$QAH@1@@Z 0000000010057460     visuals.obj
 0001:00056750       ?add_grenade_simulation@c_visuals@hacks@csgo@@QBE_NABUgrenade_simulation_t@123@_N@Z 0000000010057750     visuals.obj
 0001:00057520       ?predict@grenade_simulation_t@c_visuals@hacks@csgo@@QAEXABU?$base_vec_t@M$02@detail@sdk@@0MH@Z 0000000010058520     visuals.obj
 0001:00057a00       ?think@grenade_simulation_t@c_visuals@hacks@csgo@@QAEXXZ 0000000010058a00     visuals.obj
 0001:00057c30       ?physics_simulate@grenade_simulation_t@c_visuals@hacks@csgo@@QAE_NXZ 0000000010058c30     visuals.obj
 0001:00057ed0       ?physics_push_entity@grenade_simulation_t@c_visuals@hacks@csgo@@QAEXABU?$base_vec_t@M$02@detail@sdk@@AAUtrace_t@valve@4@@Z 0000000010058ed0     visuals.obj
 0001:000582a0       ?perform_fly_collision_resolution@grenade_simulation_t@c_visuals@hacks@csgo@@QAEXAAUtrace_t@valve@4@@Z 00000000100592a0     visuals.obj
 0001:000586d0       ?physics_trace_entity@grenade_simulation_t@c_visuals@hacks@csgo@@QAEXABU?$base_vec_t@M$02@detail@sdk@@0IAAUtrace_t@valve@4@@Z 00000000100596d0     visuals.obj
 0001:00058aa0       ?on_create_move@c_visuals@hacks@csgo@@QAEXABUuser_cmd_t@valve@3@@Z 0000000010059aa0     visuals.obj
 0001:000590f0       ??4grenade_simulation_t@c_visuals@hacks@csgo@@QAEAAU0123@$$QAU0123@@Z 000000001005a0f0     visuals.obj
 0001:00059210       ?draw_auto_peek@c_visuals@hacks@csgo@@QAEXXZ 000000001005a210     visuals.obj
 0001:00059580       ?start@c_dormant_esp@hacks@csgo@@QAEXXZ 000000001005a580     visuals.obj
 0001:000598b0       ?setup_adjust@c_dormant_esp@hacks@csgo@@QAEXPAUcs_player_t@valve@3@AAUsnd_info_t@53@@Z 000000001005a8b0     visuals.obj
 0001:00059ad0       ?send_net_data@shared_t@c_visuals@hacks@csgo@@QAEXQAUcs_player_t@valve@4@@Z 000000001005aad0     visuals.obj
 0001:00059cb0       ?handle_player_drawings@c_visuals@hacks@csgo@@QAEXXZ 000000001005acb0     visuals.obj
 0001:0005a810       ?draw_name@c_visuals@hacks@csgo@@IAEXPAUcs_player_t@valve@3@AAUtagRECT@@@Z 000000001005b810     visuals.obj
 0001:0005abb0       ?draw_health@c_visuals@hacks@csgo@@IAEXPAUcs_player_t@valve@3@AAUtagRECT@@M@Z 000000001005bbb0     visuals.obj
 0001:0005aee0       ?draw_box@c_visuals@hacks@csgo@@IAEXPAUcs_player_t@valve@3@AAUtagRECT@@@Z 000000001005bee0     visuals.obj
 0001:0005b0a0       ?draw_wpn@c_visuals@hacks@csgo@@IAEXPAUcs_player_t@valve@3@AAUtagRECT@@@Z 000000001005c0a0     visuals.obj
 0001:0005d000       ?draw_ammo@c_visuals@hacks@csgo@@IAEXPAUcs_player_t@valve@3@AAUtagRECT@@@Z 000000001005e000     visuals.obj
 0001:0005d550       ?draw_lby_upd@c_visuals@hacks@csgo@@IAEXPAUcs_player_t@valve@3@AAUtagRECT@@@Z 000000001005e550     visuals.obj
 0001:0005d8f0       ?draw_flags@c_visuals@hacks@csgo@@IAEXPAUcs_player_t@valve@3@AAUtagRECT@@@Z 000000001005e8f0     visuals.obj
 0001:0005fc40       ?handle_world_drawings@c_visuals@hacks@csgo@@QAEXXZ 0000000010060c40     visuals.obj
 0001:00061c60       ?molotov_timer@c_visuals@hacks@csgo@@IAEXPAUbase_entity_t@valve@3@@Z 0000000010062c60     visuals.obj
 0001:00061f10       ?smoke_timer@c_visuals@hacks@csgo@@IAEXPAUbase_entity_t@valve@3@@Z 0000000010062f10     visuals.obj
 0001:00062200       ?grenade_projectiles@c_visuals@hacks@csgo@@IAEXPAUbase_entity_t@valve@3@@Z 0000000010063200     visuals.obj
 0001:00062620       ?draw_glow@c_visuals@hacks@csgo@@QAEXXZ 0000000010063620     visuals.obj
 0001:00062720       ?draw_hitmarkers@c_visuals@hacks@csgo@@QAEXXZ 0000000010063720     visuals.obj
 0001:00062a00       ?erase@?$deque@Uhit_marker_data_t@c_visuals@hacks@csgo@@V?$allocator@Uhit_marker_data_t@c_visuals@hacks@csgo@@@std@@@std@@QAE?AV?$_Deque_iterator@V?$_Deque_val@U?$_Deque_simple_types@Uhit_marker_data_t@c_visuals@hacks@csgo@@@std@@@std@@@2@V?$_Deque_const_iterator@V?$_Deque_val@U?$_Deque_simple_types@Uhit_marker_data_t@c_visuals@hacks@csgo@@@std@@@std@@@2@@Z 0000000010063a00     visuals.obj
 0001:00062a50       ?draw_enemy_bullet_tracers@c_visuals@hacks@csgo@@QAEXXZ 0000000010063a50     visuals.obj
 0001:00062df0       ?erase@?$deque@Ubullet_trace_data_t@c_visuals@hacks@csgo@@V?$allocator@Ubullet_trace_data_t@c_visuals@hacks@csgo@@@std@@@std@@QAE?AV?$_Deque_iterator@V?$_Deque_val@U?$_Deque_simple_types@Ubullet_trace_data_t@c_visuals@hacks@csgo@@@std@@@std@@@2@V?$_Deque_const_iterator@V?$_Deque_val@U?$_Deque_simple_types@Ubullet_trace_data_t@c_visuals@hacks@csgo@@@std@@@std@@@2@@Z 0000000010063df0     visuals.obj
 0001:00062e40       ?draw_bullet_tracers@c_visuals@hacks@csgo@@QAEXXZ 0000000010063e40     visuals.obj
 0001:00063210       ?draw_shot_mdl@c_visuals@hacks@csgo@@QAEXXZ 0000000010064210     visuals.obj
 0001:000634b0       ?override_mat@c_chams@hacks@csgo@@QAEXHUcol_t@sdk@@_N@Z 00000000100644b0     visuals.obj
 0001:00063720       ?find_in_datamap@hacks@csgo@@YAIPAUdata_map_t@valve@2@PBD@Z 0000000010064720     visuals.obj
 0001:000637b0       ?add_shot_mdl@c_visuals@hacks@csgo@@QAEXPAUcs_player_t@valve@3@PBU?$base_mat_t@M$02$03@detail@sdk@@@Z 00000000100647b0     visuals.obj
 0001:00063c50       ?skybox_changer@c_visuals@hacks@csgo@@QAEXXZ 0000000010064c50     visuals.obj
 0001:000645a0       ?init_chams@c_chams@hacks@csgo@@QAEXXZ 00000000100655a0     visuals.obj
 0001:00065060       ??0?$basic_ofstream@DU?$char_traits@D@std@@@std@@QAE@PBDHH@Z 0000000010066060     visuals.obj
 0001:00065240       ??_D?$basic_ofstream@DU?$char_traits@D@std@@@std@@QAEXXZ 0000000010066240     visuals.obj
 0001:00065270       ?try_to_lerp_bones@c_chams@hacks@csgo@@QBE?AV?$optional@V?$array@U?$base_mat_t@M$02$03@detail@sdk@@$0BAA@@std@@@std@@H@Z 0000000010066270     visuals.obj
 0001:00065850       ?draw_mdl@c_chams@hacks@csgo@@QAEXPAXIABUdraw_model_state_t@valve@3@ABUmodel_render_info_t@53@PAU?$base_mat_t@M$02$03@detail@sdk@@@Z 0000000010066850     visuals.obj
 0001:00065fb0       ?removals@c_visuals@hacks@csgo@@QAEXXZ 0000000010066fb0     visuals.obj
 0001:00066cb0       ?draw_scope_lines@c_visuals@hacks@csgo@@QAEXXZ 0000000010067cb0     visuals.obj
 0001:00066e10       ??$_Erase_tree@V?$allocator@U?$_Tree_node@U?$pair@$$CBHI@std@@PAX@std@@@std@@@?$_Tree_val@U?$_Tree_simple_types@U?$pair@$$CBHI@std@@@std@@@std@@QAEXAAV?$allocator@U?$_Tree_node@U?$pair@$$CBHI@std@@PAX@std@@@1@PAU?$_Tree_node@U?$pair@$$CBHI@std@@PAX@1@@Z 0000000010067e10     visuals.obj
 0001:00066e10       ??$_Erase_tree@V?$allocator@U?$_Tree_node@U?$pair@$$CBHPBUdraw_model_state_t@valve@csgo@@@std@@PAX@std@@@std@@@?$_Tree_val@U?$_Tree_simple_types@U?$pair@$$CBHPBUdraw_model_state_t@valve@csgo@@@std@@@std@@@std@@QAEXAAV?$allocator@U?$_Tree_node@U?$pair@$$CBHPBUdraw_model_state_t@valve@csgo@@@std@@PAX@std@@@1@PAU?$_Tree_node@U?$pair@$$CBHPBUdraw_model_state_t@valve@csgo@@@std@@PAX@1@@Z 0000000010067e10     visuals.obj
 0001:00066e10       ??$_Erase_tree@V?$allocator@U?$_Tree_node@U?$pair@$$CBHPBUmodel_render_info_t@valve@csgo@@@std@@PAX@std@@@std@@@?$_Tree_val@U?$_Tree_simple_types@U?$pair@$$CBHPBUmodel_render_info_t@valve@csgo@@@std@@@std@@@std@@QAEXAAV?$allocator@U?$_Tree_node@U?$pair@$$CBHPBUmodel_render_info_t@valve@csgo@@@std@@PAX@std@@@1@PAU?$_Tree_node@U?$pair@$$CBHPBUmodel_render_info_t@valve@csgo@@@std@@PAX@1@@Z 0000000010067e10     visuals.obj
 0001:00066e10       ??$_Erase_tree@V?$allocator@U?$_Tree_node@U?$pair@$$CBIM@std@@PAX@std@@@std@@@?$_Tree_val@U?$_Tree_simple_types@U?$pair@$$CBIM@std@@@std@@@std@@QAEXAAV?$allocator@U?$_Tree_node@U?$pair@$$CBIM@std@@PAX@std@@@1@PAU?$_Tree_node@U?$pair@$$CBIM@std@@PAX@1@@Z 0000000010067e10     imgui_widgets.obj
 0001:00066e60       ??$_Common_lerp@N@std@@YANNNN@Z 0000000010067e60     visuals.obj
 0001:00067030       ??$_Erase_tree@V?$allocator@U?$_Tree_node@U?$pair@$$CBV?$basic_string@DU?$char_traits@D@std@@V?$allocator@D@2@@std@@PAUkey_data_t@hacks@csgo@@@std@@PAX@std@@@std@@@?$_Tree_val@U?$_Tree_simple_types@U?$pair@$$CBV?$basic_string@DU?$char_traits@D@std@@V?$allocator@D@2@@std@@PAUkey_data_t@hacks@csgo@@@std@@@std@@@std@@QAEXAAV?$allocator@U?$_Tree_node@U?$pair@$$CBV?$basic_string@DU?$char_traits@D@std@@V?$allocator@D@2@@std@@PAUkey_data_t@hacks@csgo@@@std@@PAX@std@@@1@PAU?$_Tree_node@U?$pair@$$CBV?$basic_string@DU?$char_traits@D@std@@V?$allocator@D@2@@std@@PAUkey_data_t@hacks@csgo@@@std@@PAX@1@@Z 0000000010068030     visuals.obj
 0001:000670c0       ??$_Emplace_reallocate@AAU?$base_vec_t@M$02@detail@sdk@@AB_N@?$vector@U?$pair@U?$base_vec_t@M$02@detail@sdk@@_N@std@@V?$allocator@U?$pair@U?$base_vec_t@M$02@detail@sdk@@_N@std@@@2@@std@@AAEPAU?$pair@U?$base_vec_t@M$02@detail@sdk@@_N@1@QAU21@AAU?$base_vec_t@M$02@detail@sdk@@AB_N@Z 00000000100680c0     visuals.obj
 0001:00067220       ??$_Common_lerp@M@std@@YAMMMM@Z 0000000010068220     visuals.obj
 0001:000673a0       ??$_Emplace_reallocate@Uflags_data_t@c_visuals@hacks@csgo@@@?$vector@Uflags_data_t@c_visuals@hacks@csgo@@V?$allocator@Uflags_data_t@c_visuals@hacks@csgo@@@std@@@std@@AAEPAUflags_data_t@c_visuals@hacks@csgo@@QAU2345@$$QAU2345@@Z 00000000100683a0     visuals.obj
 0001:000675f0       ?_Change_array@?$vector@Uflags_data_t@c_visuals@hacks@csgo@@V?$allocator@Uflags_data_t@c_visuals@hacks@csgo@@@std@@@std@@AAEXQAUflags_data_t@c_visuals@hacks@csgo@@II@Z 00000000100685f0     visuals.obj
 0001:000676c0       ?_Tidy@?$vector@Uflags_data_t@c_visuals@hacks@csgo@@V?$allocator@Uflags_data_t@c_visuals@hacks@csgo@@@std@@@std@@AAEXXZ 00000000100686c0     visuals.obj
 0001:00067780       ??$_Emplace_reallocate@$$V@?$vector@Ushot_mdl_t@c_visuals@hacks@csgo@@V?$allocator@Ushot_mdl_t@c_visuals@hacks@csgo@@@std@@@std@@AAEPAUshot_mdl_t@c_visuals@hacks@csgo@@QAU2345@@Z 0000000010068780     visuals.obj
 0001:000678e0       ??1?$basic_filebuf@DU?$char_traits@D@std@@@std@@UAE@XZ 00000000100688e0     visuals.obj
 0001:00067a50       ??_E?$basic_ofstream@DU?$char_traits@D@std@@@std@@$4PPPPPPPM@A@AEPAXI@Z 0000000010068a50     visuals.obj
 0001:00067aa0       ??_G?$basic_filebuf@DU?$char_traits@D@std@@@std@@UAEPAXI@Z 0000000010068aa0     visuals.obj
 0001:00067ac0       ?_Lock@?$basic_filebuf@DU?$char_traits@D@std@@@std@@UAEXXZ 0000000010068ac0     visuals.obj
 0001:00067ae0       ?_Unlock@?$basic_filebuf@DU?$char_traits@D@std@@@std@@UAEXXZ 0000000010068ae0     visuals.obj
 0001:00067b00       ?overflow@?$basic_filebuf@DU?$char_traits@D@std@@@std@@MAEHH@Z 0000000010068b00     visuals.obj
 0001:00067c40       ?pbackfail@?$basic_filebuf@DU?$char_traits@D@std@@@std@@MAEHH@Z 0000000010068c40     visuals.obj
 0001:00067cf0       ?underflow@?$basic_filebuf@DU?$char_traits@D@std@@@std@@MAEHXZ 0000000010068cf0     visuals.obj
 0001:00067d30       ?uflow@?$basic_filebuf@DU?$char_traits@D@std@@@std@@MAEHXZ 0000000010068d30     visuals.obj
 0001:00068020       ?xsgetn@?$basic_filebuf@DU?$char_traits@D@std@@@std@@MAE_JPAD_J@Z 0000000010069020     visuals.obj
 0001:00068120       ?xsputn@?$basic_filebuf@DU?$char_traits@D@std@@@std@@MAE_JPBD_J@Z 0000000010069120     visuals.obj
 0001:00068210       ?seekoff@?$basic_filebuf@DU?$char_traits@D@std@@@std@@MAE?AV?$fpos@U_Mbstatet@@@2@_JHH@Z 0000000010069210     visuals.obj
 0001:00068330       ?seekpos@?$basic_filebuf@DU?$char_traits@D@std@@@std@@MAE?AV?$fpos@U_Mbstatet@@@2@V32@H@Z 0000000010069330     visuals.obj
 0001:00068410       ?setbuf@?$basic_filebuf@DU?$char_traits@D@std@@@std@@MAEPAV?$basic_streambuf@DU?$char_traits@D@std@@@2@PAD_J@Z 0000000010069410     visuals.obj
 0001:00068540       ?sync@?$basic_filebuf@DU?$char_traits@D@std@@@std@@MAEHXZ 0000000010069540     visuals.obj
 0001:00068570       ?imbue@?$basic_filebuf@DU?$char_traits@D@std@@@std@@MAEXABVlocale@2@@Z 0000000010069570     visuals.obj
 0001:000685f0       ?_Endwrite@?$basic_filebuf@DU?$char_traits@D@std@@@std@@IAE_NXZ 00000000100695f0     visuals.obj
 0001:00068690       ??$_Reallocate_grow_by@V<lambda_1>@?0??push_back@?$basic_string@DU?$char_traits@D@std@@V?$allocator@D@2@@std@@QAEXD@Z@D@?$basic_string@DU?$char_traits@D@std@@V?$allocator@D@2@@std@@AAEAAV01@IV<lambda_1>@?0??push_back@01@QAEXD@Z@D@Z 0000000010069690     visuals.obj
 0001:000687d0       ??$use_facet@V?$codecvt@DDU_Mbstatet@@@std@@@std@@YAABV?$codecvt@DDU_Mbstatet@@@0@ABVlocale@0@@Z 00000000100697d0     visuals.obj
 0001:00068940       ?_Throw_bad_cast@std@@YAXXZ 0000000010069940     visuals.obj
 0001:00068970       ??0bad_cast@std@@QAE@ABV01@@Z 0000000010069970     visuals.obj
 0001:000689b0       ??$_Construct_n@PBV?$basic_string@DU?$char_traits@D@std@@V?$allocator@D@2@@std@@PBV12@@?$vector@V?$basic_string@DU?$char_traits@D@std@@V?$allocator@D@2@@std@@V?$allocator@V?$basic_string@DU?$char_traits@D@std@@V?$allocator@D@2@@std@@@2@@std@@AAEXI$$QAPBV?$basic_string@DU?$char_traits@D@std@@V?$allocator@D@2@@1@0@Z 00000000100699b0     visuals.obj
 0001:00068ad0       ??1?$_Uninitialized_backout_al@V?$allocator@V?$basic_string@DU?$char_traits@D@std@@V?$allocator@D@2@@std@@@std@@@std@@QAE@XZ 0000000010069ad0     visuals.obj
 0001:00068b40       ??$_Emplace_hint@ABU?$pair@$$CBV?$basic_string@DU?$char_traits@D@std@@V?$allocator@D@2@@std@@PAUkey_data_t@hacks@csgo@@@std@@@?$_Tree@V?$_Tmap_traits@V?$basic_string@DU?$char_traits@D@std@@V?$allocator@D@2@@std@@PAUkey_data_t@hacks@csgo@@U?$less@V?$basic_string@DU?$char_traits@D@std@@V?$allocator@D@2@@std@@@2@V?$allocator@U?$pair@$$CBV?$basic_string@DU?$char_traits@D@std@@V?$allocator@D@2@@std@@PAUkey_data_t@hacks@csgo@@@std@@@2@$0A@@std@@@std@@IAEPAU?$_Tree_node@U?$pair@$$CBV?$basic_string@DU?$char_traits@D@std@@V?$allocator@D@2@@std@@PAUkey_data_t@hacks@csgo@@@std@@PAX@1@QAU21@ABU?$pair@$$CBV?$basic_string@DU?$char_traits@D@std@@V?$allocator@D@2@@std@@PAUkey_data_t@hacks@csgo@@@1@@Z 0000000010069b40     visuals.obj
 0001:00068c30       ??$_Find_hint@V?$basic_string@DU?$char_traits@D@std@@V?$allocator@D@2@@std@@@?$_Tree@V?$_Tmap_traits@V?$basic_string@DU?$char_traits@D@std@@V?$allocator@D@2@@std@@PAUkey_data_t@hacks@csgo@@U?$less@V?$basic_string@DU?$char_traits@D@std@@V?$allocator@D@2@@std@@@2@V?$allocator@U?$pair@$$CBV?$basic_string@DU?$char_traits@D@std@@V?$allocator@D@2@@std@@PAUkey_data_t@hacks@csgo@@@std@@@2@$0A@@std@@@std@@IBE?AU?$_Tree_find_hint_result@PAU?$_Tree_node@U?$pair@$$CBV?$basic_string@DU?$char_traits@D@std@@V?$allocator@D@2@@std@@PAUkey_data_t@hacks@csgo@@@std@@PAX@std@@@1@QAU?$_Tree_node@U?$pair@$$CBV?$basic_string@DU?$char_traits@D@std@@V?$allocator@D@2@@std@@PAUkey_data_t@hacks@csgo@@@std@@PAX@1@ABV?$basic_string@DU?$char_traits@D@std@@V?$allocator@D@2@@1@@Z 0000000010069c30     visuals.obj
 0001:00069050       ?_Insert_node@?$_Tree_val@U?$_Tree_simple_types@U?$pair@$$CBV?$basic_string@DU?$char_traits@D@std@@V?$allocator@D@2@@std@@PAUkey_data_t@hacks@csgo@@@std@@@std@@@std@@QAEPAU?$_Tree_node@U?$pair@$$CBV?$basic_string@DU?$char_traits@D@std@@V?$allocator@D@2@@std@@PAUkey_data_t@hacks@csgo@@@std@@PAX@2@U?$_Tree_id@PAU?$_Tree_node@U?$pair@$$CBV?$basic_string@DU?$char_traits@D@std@@V?$allocator@D@2@@std@@PAUkey_data_t@hacks@csgo@@@std@@PAX@std@@@2@QAU32@@Z 000000001006a050     visuals.obj
 0001:00069050       ?_Insert_node@?$_Tree_val@U?$_Tree_simple_types@U?$pair@$$CBHI@std@@@std@@@std@@QAEPAU?$_Tree_node@U?$pair@$$CBHI@std@@PAX@2@U?$_Tree_id@PAU?$_Tree_node@U?$pair@$$CBHI@std@@PAX@std@@@2@QAU32@@Z 000000001006a050     visuals.obj
 0001:00069050       ?_Insert_node@?$_Tree_val@U?$_Tree_simple_types@U?$pair@$$CBHPBUdraw_model_state_t@valve@csgo@@@std@@@std@@@std@@QAEPAU?$_Tree_node@U?$pair@$$CBHPBUdraw_model_state_t@valve@csgo@@@std@@PAX@2@U?$_Tree_id@PAU?$_Tree_node@U?$pair@$$CBHPBUdraw_model_state_t@valve@csgo@@@std@@PAX@std@@@2@QAU32@@Z 000000001006a050     visuals.obj
 0001:00069050       ?_Insert_node@?$_Tree_val@U?$_Tree_simple_types@U?$pair@$$CBHPBUmodel_render_info_t@valve@csgo@@@std@@@std@@@std@@QAEPAU?$_Tree_node@U?$pair@$$CBHPBUmodel_render_info_t@valve@csgo@@@std@@PAX@2@U?$_Tree_id@PAU?$_Tree_node@U?$pair@$$CBHPBUmodel_render_info_t@valve@csgo@@@std@@PAX@std@@@2@QAU32@@Z 000000001006a050     visuals.obj
 0001:00069050       ?_Insert_node@?$_Tree_val@U?$_Tree_simple_types@U?$pair@$$CBIM@std@@@std@@@std@@QAEPAU?$_Tree_node@U?$pair@$$CBIM@std@@PAX@2@U?$_Tree_id@PAU?$_Tree_node@U?$pair@$$CBIM@std@@PAX@std@@@2@QAU32@@Z 000000001006a050     imgui_widgets.obj
 0001:00069050       ?_Insert_node@?$_Tree_val@U?$_Tree_simple_types@U?$pair@$$CBIUImVec4@@@std@@@std@@@std@@QAEPAU?$_Tree_node@U?$pair@$$CBIUImVec4@@@std@@PAX@2@U?$_Tree_id@PAU?$_Tree_node@U?$pair@$$CBIUImVec4@@@std@@PAX@std@@@2@QAU32@@Z 000000001006a050     imgui_widgets.obj
 0001:00069050       ?_Insert_node@?$_Tree_val@U?$_Tree_simple_types@U?$pair@$$CBIUslider_anim@@@std@@@std@@@std@@QAEPAU?$_Tree_node@U?$pair@$$CBIUslider_anim@@@std@@PAX@2@U?$_Tree_id@PAU?$_Tree_node@U?$pair@$$CBIUslider_anim@@@std@@PAX@std@@@2@QAU32@@Z 000000001006a050     imgui_widgets.obj
 0001:00069240       ??$_Emplace@U?$pair@$$CBV?$basic_string@DU?$char_traits@D@std@@V?$allocator@D@2@@std@@PAUkey_data_t@hacks@csgo@@@std@@@?$_Tree@V?$_Tmap_traits@V?$basic_string@DU?$char_traits@D@std@@V?$allocator@D@2@@std@@PAUkey_data_t@hacks@csgo@@U?$less@V?$basic_string@DU?$char_traits@D@std@@V?$allocator@D@2@@std@@@2@V?$allocator@U?$pair@$$CBV?$basic_string@DU?$char_traits@D@std@@V?$allocator@D@2@@std@@PAUkey_data_t@hacks@csgo@@@std@@@2@$0A@@std@@@std@@IAE?AU?$pair@PAU?$_Tree_node@U?$pair@$$CBV?$basic_string@DU?$char_traits@D@std@@V?$allocator@D@2@@std@@PAUkey_data_t@hacks@csgo@@@std@@PAX@std@@_N@1@$$QAU?$pair@$$CBV?$basic_string@DU?$char_traits@D@std@@V?$allocator@D@2@@std@@PAUkey_data_t@hacks@csgo@@@1@@Z 000000001006a240     visuals.obj
 0001:00069410       ?_Unchecked_erase@?$_Hash@V?$_Umap_traits@W4ent_handle_t@valve@csgo@@Ugrenade_simulation_t@c_visuals@hacks@3@V?$_Uhash_compare@W4ent_handle_t@valve@csgo@@U?$hash@W4ent_handle_t@valve@csgo@@@std@@U?$equal_to@W4ent_handle_t@valve@csgo@@@5@@std@@V?$allocator@U?$pair@$$CBW4ent_handle_t@valve@csgo@@Ugrenade_simulation_t@c_visuals@hacks@3@@std@@@8@$0A@@std@@@std@@AAEPAU?$_List_node@U?$pair@$$CBW4ent_handle_t@valve@csgo@@Ugrenade_simulation_t@c_visuals@hacks@3@@std@@PAX@2@PAU32@QAU32@@Z 000000001006a410     visuals.obj
 0001:000695f0       ??$_Erase@W4ent_handle_t@valve@csgo@@@?$_Hash@V?$_Umap_traits@W4ent_handle_t@valve@csgo@@Ugrenade_simulation_t@c_visuals@hacks@3@V?$_Uhash_compare@W4ent_handle_t@valve@csgo@@U?$hash@W4ent_handle_t@valve@csgo@@@std@@U?$equal_to@W4ent_handle_t@valve@csgo@@@5@@std@@V?$allocator@U?$pair@$$CBW4ent_handle_t@valve@csgo@@Ugrenade_simulation_t@c_visuals@hacks@3@@std@@@8@$0A@@std@@@std@@AAEIABW4ent_handle_t@valve@csgo@@@Z 000000001006a5f0     visuals.obj
 0001:000696f0       ??1?$_List_node_emplace_op2@V?$allocator@U?$_List_node@U?$pair@$$CBW4ent_handle_t@valve@csgo@@Ugrenade_simulation_t@c_visuals@hacks@3@@std@@PAX@std@@@std@@@std@@QAE@XZ 000000001006a6f0     visuals.obj
 0001:00069720       ??$construct@U?$pair@$$CBW4ent_handle_t@valve@csgo@@Ugrenade_simulation_t@c_visuals@hacks@3@@std@@ABUpiecewise_construct_t@2@V?$tuple@ABW4ent_handle_t@valve@csgo@@@2@V?$tuple@$$QAPAUcs_player_t@valve@csgo@@$$QAW4e_item_index@23@AAU?$base_vec_t@M$02@detail@sdk@@AAU567@AAM$$QAH@2@@?$_Default_allocator_traits@V?$allocator@U?$_List_node@U?$pair@$$CBW4ent_handle_t@valve@csgo@@Ugrenade_simulation_t@c_visuals@hacks@3@@std@@PAX@std@@@std@@@std@@SAXAAV?$allocator@U?$_List_node@U?$pair@$$CBW4ent_handle_t@valve@csgo@@Ugrenade_simulation_t@c_visuals@hacks@3@@std@@PAX@std@@@1@QAU?$pair@$$CBW4ent_handle_t@valve@csgo@@Ugrenade_simulation_t@c_visuals@hacks@3@@1@ABUpiecewise_construct_t@1@$$QAV?$tuple@ABW4ent_handle_t@valve@csgo@@@1@$$QAV?$tuple@$$QAPAUcs_player_t@valve@csgo@@$$QAW4e_item_index@23@AAU?$base_vec_t@M$02@detail@sdk@@AAU567@AAM$$QAH@1@@Z 000000001006a720     visuals.obj
 0001:00069770       ??$?0ABW4ent_handle_t@valve@csgo@@$$Z$$QAPAUcs_player_t@12@$$QAW4e_item_index@12@AAU?$base_vec_t@M$02@detail@sdk@@AAU567@AAM$$QAH@?$pair@$$CBW4ent_handle_t@valve@csgo@@Ugrenade_simulation_t@c_visuals@hacks@3@@std@@QAE@Upiecewise_construct_t@1@V?$tuple@ABW4ent_handle_t@valve@csgo@@@1@V?$tuple@$$QAPAUcs_player_t@valve@csgo@@$$QAW4e_item_index@23@AAU?$base_vec_t@M$02@detail@sdk@@AAU567@AAM$$QAH@1@@Z 000000001006a770     visuals.obj
 0001:000698e0       ?erase@?$deque@Uhit_marker_data_t@c_visuals@hacks@csgo@@V?$allocator@Uhit_marker_data_t@c_visuals@hacks@csgo@@@std@@@std@@QAE?AV?$_Deque_iterator@V?$_Deque_val@U?$_Deque_simple_types@Uhit_marker_data_t@c_visuals@hacks@csgo@@@std@@@std@@@2@V?$_Deque_const_iterator@V?$_Deque_val@U?$_Deque_simple_types@Uhit_marker_data_t@c_visuals@hacks@csgo@@@std@@@std@@@2@0@Z 000000001006a8e0     visuals.obj
 0001:00069c30       ?erase@?$deque@Ubullet_trace_data_t@c_visuals@hacks@csgo@@V?$allocator@Ubullet_trace_data_t@c_visuals@hacks@csgo@@@std@@@std@@QAE?AV?$_Deque_iterator@V?$_Deque_val@U?$_Deque_simple_types@Ubullet_trace_data_t@c_visuals@hacks@csgo@@@std@@@std@@@2@V?$_Deque_const_iterator@V?$_Deque_val@U?$_Deque_simple_types@Ubullet_trace_data_t@c_visuals@hacks@csgo@@@std@@@std@@@2@0@Z 000000001006ac30     visuals.obj
 0001:00069f90       ?open@?$basic_filebuf@DU?$char_traits@D@std@@@std@@QAEPAV12@PBDHH@Z 000000001006af90     visuals.obj
 0001:0006a1a0       ??$_Try_emplace@ABH$$V@?$map@HIU?$less@H@std@@V?$allocator@U?$pair@$$CBHI@std@@@2@@std@@AAE?AU?$pair@PAU?$_Tree_node@U?$pair@$$CBHI@std@@PAX@std@@_N@1@ABH@Z 000000001006b1a0     visuals.obj
 0001:0006a1a0       ??$_Try_emplace@ABH$$V@?$map@HPBUdraw_model_state_t@valve@csgo@@U?$less@H@std@@V?$allocator@U?$pair@$$CBHPBUdraw_model_state_t@valve@csgo@@@std@@@5@@std@@AAE?AU?$pair@PAU?$_Tree_node@U?$pair@$$CBHPBUdraw_model_state_t@valve@csgo@@@std@@PAX@std@@_N@1@ABH@Z 000000001006b1a0     visuals.obj
 0001:0006a1a0       ??$_Try_emplace@ABH$$V@?$map@HPBUmodel_render_info_t@valve@csgo@@U?$less@H@std@@V?$allocator@U?$pair@$$CBHPBUmodel_render_info_t@valve@csgo@@@std@@@5@@std@@AAE?AU?$pair@PAU?$_Tree_node@U?$pair@$$CBHPBUmodel_render_info_t@valve@csgo@@@std@@PAX@std@@_N@1@ABH@Z 000000001006b1a0     visuals.obj
 0001:0006a530       ?wnd_proc@hooks@csgo@@YGJPAUHWND__@@IIJ@Z 000000001006b530     hooks.obj
 0001:0006a660       ?dx9_reset@hooks@csgo@@YGJPAUIDirect3DDevice9@@PAU_D3DPRESENT_PARAMETERS_@@@Z 000000001006b660     hooks.obj
 0001:0006a690       ?dx9_present@hooks@csgo@@YGJPAUIDirect3DDevice9@@PAUtagRECT@@1PAUHWND__@@PAU_RGNDATA@@@Z 000000001006b690     hooks.obj
 0001:0006a990       ?modify_eye_pos@hooks@csgo@@YIXPAUanim_state_t@valve@2@IAAU?$base_vec_t@M$02@detail@sdk@@@Z 000000001006b990     hooks.obj
 0001:0006a9b0       ?lock_cursor@hooks@csgo@@YIXII@Z 000000001006b9b0     hooks.obj
 0001:0006a9d0       ?do_post_screen_space_effects@hooks@csgo@@YIHIIQAUview_setup_t@valve@2@@Z 000000001006b9d0     hooks.obj
 0001:0006aa00       ?setup_move@hooks@csgo@@YIXIIPAUcs_player_t@valve@2@PAUuser_cmd_t@42@PAVc_move_helper@42@PAUmove_data_t@42@@Z 000000001006ba00     hooks.obj
 0001:0006aa10       ?create_move_proxy@hooks@csgo@@YGXHM_N@Z 000000001006ba10     hooks.obj
 0001:0006aa30       ?create_move@hooks@csgo@@YGXHM_NAA_N@Z 000000001006ba30     hooks.obj
 0001:0006ab30       ?calc_viewmodel_bob@hooks@csgo@@YIXPAXIAAU?$base_vec_t@M$02@detail@sdk@@@Z 000000001006bb30     hooks.obj
 0001:0006ab40       ?setup_bones@hooks@csgo@@YI_NIIQAU?$base_mat_t@M$02$03@detail@sdk@@HHM@Z 000000001006bb40     hooks.obj
 0001:0006ace0       ?update_client_side_anim@hooks@csgo@@YIXQAUcs_player_t@valve@2@I@Z 000000001006bce0     hooks.obj
 0001:0006aee0       ?standard_blending_rules@hooks@csgo@@YIXQAUcs_player_t@valve@2@IQAUstudio_hdr_t@42@HHMH@Z 000000001006bee0     hooks.obj
 0001:0006afb0       ?accumulate_layers@hooks@csgo@@YIXQAUcs_player_t@valve@2@IHHMH@Z 000000001006bfb0     hooks.obj
 0001:0006b090       ?list_leaves_in_box@hooks@csgo@@YIHIIABU?$base_vec_t@M$02@detail@sdk@@0QBGH@Z 000000001006c090     hooks.obj
 0001:0006b1e0       ?build_transformations@hooks@csgo@@YIXPAUcs_player_t@valve@2@PAXPAUstudio_hdr_t@42@PAU?$base_vec_t@M$02@detail@sdk@@PAUvec4_t@8@PAU?$base_mat_t@M$02$03@78@HPAE@Z 000000001006c1e0     hooks.obj
 0001:0006b2c0       ?do_extra_bones_processing@hooks@csgo@@YIXQAUcs_player_t@valve@2@IHHHHHH@Z 000000001006c2c0     hooks.obj
 0001:0006b2d0       ?svc_msg_voice_data@hooks@csgo@@YI_NIIPAX@Z 000000001006c2d0     hooks.obj
 0001:0006b570       ?packet_start@hooks@csgo@@YIXIIHH@Z 000000001006c570     hooks.obj
 0001:0006b790       ?erase@?$deque@Uout_cmds_data_t@c_ctx@csgo@@V?$allocator@Uout_cmds_data_t@c_ctx@csgo@@@std@@@std@@QAE?AV?$_Deque_iterator@V?$_Deque_val@U?$_Deque_simple_types@Uout_cmds_data_t@c_ctx@csgo@@@std@@@std@@@2@V?$_Deque_const_iterator@V?$_Deque_val@U?$_Deque_simple_types@Uout_cmds_data_t@c_ctx@csgo@@@std@@@std@@@2@@Z 000000001006c790     hooks.obj
 0001:0006b7e0       ?packet_end@hooks@csgo@@YIXII@Z 000000001006c7e0     hooks.obj
 0001:0006b900       ?calc_view@hooks@csgo@@YIXPAXIAAU?$base_vec_t@M$02@detail@sdk@@ABU?$base_qang_t@M@45@AAM33@Z 000000001006c900     hooks.obj
 0001:0006bac0       ?exposure_range@hooks@csgo@@YIXPAM0@Z 000000001006cac0     hooks.obj
 0001:0006bae0       ?cl_move@hooks@csgo@@YAXM_N@Z 000000001006cae0     hooks.obj
 0001:0006bcb0       ?write_user_cmd_delta_to_buffer@hooks@csgo@@YI_NIIHQAUbf_write_t@valve@2@HH_N@Z 000000001006ccb0     hooks.obj
 0001:0006c040       ?paint_traverse@hooks@csgo@@YIXIII_N0@Z 000000001006d040     hooks.obj
 0001:0006c510       ??4ImDrawList@@QAEAAU0@ABU0@@Z 000000001006d510     hooks.obj
 0001:0006ca20       ?run_cmd@hooks@csgo@@YIXIIPAUcs_player_t@valve@2@PAUuser_cmd_t@42@PAVc_move_helper@42@@Z 000000001006da20     hooks.obj
 0001:0006cb00       ?draw_mdl_exec@hooks@csgo@@YGXIABUdraw_model_state_t@valve@2@ABUmodel_render_info_t@42@PAU?$base_mat_t@M$02$03@detail@sdk@@@Z 000000001006db00     hooks.obj
 0001:0006ccf0       ?velocity_modifier@hooks@csgo@@YAXQAUrecv_proxy_data_t@valve@2@QAUbase_entity_t@42@QAX@Z 000000001006dcf0     hooks.obj
 0001:0006cd70       ?process_movement@hooks@csgo@@YIXIIPAUcs_player_t@valve@2@PAUmove_data_t@42@@Z 000000001006dd70     hooks.obj
 0001:0006cd80       ?process_interpolated_list@hooks@csgo@@YAHXZ 000000001006dd80     hooks.obj
 0001:0006ce20       ?send_datagram@hooks@csgo@@YIHPAUnet_chan_t@client_state_t@valve@2@IPAX@Z 000000001006de20     hooks.obj
 0001:0006cfd0       ?process_packet@hooks@csgo@@YIXPAUnet_chan_t@client_state_t@valve@2@IPAX_N@Z 000000001006dfd0     hooks.obj
 0001:0006d140       ?process_temp_entities@hooks@csgo@@YI_NIII@Z 000000001006e140     hooks.obj
 0001:0006d1d0       ?is_paused@hooks@csgo@@YI_NII@Z 000000001006e1d0     hooks.obj
 0001:0006d1f0       ?is_hltv@hooks@csgo@@YI_NII@Z 000000001006e1f0     hooks.obj
 0001:0006d230       ?lower_body_yaw_proxy@hooks@csgo@@YAXPAUrecv_proxy_data_t@valve@2@PAX1@Z 000000001006e230     hooks.obj
 0001:0006d2b0       ?physics_simulate@hooks@csgo@@YIXQAUcs_player_t@valve@2@I@Z 000000001006e2b0     hooks.obj
 0001:0006dc10       ?should_draw_view_model@hooks@csgo@@YI_NII@Z 000000001006ec10     hooks.obj
 0001:0006dc70       ?frame_stage_notify@hooks@csgo@@YGXW4e_frame_stage@valve@2@@Z 000000001006ec70     hooks.obj
 0001:0006f300       ?aspect_ratio@hooks@csgo@@YGMHH@Z 0000000010070300     hooks.obj
 0001:0006f320       ?override_view@hooks@csgo@@YIXIIQAUview_setup_t@valve@2@@Z 0000000010070320     hooks.obj
 0001:0006f3a0       ?fire_game_event@event_listener_t@hooks@csgo@@UAEXQAUgame_event_t@valve@3@@Z 00000000100703a0     hooks.obj
 0001:0006f3b0       ?get_color_modulation@hooks@csgo@@YIXPAX0PAM11@Z 00000000100703b0     hooks.obj
 0001:0006f6a0       ?get_alpha_modulation@hooks@csgo@@YIMPAX0@Z 00000000100706a0     hooks.obj
 0001:0006f960       __scprintf                 0000000010070960     hooks.obj
 0001:0006f9c0       _sprintf_s                 00000000100709c0     hooks.obj
 0001:0006fa20       ___local_stdio_printf_options 0000000010070a20     hooks.obj
 0001:0006fa30       ?erase@?$deque@Uout_cmds_data_t@c_ctx@csgo@@V?$allocator@Uout_cmds_data_t@c_ctx@csgo@@@std@@@std@@QAE?AV?$_Deque_iterator@V?$_Deque_val@U?$_Deque_simple_types@Uout_cmds_data_t@c_ctx@csgo@@@std@@@std@@@2@V?$_Deque_const_iterator@V?$_Deque_val@U?$_Deque_simple_types@Uout_cmds_data_t@c_ctx@csgo@@@std@@@std@@@2@0@Z 0000000010070a30     hooks.obj
 0001:0006fe10       ?create_move@c_local_player@csgo@@QAEXAA_NAAUuser_cmd_t@valve@2@AAUvfyd_user_cmd_t@42@@Z 0000000010070e10     local_player.obj
 0001:00071500       ?draw_top@@YAXUImVec2@@PAUImDrawList@@H@Z 0000000010072500     menu.obj
 0001:000718f0       ?extra_elements@@YAXUImVec2@@MPAUImDrawList@@H@Z 00000000100728f0     menu.obj
 0001:00072b40       ?anti_aim_elements@@YAXUImVec2@@MPAUImDrawList@@H@Z 0000000010073b40     menu.obj
 0001:00074360       ?rage_bot_elements@@YAXUImVec2@@MPAUImDrawList@@@Z 0000000010075360     menu.obj
 0001:000788d0       ?visuals_tab@@YAXUImVec2@@MPAUImDrawList@@H@Z 00000000100798d0     menu.obj
 0001:0007c620       ?misc_tab@@YAXUImVec2@@MPAUImDrawList@@H@Z 000000001007d620     menu.obj
 0001:0007ddd0       ?render@c_menu@csgo@@QAEXXZ 000000001007edd0     menu.obj
 0001:000805a0       ?world_to_screen@c_render@csgo@@QAE_NABU?$base_vec_t@M$02@detail@sdk@@AAU345@@Z 00000000100815a0     render.obj
 0001:00080750       ?text@c_render@csgo@@QAEXV?$basic_string_view@DU?$char_traits@D@std@@@std@@U?$base_vec_t@M$01@detail@sdk@@ABUcol_t@7@PAUImFont@@_N4444@Z 0000000010081750     render.obj
 0001:000809e0       ?line@c_render@csgo@@QAEXABU?$base_vec_t@M$01@detail@sdk@@0ABUcol_t@5@@Z 00000000100819e0     render.obj
 0001:00080a00       ?rect@c_render@csgo@@QAEXABU?$base_vec_t@M$01@detail@sdk@@0ABUcol_t@5@M_N@Z 0000000010081a00     render.obj
 0001:00080ad0       ?rect_filled@c_render@csgo@@QAEXABU?$base_vec_t@M$01@detail@sdk@@0ABUcol_t@5@M_N@Z 0000000010081ad0     render.obj
 0001:00080ba0       ?draw_rect_filled@c_render@csgo@@QAEXMMMMUcol_t@sdk@@MH@Z 0000000010081ba0     render.obj
 0001:00080c30       ?render_3d_circle@c_render@csgo@@QAEXABU?$base_vec_t@M$02@detail@sdk@@MUcol_t@5@@Z 0000000010081c30     render.obj
 0001:00080e60       ?arc@c_render@csgo@@QAEXMMMMMUcol_t@sdk@@M@Z 0000000010081e60     render.obj
 0001:00080f80       ?parse_table@c_net_vars@valve@csgo@@AAEXPBDQBUrecv_table_t@23@I@Z 0000000010081f80     other.obj
 0001:000811b0       ?parse_client_classes@c_net_vars@valve@csgo@@QAEXXZ 00000000100821b0     other.obj
 0001:000811f0       ?set_layer_seq@anim_state_t@valve@csgo@@QAEXPAUanim_layer_t@23@H@Z 00000000100821f0     other.obj
 0001:000812e0       ?should_hit_entity@trace_filter_t@valve@csgo@@UBE_NPAUbase_entity_t@23@W4e_mask@23@@Z 00000000100822e0     other.obj
 0001:00081320       ??$_Try_emplace@V?$basic_string@DU?$char_traits@D@std@@V?$allocator@D@2@@std@@$$V@?$_Hash@V?$_Umap_traits@V?$basic_string@DU?$char_traits@D@std@@V?$allocator@D@2@@std@@U?$pair@PAUrecv_prop_t@valve@csgo@@I@2@V?$_Uhash_compare@V?$basic_string@DU?$char_traits@D@std@@V?$allocator@D@2@@std@@U?$hash@V?$basic_string@DU?$char_traits@D@std@@V?$allocator@D@2@@std@@@2@U?$equal_to@V?$basic_string@DU?$char_traits@D@std@@V?$allocator@D@2@@std@@@2@@2@V?$allocator@U?$pair@$$CBV?$basic_string@DU?$char_traits@D@std@@V?$allocator@D@2@@std@@U?$pair@PAUrecv_prop_t@valve@csgo@@I@2@@std@@@2@$0A@@std@@@std@@IAE?AU?$pair@PAU?$_List_node@U?$pair@$$CBV?$basic_string@DU?$char_traits@D@std@@V?$allocator@D@2@@std@@U?$pair@PAUrecv_prop_t@valve@csgo@@I@2@@std@@PAX@std@@_N@1@$$QAV?$basic_string@DU?$char_traits@D@std@@V?$allocator@D@2@@1@@Z 0000000010082320     other.obj
 0001:00081700       ??1?$_List_node_emplace_op2@V?$allocator@U?$_List_node@U?$pair@$$CBV?$basic_string@DU?$char_traits@D@std@@V?$allocator@D@2@@std@@U?$pair@PAUrecv_prop_t@valve@csgo@@I@2@@std@@PAX@std@@@std@@@std@@QAE@XZ 0000000010082700     other.obj
 0001:00081770       ?_Forced_rehash@?$_Hash@V?$_Umap_traits@V?$basic_string@DU?$char_traits@D@std@@V?$allocator@D@2@@std@@U?$pair@PAUrecv_prop_t@valve@csgo@@I@2@V?$_Uhash_compare@V?$basic_string@DU?$char_traits@D@std@@V?$allocator@D@2@@std@@U?$hash@V?$basic_string@DU?$char_traits@D@std@@V?$allocator@D@2@@std@@@2@U?$equal_to@V?$basic_string@DU?$char_traits@D@std@@V?$allocator@D@2@@std@@@2@@2@V?$allocator@U?$pair@$$CBV?$basic_string@DU?$char_traits@D@std@@V?$allocator@D@2@@std@@U?$pair@PAUrecv_prop_t@valve@csgo@@I@2@@std@@@2@$0A@@std@@@std@@IAEXI@Z 0000000010082770     other.obj
 0001:00081a40       ?save@c_cfg@sdk@@UBEXV?$basic_string_view@DU?$char_traits@D@std@@@std@@@Z 0000000010082a40     cfg.obj
 0001:00082010       ??$?_0V?$basic_string_view@DU?$char_traits@D@std@@@std@@$0A@@path@filesystem@std@@QAEAAV012@ABV?$basic_string_view@DU?$char_traits@D@std@@@2@@Z 0000000010083010     cfg.obj
 0001:000820f0       ??1path@filesystem@std@@QAE@XZ 00000000100830f0     cfg.obj
 0001:000820f0       ??1?$basic_string@_WU?$char_traits@_W@std@@V?$allocator@_W@2@@std@@QAE@XZ 00000000100830f0     cfg.obj
 0001:00082150       ??$?A$$CBD@?$basic_json@Vmap@std@@Vvector@2@V?$basic_string@DU?$char_traits@D@std@@V?$allocator@D@2@@2@_N_J_KNVallocator@2@Uadl_serializer@nlohmann@@V?$vector@EV?$allocator@E@std@@@2@@nlohmann@@QAEAAV01@PBD@Z 0000000010083150     cfg.obj
 0001:00082330       ?dump@?$basic_json@Vmap@std@@Vvector@2@V?$basic_string@DU?$char_traits@D@std@@V?$allocator@D@2@@2@_N_J_KNVallocator@2@Uadl_serializer@nlohmann@@V?$vector@EV?$allocator@E@std@@@2@@nlohmann@@QBE?AV?$basic_string@DU?$char_traits@D@std@@V?$allocator@D@2@@std@@HD_NW4error_handler_t@detail@2@@Z 0000000010083330     cfg.obj
 0001:00082560       ?load@c_cfg@sdk@@UAEXV?$basic_string_view@DU?$char_traits@D@std@@@std@@@Z 0000000010083560     cfg.obj
 0001:00082c10       ??$?5DU?$char_traits@D@std@@V?$allocator@D@1@@std@@YAAAV?$basic_istream@DU?$char_traits@D@std@@@0@AAV10@AAV?$basic_string@DU?$char_traits@D@std@@V?$allocator@D@2@@0@@Z 0000000010083c10     cfg.obj
 0001:00082f40       ??_D?$basic_ifstream@DU?$char_traits@D@std@@@std@@QAEXXZ 0000000010083f40     cfg.obj
 0001:00082f70       ??$parse@AAV?$basic_string@DU?$char_traits@D@std@@V?$allocator@D@2@@std@@@?$basic_json@Vmap@std@@Vvector@2@V?$basic_string@DU?$char_traits@D@std@@V?$allocator@D@2@@2@_N_J_KNVallocator@2@Uadl_serializer@nlohmann@@V?$vector@EV?$allocator@E@std@@@2@@nlohmann@@SA?AV01@AAV?$basic_string@DU?$char_traits@D@std@@V?$allocator@D@2@@std@@V?$function@$$A6A_NHW4parse_event_t@detail@nlohmann@@AAV?$basic_json@Vmap@std@@Vvector@2@V?$basic_string@DU?$char_traits@D@std@@V?$allocator@D@2@@2@_N_J_KNVallocator@2@Uadl_serializer@nlohmann@@V?$vector@EV?$allocator@E@std@@@2@@3@@Z@3@_N2@Z 0000000010083f70     cfg.obj
 0001:00083210       ??$_Construct@$01PB_W@?$basic_string@_WU?$char_traits@_W@std@@V?$allocator@_W@2@@std@@AAEXQB_WI@Z 0000000010084210     cfg.obj
 0001:000832d0       ?_Throw_fs_error@filesystem@std@@YAXPBDW4__std_win_error@@ABVpath@12@@Z 00000000100842d0     cfg.obj
 0001:000833a0       ??0filesystem_error@filesystem@std@@QAE@ABV?$basic_string@DU?$char_traits@D@std@@V?$allocator@D@2@@2@ABVpath@12@Verror_code@2@@Z 00000000100843a0     cfg.obj
 0001:00083550       ??0filesystem_error@filesystem@std@@QAE@ABV012@@Z 0000000010084550     cfg.obj
 0001:000836d0       ??0system_error@std@@QAE@ABV01@@Z 00000000100846d0     cfg.obj
 0001:00083720       ??0_System_error@std@@QAE@ABV01@@Z 0000000010084720     cfg.obj
 0001:00083770       ??1filesystem_error@filesystem@std@@UAE@XZ 0000000010084770     cfg.obj
 0001:00083880       ?name@_System_error_category@std@@UBEPBDXZ 0000000010084880     cfg.obj
 0001:00083890       ?message@_System_error_category@std@@UBE?AV?$basic_string@DU?$char_traits@D@std@@V?$allocator@D@2@@2@H@Z 0000000010084890     cfg.obj
 0001:00083a30       ?default_error_condition@_System_error_category@std@@UBE?AVerror_condition@2@H@Z 0000000010084a30     cfg.obj
 0001:00083ad0       ?name@_Generic_error_category@std@@UBEPBDXZ 0000000010084ad0     cfg.obj
 0001:00083ae0       ?message@_Generic_error_category@std@@UBE?AV?$basic_string@DU?$char_traits@D@std@@V?$allocator@D@2@@2@H@Z 0000000010084ae0     cfg.obj
 0001:00083b10       ?_Pretty_message@filesystem_error@filesystem@std@@CA?AV?$basic_string@DU?$char_traits@D@std@@V?$allocator@D@2@@3@V?$basic_string_view@DU?$char_traits@D@std@@@3@ABVpath@23@1@Z 0000000010084b10     cfg.obj
 0001:00083f20       ??_Gfilesystem_error@filesystem@std@@UAEPAXI@Z 0000000010084f20     cfg.obj
 0001:00083f40       ?what@filesystem_error@filesystem@std@@UBEPBDXZ 0000000010084f40     cfg.obj
 0001:00083f50       ??0_System_error@std@@IAE@Verror_code@1@ABV?$basic_string@DU?$char_traits@D@std@@V?$allocator@D@2@@1@@Z 0000000010084f50     cfg.obj
 0001:000840d0       ?_Makestr@_System_error@std@@CA?AV?$basic_string@DU?$char_traits@D@std@@V?$allocator@D@2@@2@Verror_code@2@V32@@Z 00000000100850d0     cfg.obj
 0001:000842c0       ??$_Convert_wide_to_narrow_replace_chars@U?$char_traits@D@std@@V?$allocator@D@2@@filesystem@std@@YA?AV?$basic_string@DU?$char_traits@D@std@@V?$allocator@D@2@@1@W4__std_code_page@@V?$basic_string_view@_WU?$char_traits@_W@std@@@1@ABV?$allocator@D@1@@Z 00000000100852c0     cfg.obj
 0001:00084410       ?_Throw_system_error@std@@YAXW4errc@1@@Z 0000000010085410     cfg.obj
 0001:00084440       ?resize@?$basic_string@DU?$char_traits@D@std@@V?$allocator@D@2@@std@@QAEXID@Z 0000000010085440     cfg.obj
 0001:000844e0       ??0system_error@std@@QAE@Verror_code@1@@Z 00000000100854e0     cfg.obj
 0001:000845b0       ?_Throw_system_error_from_std_win_error@filesystem@std@@YAXW4__std_win_error@@@Z 00000000100855b0     cfg.obj
 0001:000845e0       ??$_Reallocate_grow_by@V<lambda_1>@?0??append@?$basic_string@DU?$char_traits@D@std@@V?$allocator@D@2@@std@@QAEAAV34@ID@Z@ID@?$basic_string@DU?$char_traits@D@std@@V?$allocator@D@2@@std@@AAEAAV01@IV<lambda_1>@?0??append@01@QAEAAV01@ID@Z@ID@Z 00000000100855e0     cfg.obj
 0001:00084750       ??_E?$basic_ifstream@DU?$char_traits@D@std@@@std@@$4PPPPPPPM@A@AEPAXI@Z 0000000010085750     cfg.obj
 0001:000847a0       ?deallocate@?$allocator@V?$basic_json@Vmap@std@@Vvector@2@V?$basic_string@DU?$char_traits@D@std@@V?$allocator@D@2@@2@_N_J_KNVallocator@2@Uadl_serializer@nlohmann@@V?$vector@EV?$allocator@E@std@@@2@@nlohmann@@@std@@QAEXQAV?$basic_json@Vmap@std@@Vvector@2@V?$basic_string@DU?$char_traits@D@std@@V?$allocator@D@2@@2@_N_J_KNVallocator@2@Uadl_serializer@nlohmann@@V?$vector@EV?$allocator@E@std@@@2@@nlohmann@@I@Z 00000000100857a0     cfg.obj
 0001:000847e0       ??$_Destroy_range@V?$allocator@V?$basic_json@Vmap@std@@Vvector@2@V?$basic_string@DU?$char_traits@D@std@@V?$allocator@D@2@@2@_N_J_KNVallocator@2@Uadl_serializer@nlohmann@@V?$vector@EV?$allocator@E@std@@@2@@nlohmann@@@std@@@std@@YAXPAV?$basic_json@Vmap@std@@Vvector@2@V?$basic_string@DU?$char_traits@D@std@@V?$allocator@D@2@@2@_N_J_KNVallocator@2@Uadl_serializer@nlohmann@@V?$vector@EV?$allocator@E@std@@@2@@nlohmann@@QAV12@AAV?$allocator@V?$basic_json@Vmap@std@@Vvector@2@V?$basic_string@DU?$char_traits@D@std@@V?$allocator@D@2@@2@_N_J_KNVallocator@2@Uadl_serializer@nlohmann@@V?$vector@EV?$allocator@E@std@@@2@@nlohmann@@@0@@Z 00000000100857e0     cfg.obj
 0001:00084810       ?_Convert_narrow_to_wide@filesystem@std@@YA?AV?$basic_string@_WU?$char_traits@_W@std@@V?$allocator@_W@2@@2@W4__std_code_page@@V?$basic_string_view@DU?$char_traits@D@std@@@2@@Z 0000000010085810     cfg.obj
 0001:00084970       ??$_Reallocate_grow_by@V<lambda_1>@?0??append@?$basic_string@_WU?$char_traits@_W@std@@V?$allocator@_W@2@@std@@QAEAAV34@I_W@Z@I_W@?$basic_string@_WU?$char_traits@_W@std@@V?$allocator@_W@2@@std@@AAEAAV01@IV<lambda_1>@?0??append@01@QAEAAV01@I_W@Z@I_W@Z 0000000010085970     cfg.obj
 0001:00084d60       ??_0path@filesystem@std@@QAEAAV012@ABV012@@Z 0000000010085d60     cfg.obj
 0001:00085090       ?_Find_root_name_end@filesystem@std@@YAPB_WQB_W0@Z 0000000010086090     cfg.obj
 0001:00085190       ??$_Reallocate_for@V<lambda_1>@?0??assign@?$basic_string@_WU?$char_traits@_W@std@@V?$allocator@_W@2@@std@@QAEAAV34@QB_WI@Z@PB_W@?$basic_string@_WU?$char_traits@_W@std@@V?$allocator@_W@2@@std@@AAEAAV01@IV<lambda_1>@?0??assign@01@QAEAAV01@QB_WI@Z@PB_W@Z 0000000010086190     cfg.obj
 0001:000852a0       ??$_Reallocate_grow_by@V<lambda_1>@?0??push_back@?$basic_string@_WU?$char_traits@_W@std@@V?$allocator@_W@2@@std@@QAEX_W@Z@_W@?$basic_string@_WU?$char_traits@_W@std@@V?$allocator@_W@2@@std@@AAEAAV01@IV<lambda_1>@?0??push_back@01@QAEX_W@Z@_W@Z 00000000100862a0     cfg.obj
 0001:000853f0       ??$_Reallocate_grow_by@V<lambda_1>@?0??append@?$basic_string@_WU?$char_traits@_W@std@@V?$allocator@_W@2@@std@@QAEAAV34@QB_WI@Z@PB_WI@?$basic_string@_WU?$char_traits@_W@std@@V?$allocator@_W@2@@std@@AAEAAV01@IV<lambda_1>@?0??append@01@QAEAAV01@QB_WI@Z@PB_WI@Z 00000000100863f0     cfg.obj
 0001:00085560       ??0json_value@?$basic_json@Vmap@std@@Vvector@2@V?$basic_string@DU?$char_traits@D@std@@V?$allocator@D@2@@2@_N_J_KNVallocator@2@Uadl_serializer@nlohmann@@V?$vector@EV?$allocator@E@std@@@2@@nlohmann@@QAE@W4value_t@detail@2@@Z 0000000010086560     cfg.obj
 0001:000856f0       ??$?HDU?$char_traits@D@std@@V?$allocator@D@1@@std@@YA?AV?$basic_string@DU?$char_traits@D@std@@V?$allocator@D@2@@0@$$QAV10@ABV10@@Z 00000000100866f0     cfg.obj
 0001:000857b0       ??$?HDU?$char_traits@D@std@@V?$allocator@D@1@@std@@YA?AV?$basic_string@DU?$char_traits@D@std@@V?$allocator@D@2@@0@QBDABV10@@Z 00000000100867b0     cfg.obj
 0001:000858c0       ??$_Try_emplace@V?$basic_string@DU?$char_traits@D@std@@V?$allocator@D@2@@std@@$$V@?$map@V?$basic_string@DU?$char_traits@D@std@@V?$allocator@D@2@@std@@V?$basic_json@Vmap@std@@Vvector@2@V?$basic_string@DU?$char_traits@D@std@@V?$allocator@D@2@@2@_N_J_KNVallocator@2@Uadl_serializer@nlohmann@@V?$vector@EV?$allocator@E@std@@@2@@nlohmann@@U?$less@X@2@V?$allocator@U?$pair@$$CBV?$basic_string@DU?$char_traits@D@std@@V?$allocator@D@2@@std@@V?$basic_json@Vmap@std@@Vvector@2@V?$basic_string@DU?$char_traits@D@std@@V?$allocator@D@2@@2@_N_J_KNVallocator@2@Uadl_serializer@nlohmann@@V?$vector@EV?$allocator@E@std@@@2@@nlohmann@@@std@@@2@@std@@AAE?AU?$pair@PAU?$_Tree_node@U?$pair@$$CBV?$basic_string@DU?$char_traits@D@std@@V?$allocator@D@2@@std@@V?$basic_json@Vmap@std@@Vvector@2@V?$basic_string@DU?$char_traits@D@std@@V?$allocator@D@2@@2@_N_J_KNVallocator@2@Uadl_serializer@nlohmann@@V?$vector@EV?$allocator@E@std@@@2@@nlohmann@@@std@@PAX@std@@_N@1@$$QAV?$basic_string@DU?$char_traits@D@std@@V?$allocator@D@2@@1@@Z 00000000100868c0     cfg.obj
 0001:00085a50       ??0?$serializer@V?$basic_json@Vmap@std@@Vvector@2@V?$basic_string@DU?$char_traits@D@std@@V?$allocator@D@2@@2@_N_J_KNVallocator@2@Uadl_serializer@nlohmann@@V?$vector@EV?$allocator@E@std@@@2@@nlohmann@@@detail@nlohmann@@QAE@V?$shared_ptr@U?$output_adapter_protocol@D@detail@nlohmann@@@std@@DW4error_handler_t@12@@Z 0000000010086a50     cfg.obj
 0001:00085be0       ?dump@?$serializer@V?$basic_json@Vmap@std@@Vvector@2@V?$basic_string@DU?$char_traits@D@std@@V?$allocator@D@2@@2@_N_J_KNVallocator@2@Uadl_serializer@nlohmann@@V?$vector@EV?$allocator@E@std@@@2@@nlohmann@@@detail@nlohmann@@QAEXABV?$basic_json@Vmap@std@@Vvector@2@V?$basic_string@DU?$char_traits@D@std@@V?$allocator@D@2@@2@_N_J_KNVallocator@2@Uadl_serializer@nlohmann@@V?$vector@EV?$allocator@E@std@@@2@@3@_N1II@Z 0000000010086be0     cfg.obj
 0001:00086840       ??1?$serializer@V?$basic_json@Vmap@std@@Vvector@2@V?$basic_string@DU?$char_traits@D@std@@V?$allocator@D@2@@2@_N_J_KNVallocator@2@Uadl_serializer@nlohmann@@V?$vector@EV?$allocator@E@std@@@2@@nlohmann@@@detail@nlohmann@@QAE@XZ 0000000010087840     cfg.obj
 0001:000868d0       ?_Destroy@?$_Ref_count_obj2@V?$output_string_adapter@DV?$basic_string@DU?$char_traits@D@std@@V?$allocator@D@2@@std@@@detail@nlohmann@@@std@@EAEXXZ 00000000100878d0     cfg.obj
 0001:000868e0       ??_G?$_Ref_count_obj2@V?$output_string_adapter@DV?$basic_string@DU?$char_traits@D@std@@V?$allocator@D@2@@std@@@detail@nlohmann@@@std@@UAEPAXI@Z 00000000100878e0     cfg.obj
 0001:00086900       ?write_character@?$output_string_adapter@DV?$basic_string@DU?$char_traits@D@std@@V?$allocator@D@2@@std@@@detail@nlohmann@@UAEXD@Z 0000000010087900     cfg.obj
 0001:00086970       ?write_characters@?$output_string_adapter@DV?$basic_string@DU?$char_traits@D@std@@V?$allocator@D@2@@std@@@detail@nlohmann@@UAEXPBDI@Z 0000000010087970     cfg.obj
 0001:000869f0       ?dump_escaped@?$serializer@V?$basic_json@Vmap@std@@Vvector@2@V?$basic_string@DU?$char_traits@D@std@@V?$allocator@D@2@@2@_N_J_KNVallocator@2@Uadl_serializer@nlohmann@@V?$vector@EV?$allocator@E@std@@@2@@nlohmann@@@detail@nlohmann@@AAEXABV?$basic_string@DU?$char_traits@D@std@@V?$allocator@D@2@@std@@_N@Z 00000000100879f0     cfg.obj
 0001:000870e0       ??$dump_integer@_J$0A@@?$serializer@V?$basic_json@Vmap@std@@Vvector@2@V?$basic_string@DU?$char_traits@D@std@@V?$allocator@D@2@@2@_N_J_KNVallocator@2@Uadl_serializer@nlohmann@@V?$vector@EV?$allocator@E@std@@@2@@nlohmann@@@detail@nlohmann@@AAEX_J@Z 00000000100880e0     cfg.obj
 0001:000872f0       _snprintf                  00000000100882f0     cfg.obj
 0001:00087360       ??$to_chars@N@detail@nlohmann@@YAPADPADPBDN@Z 0000000010088360     cfg.obj
 0001:00087570       ??$grisu2@N@dtoa_impl@detail@nlohmann@@YAXPADAAH1N@Z 0000000010088570     cfg.obj
 0001:00087960       ?grisu2_digit_gen@dtoa_impl@detail@nlohmann@@YAXPADAAH1Udiyfp@123@22@Z 0000000010088960     cfg.obj
 0001:00087dd0       ??0?$basic_ofstream@DU?$char_traits@D@std@@@std@@QAE@PB_WHH@Z 0000000010088dd0     cfg.obj
 0001:00087fb0       ?open@?$basic_filebuf@DU?$char_traits@D@std@@@std@@QAEPAV12@PB_WHH@Z 0000000010088fb0     cfg.obj
 0001:000881c0       ??0?$basic_ifstream@DU?$char_traits@D@std@@@std@@QAE@PB_WHH@Z 00000000100891c0     cfg.obj
 0001:000883a0       ??$use_facet@V?$ctype@D@std@@@std@@YAABV?$ctype@D@0@ABVlocale@0@@Z 00000000100893a0     cfg.obj
 0001:00088510       ??$parser@V?$iterator_input_adapter@V?$_String_const_iterator@V?$_String_val@U?$_Simple_types@D@std@@@std@@@std@@@detail@nlohmann@@@?$basic_json@Vmap@std@@Vvector@2@V?$basic_string@DU?$char_traits@D@std@@V?$allocator@D@2@@2@_N_J_KNVallocator@2@Uadl_serializer@nlohmann@@V?$vector@EV?$allocator@E@std@@@2@@nlohmann@@CA?AV?$parser@V?$basic_json@Vmap@std@@Vvector@2@V?$basic_string@DU?$char_traits@D@std@@V?$allocator@D@2@@2@_N_J_KNVallocator@2@Uadl_serializer@nlohmann@@V?$vector@EV?$allocator@E@std@@@2@@nlohmann@@V?$iterator_input_adapter@V?$_String_const_iterator@V?$_String_val@U?$_Simple_types@D@std@@@std@@@std@@@detail@2@@detail@1@V?$iterator_input_adapter@V?$_String_const_iterator@V?$_String_val@U?$_Simple_types@D@std@@@std@@@std@@@31@V?$function@$$A6A_NHW4parse_event_t@detail@nlohmann@@AAV?$basic_json@Vmap@std@@Vvector@2@V?$basic_string@DU?$char_traits@D@std@@V?$allocator@D@2@@2@_N_J_KNVallocator@2@Uadl_serializer@nlohmann@@V?$vector@EV?$allocator@E@std@@@2@@3@@Z@std@@_N2@Z 0000000010089510     cfg.obj
 0001:00088640       ?parse@?$parser@V?$basic_json@Vmap@std@@Vvector@2@V?$basic_string@DU?$char_traits@D@std@@V?$allocator@D@2@@2@_N_J_KNVallocator@2@Uadl_serializer@nlohmann@@V?$vector@EV?$allocator@E@std@@@2@@nlohmann@@V?$iterator_input_adapter@V?$_String_const_iterator@V?$_String_val@U?$_Simple_types@D@std@@@std@@@std@@@detail@2@@detail@nlohmann@@QAEX_NAAV?$basic_json@Vmap@std@@Vvector@2@V?$basic_string@DU?$char_traits@D@std@@V?$allocator@D@2@@2@_N_J_KNVallocator@2@Uadl_serializer@nlohmann@@V?$vector@EV?$allocator@E@std@@@2@@3@@Z 0000000010089640     cfg.obj
 0001:00088d50       ??1?$parser@V?$basic_json@Vmap@std@@Vvector@2@V?$basic_string@DU?$char_traits@D@std@@V?$allocator@D@2@@2@_N_J_KNVallocator@2@Uadl_serializer@nlohmann@@V?$vector@EV?$allocator@E@std@@@2@@nlohmann@@V?$iterator_input_adapter@V?$_String_const_iterator@V?$_String_val@U?$_Simple_types@D@std@@@std@@@std@@@detail@2@@detail@nlohmann@@QAE@XZ 0000000010089d50     cfg.obj
 0001:00088d80       ??0?$parser@V?$basic_json@Vmap@std@@Vvector@2@V?$basic_string@DU?$char_traits@D@std@@V?$allocator@D@2@@2@_N_J_KNVallocator@2@Uadl_serializer@nlohmann@@V?$vector@EV?$allocator@E@std@@@2@@nlohmann@@V?$iterator_input_adapter@V?$_String_const_iterator@V?$_String_val@U?$_Simple_types@D@std@@@std@@@std@@@detail@2@@detail@nlohmann@@QAE@$$QAV?$iterator_input_adapter@V?$_String_const_iterator@V?$_String_val@U?$_Simple_types@D@std@@@std@@@std@@@12@V?$function@$$A6A_NHW4parse_event_t@detail@nlohmann@@AAV?$basic_json@Vmap@std@@Vvector@2@V?$basic_string@DU?$char_traits@D@std@@V?$allocator@D@2@@2@_N_J_KNVallocator@2@Uadl_serializer@nlohmann@@V?$vector@EV?$allocator@E@std@@@2@@3@@Z@std@@_N2@Z 0000000010089d80     cfg.obj
 0001:00088f60       ??1?$lexer@V?$basic_json@Vmap@std@@Vvector@2@V?$basic_string@DU?$char_traits@D@std@@V?$allocator@D@2@@2@_N_J_KNVallocator@2@Uadl_serializer@nlohmann@@V?$vector@EV?$allocator@E@std@@@2@@nlohmann@@V?$iterator_input_adapter@V?$_String_const_iterator@V?$_String_val@U?$_Simple_types@D@std@@@std@@@std@@@detail@2@@detail@nlohmann@@QAE@XZ 0000000010089f60     cfg.obj
 0001:00089000       ?scan@?$lexer@V?$basic_json@Vmap@std@@Vvector@2@V?$basic_string@DU?$char_traits@D@std@@V?$allocator@D@2@@2@_N_J_KNVallocator@2@Uadl_serializer@nlohmann@@V?$vector@EV?$allocator@E@std@@@2@@nlohmann@@V?$iterator_input_adapter@V?$_String_const_iterator@V?$_String_val@U?$_Simple_types@D@std@@@std@@@std@@@detail@2@@detail@nlohmann@@QAE?AW4token_type@?$lexer_base@V?$basic_json@Vmap@std@@Vvector@2@V?$basic_string@DU?$char_traits@D@std@@V?$allocator@D@2@@2@_N_J_KNVallocator@2@Uadl_serializer@nlohmann@@V?$vector@EV?$allocator@E@std@@@2@@nlohmann@@@23@XZ 000000001008a000     cfg.obj
 0001:00089330       ?skip_bom@?$lexer@V?$basic_json@Vmap@std@@Vvector@2@V?$basic_string@DU?$char_traits@D@std@@V?$allocator@D@2@@2@_N_J_KNVallocator@2@Uadl_serializer@nlohmann@@V?$vector@EV?$allocator@E@std@@@2@@nlohmann@@V?$iterator_input_adapter@V?$_String_const_iterator@V?$_String_val@U?$_Simple_types@D@std@@@std@@@std@@@detail@2@@detail@nlohmann@@QAE_NXZ 000000001008a330     cfg.obj
 0001:00089510       ?skip_whitespace@?$lexer@V?$basic_json@Vmap@std@@Vvector@2@V?$basic_string@DU?$char_traits@D@std@@V?$allocator@D@2@@2@_N_J_KNVallocator@2@Uadl_serializer@nlohmann@@V?$vector@EV?$allocator@E@std@@@2@@nlohmann@@V?$iterator_input_adapter@V?$_String_const_iterator@V?$_String_val@U?$_Simple_types@D@std@@@std@@@std@@@detail@2@@detail@nlohmann@@QAEXXZ 000000001008a510     cfg.obj
 0001:00089630       ?scan_comment@?$lexer@V?$basic_json@Vmap@std@@Vvector@2@V?$basic_string@DU?$char_traits@D@std@@V?$allocator@D@2@@2@_N_J_KNVallocator@2@Uadl_serializer@nlohmann@@V?$vector@EV?$allocator@E@std@@@2@@nlohmann@@V?$iterator_input_adapter@V?$_String_const_iterator@V?$_String_val@U?$_Simple_types@D@std@@@std@@@std@@@detail@2@@detail@nlohmann@@AAE_NXZ 000000001008a630     cfg.obj
 0001:00089920       ?scan_literal@?$lexer@V?$basic_json@Vmap@std@@Vvector@2@V?$basic_string@DU?$char_traits@D@std@@V?$allocator@D@2@@2@_N_J_KNVallocator@2@Uadl_serializer@nlohmann@@V?$vector@EV?$allocator@E@std@@@2@@nlohmann@@V?$iterator_input_adapter@V?$_String_const_iterator@V?$_String_val@U?$_Simple_types@D@std@@@std@@@std@@@detail@2@@detail@nlohmann@@AAE?AW4token_type@?$lexer_base@V?$basic_json@Vmap@std@@Vvector@2@V?$basic_string@DU?$char_traits@D@std@@V?$allocator@D@2@@2@_N_J_KNVallocator@2@Uadl_serializer@nlohmann@@V?$vector@EV?$allocator@E@std@@@2@@nlohmann@@@23@PBDIW44523@@Z 000000001008a920     cfg.obj
 0001:00089a20       ?scan_string@?$lexer@V?$basic_json@Vmap@std@@Vvector@2@V?$basic_string@DU?$char_traits@D@std@@V?$allocator@D@2@@2@_N_J_KNVallocator@2@Uadl_serializer@nlohmann@@V?$vector@EV?$allocator@E@std@@@2@@nlohmann@@V?$iterator_input_adapter@V?$_String_const_iterator@V?$_String_val@U?$_Simple_types@D@std@@@std@@@std@@@detail@2@@detail@nlohmann@@AAE?AW4token_type@?$lexer_base@V?$basic_json@Vmap@std@@Vvector@2@V?$basic_string@DU?$char_traits@D@std@@V?$allocator@D@2@@2@_N_J_KNVallocator@2@Uadl_serializer@nlohmann@@V?$vector@EV?$allocator@E@std@@@2@@nlohmann@@@23@XZ 000000001008aa20     cfg.obj
 0001:0008a8b0       ?scan_number@?$lexer@V?$basic_json@Vmap@std@@Vvector@2@V?$basic_string@DU?$char_traits@D@std@@V?$allocator@D@2@@2@_N_J_KNVallocator@2@Uadl_serializer@nlohmann@@V?$vector@EV?$allocator@E@std@@@2@@nlohmann@@V?$iterator_input_adapter@V?$_String_const_iterator@V?$_String_val@U?$_Simple_types@D@std@@@std@@@std@@@detail@2@@detail@nlohmann@@AAE?AW4token_type@?$lexer_base@V?$basic_json@Vmap@std@@Vvector@2@V?$basic_string@DU?$char_traits@D@std@@V?$allocator@D@2@@2@_N_J_KNVallocator@2@Uadl_serializer@nlohmann@@V?$vector@EV?$allocator@E@std@@@2@@nlohmann@@@23@XZ 000000001008b8b0     cfg.obj
 0001:0008b300       ??$_Emplace_reallocate@D@?$vector@DV?$allocator@D@std@@@std@@AAEPADQAD$$QAD@Z 000000001008c300     cfg.obj
 0001:0008b430       ?add@?$lexer@V?$basic_json@Vmap@std@@Vvector@2@V?$basic_string@DU?$char_traits@D@std@@V?$allocator@D@2@@2@_N_J_KNVallocator@2@Uadl_serializer@nlohmann@@V?$vector@EV?$allocator@E@std@@@2@@nlohmann@@V?$iterator_input_adapter@V?$_String_const_iterator@V?$_String_val@U?$_Simple_types@D@std@@@std@@@std@@@detail@2@@detail@nlohmann@@AAEXH@Z 000000001008c430     cfg.obj
 0001:0008b4a0       ?get_codepoint@?$lexer@V?$basic_json@Vmap@std@@Vvector@2@V?$basic_string@DU?$char_traits@D@std@@V?$allocator@D@2@@2@_N_J_KNVallocator@2@Uadl_serializer@nlohmann@@V?$vector@EV?$allocator@E@std@@@2@@nlohmann@@V?$iterator_input_adapter@V?$_String_const_iterator@V?$_String_val@U?$_Simple_types@D@std@@@std@@@std@@@detail@2@@detail@nlohmann@@AAEHXZ 000000001008c4a0     cfg.obj
 0001:0008b5d0       ?next_byte_in_range@?$lexer@V?$basic_json@Vmap@std@@Vvector@2@V?$basic_string@DU?$char_traits@D@std@@V?$allocator@D@2@@2@_N_J_KNVallocator@2@Uadl_serializer@nlohmann@@V?$vector@EV?$allocator@E@std@@@2@@nlohmann@@V?$iterator_input_adapter@V?$_String_const_iterator@V?$_String_val@U?$_Simple_types@D@std@@@std@@@std@@@detail@2@@detail@nlohmann@@AAE_NV?$initializer_list@H@std@@@Z 000000001008c5d0     cfg.obj
 0001:0008b790       ??0?$json_sax_dom_callback_parser@V?$basic_json@Vmap@std@@Vvector@2@V?$basic_string@DU?$char_traits@D@std@@V?$allocator@D@2@@2@_N_J_KNVallocator@2@Uadl_serializer@nlohmann@@V?$vector@EV?$allocator@E@std@@@2@@nlohmann@@@detail@nlohmann@@QAE@AAV?$basic_json@Vmap@std@@Vvector@2@V?$basic_string@DU?$char_traits@D@std@@V?$allocator@D@2@@2@_N_J_KNVallocator@2@Uadl_serializer@nlohmann@@V?$vector@EV?$allocator@E@std@@@2@@2@V?$function@$$A6A_NHW4parse_event_t@detail@nlohmann@@AAV?$basic_json@Vmap@std@@Vvector@2@V?$basic_string@DU?$char_traits@D@std@@V?$allocator@D@2@@2@_N_J_KNVallocator@2@Uadl_serializer@nlohmann@@V?$vector@EV?$allocator@E@std@@@2@@3@@Z@std@@_N@Z 000000001008c790     cfg.obj
 0001:0008b970       ??$sax_parse_internal@V?$json_sax_dom_callback_parser@V?$basic_json@Vmap@std@@Vvector@2@V?$basic_string@DU?$char_traits@D@std@@V?$allocator@D@2@@2@_N_J_KNVallocator@2@Uadl_serializer@nlohmann@@V?$vector@EV?$allocator@E@std@@@2@@nlohmann@@@detail@nlohmann@@@?$parser@V?$basic_json@Vmap@std@@Vvector@2@V?$basic_string@DU?$char_traits@D@std@@V?$allocator@D@2@@2@_N_J_KNVallocator@2@Uadl_serializer@nlohmann@@V?$vector@EV?$allocator@E@std@@@2@@nlohmann@@V?$iterator_input_adapter@V?$_String_const_iterator@V?$_String_val@U?$_Simple_types@D@std@@@std@@@std@@@detail@2@@detail@nlohmann@@AAE_NPAV?$json_sax_dom_callback_parser@V?$basic_json@Vmap@std@@Vvector@2@V?$basic_string@DU?$char_traits@D@std@@V?$allocator@D@2@@2@_N_J_KNVallocator@2@Uadl_serializer@nlohmann@@V?$vector@EV?$allocator@E@std@@@2@@nlohmann@@@12@@Z 000000001008c970     cfg.obj
 0001:0008cb10       ??$parse_error@V0detail@nlohmann@@@?$json_sax_dom_callback_parser@V?$basic_json@Vmap@std@@Vvector@2@V?$basic_string@DU?$char_traits@D@std@@V?$allocator@D@2@@2@_N_J_KNVallocator@2@Uadl_serializer@nlohmann@@V?$vector@EV?$allocator@E@std@@@2@@nlohmann@@@detail@nlohmann@@QAE_NIABV?$basic_string@DU?$char_traits@D@std@@V?$allocator@D@2@@std@@ABVparse_error@12@@Z 000000001008db10     cfg.obj
 0001:0008cb60       ?create@parse_error@detail@nlohmann@@SA?AV123@HABUposition_t@23@ABV?$basic_string@DU?$char_traits@D@std@@V?$allocator@D@2@@std@@@Z 000000001008db60     cfg.obj
 0001:0008d0e0       ?exception_message@?$parser@V?$basic_json@Vmap@std@@Vvector@2@V?$basic_string@DU?$char_traits@D@std@@V?$allocator@D@2@@2@_N_J_KNVallocator@2@Uadl_serializer@nlohmann@@V?$vector@EV?$allocator@E@std@@@2@@nlohmann@@V?$iterator_input_adapter@V?$_String_const_iterator@V?$_String_val@U?$_Simple_types@D@std@@@std@@@std@@@detail@2@@detail@nlohmann@@AAE?AV?$basic_string@DU?$char_traits@D@std@@V?$allocator@D@2@@std@@W4token_type@?$lexer_base@V?$basic_json@Vmap@std@@Vvector@2@V?$basic_string@DU?$char_traits@D@std@@V?$allocator@D@2@@2@_N_J_KNVallocator@2@Uadl_serializer@nlohmann@@V?$vector@EV?$allocator@E@std@@@2@@nlohmann@@@23@ABV45@@Z 000000001008e0e0     cfg.obj
 0001:0008dd00       ?get_token_string@?$lexer@V?$basic_json@Vmap@std@@Vvector@2@V?$basic_string@DU?$char_traits@D@std@@V?$allocator@D@2@@2@_N_J_KNVallocator@2@Uadl_serializer@nlohmann@@V?$vector@EV?$allocator@E@std@@@2@@nlohmann@@V?$iterator_input_adapter@V?$_String_const_iterator@V?$_String_val@U?$_Simple_types@D@std@@@std@@@std@@@detail@2@@detail@nlohmann@@QBE?AV?$basic_string@DU?$char_traits@D@std@@V?$allocator@D@2@@std@@XZ 000000001008ed00     cfg.obj
 0001:0008ded0       ??1?$json_sax_dom_callback_parser@V?$basic_json@Vmap@std@@Vvector@2@V?$basic_string@DU?$char_traits@D@std@@V?$allocator@D@2@@2@_N_J_KNVallocator@2@Uadl_serializer@nlohmann@@V?$vector@EV?$allocator@E@std@@@2@@nlohmann@@@detail@nlohmann@@QAE@XZ 000000001008eed0     cfg.obj
 0001:0008dfe0       ??$sax_parse_internal@V?$json_sax_dom_parser@V?$basic_json@Vmap@std@@Vvector@2@V?$basic_string@DU?$char_traits@D@std@@V?$allocator@D@2@@2@_N_J_KNVallocator@2@Uadl_serializer@nlohmann@@V?$vector@EV?$allocator@E@std@@@2@@nlohmann@@@detail@nlohmann@@@?$parser@V?$basic_json@Vmap@std@@Vvector@2@V?$basic_string@DU?$char_traits@D@std@@V?$allocator@D@2@@2@_N_J_KNVallocator@2@Uadl_serializer@nlohmann@@V?$vector@EV?$allocator@E@std@@@2@@nlohmann@@V?$iterator_input_adapter@V?$_String_const_iterator@V?$_String_val@U?$_Simple_types@D@std@@@std@@@std@@@detail@2@@detail@nlohmann@@AAE_NPAV?$json_sax_dom_parser@V?$basic_json@Vmap@std@@Vvector@2@V?$basic_string@DU?$char_traits@D@std@@V?$allocator@D@2@@2@_N_J_KNVallocator@2@Uadl_serializer@nlohmann@@V?$vector@EV?$allocator@E@std@@@2@@nlohmann@@@12@@Z 000000001008efe0     cfg.obj
 0001:0008f160       ??$parse_error@V0detail@nlohmann@@@?$json_sax_dom_parser@V?$basic_json@Vmap@std@@Vvector@2@V?$basic_string@DU?$char_traits@D@std@@V?$allocator@D@2@@2@_N_J_KNVallocator@2@Uadl_serializer@nlohmann@@V?$vector@EV?$allocator@E@std@@@2@@nlohmann@@@detail@nlohmann@@QAE_NIABV?$basic_string@DU?$char_traits@D@std@@V?$allocator@D@2@@std@@ABVparse_error@12@@Z 0000000010090160     cfg.obj
 0001:0008f1b0       ??1?$json_sax_dom_parser@V?$basic_json@Vmap@std@@Vvector@2@V?$basic_string@DU?$char_traits@D@std@@V?$allocator@D@2@@2@_N_J_KNVallocator@2@Uadl_serializer@nlohmann@@V?$vector@EV?$allocator@E@std@@@2@@nlohmann@@@detail@nlohmann@@QAE@XZ 00000000100901b0     cfg.obj
 0001:0008f200       ?_Insert_n@?$vector@_NV?$allocator@_N@std@@@std@@QAE?AV?$_Vb_iterator@U?$_Wrap_alloc@V?$allocator@I@std@@@std@@@2@V?$_Vb_const_iterator@U?$_Wrap_alloc@V?$allocator@I@std@@@std@@@2@IAB_N@Z 0000000010090200     cfg.obj
 0001:0008f2f0       ?_Insert_x@?$vector@_NV?$allocator@_N@std@@@std@@QAEIV?$_Vb_const_iterator@U?$_Wrap_alloc@V?$allocator@I@std@@@std@@@2@I@Z 00000000100902f0     cfg.obj
 0001:0008f480       ?_Xlen@?$vector@_NV?$allocator@_N@std@@@std@@QBEXXZ 0000000010090480     cfg.obj
 0001:0008f490       ??$_Resize_reallocate@I@?$vector@IV?$allocator@I@std@@@std@@AAEXIABI@Z 0000000010090490     cfg.obj
 0001:0008f710       ?start_object@?$json_sax_dom_callback_parser@V?$basic_json@Vmap@std@@Vvector@2@V?$basic_string@DU?$char_traits@D@std@@V?$allocator@D@2@@2@_N_J_KNVallocator@2@Uadl_serializer@nlohmann@@V?$vector@EV?$allocator@E@std@@@2@@nlohmann@@@detail@nlohmann@@QAE_NI@Z 0000000010090710     cfg.obj
 0001:0008f8b0       ?end_object@?$json_sax_dom_callback_parser@V?$basic_json@Vmap@std@@Vvector@2@V?$basic_string@DU?$char_traits@D@std@@V?$allocator@D@2@@2@_N_J_KNVallocator@2@Uadl_serializer@nlohmann@@V?$vector@EV?$allocator@E@std@@@2@@nlohmann@@@detail@nlohmann@@QAE_NXZ 00000000100908b0     cfg.obj
 0001:0008fc40       ?key@?$json_sax_dom_callback_parser@V?$basic_json@Vmap@std@@Vvector@2@V?$basic_string@DU?$char_traits@D@std@@V?$allocator@D@2@@2@_N_J_KNVallocator@2@Uadl_serializer@nlohmann@@V?$vector@EV?$allocator@E@std@@@2@@nlohmann@@@detail@nlohmann@@QAE_NAAV?$basic_string@DU?$char_traits@D@std@@V?$allocator@D@2@@std@@@Z 0000000010090c40     cfg.obj
 0001:0008fe30       ?start_array@?$json_sax_dom_callback_parser@V?$basic_json@Vmap@std@@Vvector@2@V?$basic_string@DU?$char_traits@D@std@@V?$allocator@D@2@@2@_N_J_KNVallocator@2@Uadl_serializer@nlohmann@@V?$vector@EV?$allocator@E@std@@@2@@nlohmann@@@detail@nlohmann@@QAE_NI@Z 0000000010090e30     cfg.obj
 0001:0008ffd0       ?end_array@?$json_sax_dom_callback_parser@V?$basic_json@Vmap@std@@Vvector@2@V?$basic_string@DU?$char_traits@D@std@@V?$allocator@D@2@@2@_N_J_KNVallocator@2@Uadl_serializer@nlohmann@@V?$vector@EV?$allocator@E@std@@@2@@nlohmann@@@detail@nlohmann@@QAE_NXZ 0000000010090fd0     cfg.obj
 0001:00090170       ??$parse_error@Vout_of_range@detail@nlohmann@@@?$json_sax_dom_callback_parser@V?$basic_json@Vmap@std@@Vvector@2@V?$basic_string@DU?$char_traits@D@std@@V?$allocator@D@2@@2@_N_J_KNVallocator@2@Uadl_serializer@nlohmann@@V?$vector@EV?$allocator@E@std@@@2@@nlohmann@@@detail@nlohmann@@QAE_NIABV?$basic_string@DU?$char_traits@D@std@@V?$allocator@D@2@@std@@ABVout_of_range@12@@Z 0000000010091170     cfg.obj
 0001:000901c0       ??$handle_value@W4value_t@detail@nlohmann@@@?$json_sax_dom_callback_parser@V?$basic_json@Vmap@std@@Vvector@2@V?$basic_string@DU?$char_traits@D@std@@V?$allocator@D@2@@2@_N_J_KNVallocator@2@Uadl_serializer@nlohmann@@V?$vector@EV?$allocator@E@std@@@2@@nlohmann@@@detail@nlohmann@@AAE?AU?$pair@_NPAV?$basic_json@Vmap@std@@Vvector@2@V?$basic_string@DU?$char_traits@D@std@@V?$allocator@D@2@@2@_N_J_KNVallocator@2@Uadl_serializer@nlohmann@@V?$vector@EV?$allocator@E@std@@@2@@nlohmann@@@std@@$$QAW4value_t@12@_N@Z 00000000100911c0     cfg.obj
 0001:000904a0       ??0?$basic_json@Vmap@std@@Vvector@2@V?$basic_string@DU?$char_traits@D@std@@V?$allocator@D@2@@2@_N_J_KNVallocator@2@Uadl_serializer@nlohmann@@V?$vector@EV?$allocator@E@std@@@2@@nlohmann@@QAE@ABV01@@Z 00000000100914a0     cfg.obj
 0001:00090660       ??$erase@V?$iter_impl@V?$basic_json@Vmap@std@@Vvector@2@V?$basic_string@DU?$char_traits@D@std@@V?$allocator@D@2@@2@_N_J_KNVallocator@2@Uadl_serializer@nlohmann@@V?$vector@EV?$allocator@E@std@@@2@@nlohmann@@@detail@nlohmann@@$0A@@?$basic_json@Vmap@std@@Vvector@2@V?$basic_string@DU?$char_traits@D@std@@V?$allocator@D@2@@2@_N_J_KNVallocator@2@Uadl_serializer@nlohmann@@V?$vector@EV?$allocator@E@std@@@2@@nlohmann@@QAE?AV?$iter_impl@V?$basic_json@Vmap@std@@Vvector@2@V?$basic_string@DU?$char_traits@D@std@@V?$allocator@D@2@@2@_N_J_KNVallocator@2@Uadl_serializer@nlohmann@@V?$vector@EV?$allocator@E@std@@@2@@nlohmann@@@detail@1@V231@@Z 0000000010091660     cfg.obj
 0001:00090990       ??$?0V?$allocator@U?$_Tree_node@U?$pair@$$CBV?$basic_string@DU?$char_traits@D@std@@V?$allocator@D@2@@std@@V?$basic_json@Vmap@std@@Vvector@2@V?$basic_string@DU?$char_traits@D@std@@V?$allocator@D@2@@2@_N_J_KNVallocator@2@Uadl_serializer@nlohmann@@V?$vector@EV?$allocator@E@std@@@2@@nlohmann@@@std@@PAX@std@@@std@@@?$_Tree@V?$_Tmap_traits@V?$basic_string@DU?$char_traits@D@std@@V?$allocator@D@2@@std@@V?$basic_json@Vmap@std@@Vvector@2@V?$basic_string@DU?$char_traits@D@std@@V?$allocator@D@2@@2@_N_J_KNVallocator@2@Uadl_serializer@nlohmann@@V?$vector@EV?$allocator@E@std@@@2@@nlohmann@@U?$less@X@2@V?$allocator@U?$pair@$$CBV?$basic_string@DU?$char_traits@D@std@@V?$allocator@D@2@@std@@V?$basic_json@Vmap@std@@Vvector@2@V?$basic_string@DU?$char_traits@D@std@@V?$allocator@D@2@@2@_N_J_KNVallocator@2@Uadl_serializer@nlohmann@@V?$vector@EV?$allocator@E@std@@@2@@nlohmann@@@std@@@2@$0A@@std@@@std@@QAE@ABV01@$$QAV?$allocator@U?$_Tree_node@U?$pair@$$CBV?$basic_string@DU?$char_traits@D@std@@V?$allocator@D@2@@std@@V?$basic_json@Vmap@std@@Vvector@2@V?$basic_string@DU?$char_traits@D@std@@V?$allocator@D@2@@2@_N_J_KNVallocator@2@Uadl_serializer@nlohmann@@V?$vector@EV?$allocator@E@std@@@2@@nlohmann@@@std@@PAX@std@@@1@@Z 0000000010091990     cfg.obj
 0001:00090aa0       ??1?$_Tree_head_scoped_ptr@V?$allocator@U?$_Tree_node@U?$pair@$$CBV?$basic_string@DU?$char_traits@D@std@@V?$allocator@D@2@@std@@V?$basic_json@Vmap@std@@Vvector@2@V?$basic_string@DU?$char_traits@D@std@@V?$allocator@D@2@@2@_N_J_KNVallocator@2@Uadl_serializer@nlohmann@@V?$vector@EV?$allocator@E@std@@@2@@nlohmann@@@std@@PAX@std@@@std@@V?$_Tree_val@U?$_Tree_simple_types@U?$pair@$$CBV?$basic_string@DU?$char_traits@D@std@@V?$allocator@D@2@@std@@V?$basic_json@Vmap@std@@Vvector@2@V?$basic_string@DU?$char_traits@D@std@@V?$allocator@D@2@@2@_N_J_KNVallocator@2@Uadl_serializer@nlohmann@@V?$vector@EV?$allocator@E@std@@@2@@nlohmann@@@std@@@std@@@2@@std@@QAE@XZ 0000000010091aa0     cfg.obj
 0001:00090ad0       ??$_Copy_nodes@$0A@@?$_Tree@V?$_Tmap_traits@V?$basic_string@DU?$char_traits@D@std@@V?$allocator@D@2@@std@@V?$basic_json@Vmap@std@@Vvector@2@V?$basic_string@DU?$char_traits@D@std@@V?$allocator@D@2@@2@_N_J_KNVallocator@2@Uadl_serializer@nlohmann@@V?$vector@EV?$allocator@E@std@@@2@@nlohmann@@U?$less@X@2@V?$allocator@U?$pair@$$CBV?$basic_string@DU?$char_traits@D@std@@V?$allocator@D@2@@std@@V?$basic_json@Vmap@std@@Vvector@2@V?$basic_string@DU?$char_traits@D@std@@V?$allocator@D@2@@2@_N_J_KNVallocator@2@Uadl_serializer@nlohmann@@V?$vector@EV?$allocator@E@std@@@2@@nlohmann@@@std@@@2@$0A@@std@@@std@@IAEPAU?$_Tree_node@U?$pair@$$CBV?$basic_string@DU?$char_traits@D@std@@V?$allocator@D@2@@std@@V?$basic_json@Vmap@std@@Vvector@2@V?$basic_string@DU?$char_traits@D@std@@V?$allocator@D@2@@2@_N_J_KNVallocator@2@Uadl_serializer@nlohmann@@V?$vector@EV?$allocator@E@std@@@2@@nlohmann@@@std@@PAX@1@PAU21@0@Z 0000000010091ad0     cfg.obj
 0001:00090c40       ??$_Construct_n@ABQAV?$basic_json@Vmap@std@@Vvector@2@V?$basic_string@DU?$char_traits@D@std@@V?$allocator@D@2@@2@_N_J_KNVallocator@2@Uadl_serializer@nlohmann@@V?$vector@EV?$allocator@E@std@@@2@@nlohmann@@ABQAV12@@?$vector@V?$basic_json@Vmap@std@@Vvector@2@V?$basic_string@DU?$char_traits@D@std@@V?$allocator@D@2@@2@_N_J_KNVallocator@2@Uadl_serializer@nlohmann@@V?$vector@EV?$allocator@E@std@@@2@@nlohmann@@V?$allocator@V?$basic_json@Vmap@std@@Vvector@2@V?$basic_string@DU?$char_traits@D@std@@V?$allocator@D@2@@2@_N_J_KNVallocator@2@Uadl_serializer@nlohmann@@V?$vector@EV?$allocator@E@std@@@2@@nlohmann@@@std@@@std@@AAEXIABQAV?$basic_json@Vmap@std@@Vvector@2@V?$basic_string@DU?$char_traits@D@std@@V?$allocator@D@2@@2@_N_J_KNVallocator@2@Uadl_serializer@nlohmann@@V?$vector@EV?$allocator@E@std@@@2@@nlohmann@@0@Z 0000000010091c40     cfg.obj
 0001:00090d90       ??1?$_Tidy_guard@V?$vector@V?$basic_json@Vmap@std@@Vvector@2@V?$basic_string@DU?$char_traits@D@std@@V?$allocator@D@2@@2@_N_J_KNVallocator@2@Uadl_serializer@nlohmann@@V?$vector@EV?$allocator@E@std@@@2@@nlohmann@@V?$allocator@V?$basic_json@Vmap@std@@Vvector@2@V?$basic_string@DU?$char_traits@D@std@@V?$allocator@D@2@@2@_N_J_KNVallocator@2@Uadl_serializer@nlohmann@@V?$vector@EV?$allocator@E@std@@@2@@nlohmann@@@std@@@std@@@std@@QAE@XZ 0000000010091d90     cfg.obj
 0001:00090e10       ??$create@V?$byte_container_with_subtype@V?$vector@EV?$allocator@E@std@@@std@@@nlohmann@@ABV12@@?$basic_json@Vmap@std@@Vvector@2@V?$basic_string@DU?$char_traits@D@std@@V?$allocator@D@2@@2@_N_J_KNVallocator@2@Uadl_serializer@nlohmann@@V?$vector@EV?$allocator@E@std@@@2@@nlohmann@@CAPAV?$byte_container_with_subtype@V?$vector@EV?$allocator@E@std@@@std@@@1@ABV21@@Z 0000000010091e10     cfg.obj
 0001:00090f20       ?_Erase_unchecked@?$_Tree@V?$_Tmap_traits@V?$basic_string@DU?$char_traits@D@std@@V?$allocator@D@2@@std@@V?$basic_json@Vmap@std@@Vvector@2@V?$basic_string@DU?$char_traits@D@std@@V?$allocator@D@2@@2@_N_J_KNVallocator@2@Uadl_serializer@nlohmann@@V?$vector@EV?$allocator@E@std@@@2@@nlohmann@@U?$less@X@2@V?$allocator@U?$pair@$$CBV?$basic_string@DU?$char_traits@D@std@@V?$allocator@D@2@@std@@V?$basic_json@Vmap@std@@Vvector@2@V?$basic_string@DU?$char_traits@D@std@@V?$allocator@D@2@@2@_N_J_KNVallocator@2@Uadl_serializer@nlohmann@@V?$vector@EV?$allocator@E@std@@@2@@nlohmann@@@std@@@2@$0A@@std@@@std@@AAEPAU?$_Tree_node@U?$pair@$$CBV?$basic_string@DU?$char_traits@D@std@@V?$allocator@D@2@@std@@V?$basic_json@Vmap@std@@Vvector@2@V?$basic_string@DU?$char_traits@D@std@@V?$allocator@D@2@@2@_N_J_KNVallocator@2@Uadl_serializer@nlohmann@@V?$vector@EV?$allocator@E@std@@@2@@nlohmann@@@std@@PAX@2@V?$_Tree_unchecked_const_iterator@V?$_Tree_val@U?$_Tree_simple_types@U?$pair@$$CBV?$basic_string@DU?$char_traits@D@std@@V?$allocator@D@2@@std@@V?$basic_json@Vmap@std@@Vvector@2@V?$basic_string@DU?$char_traits@D@std@@V?$allocator@D@2@@2@_N_J_KNVallocator@2@Uadl_serializer@nlohmann@@V?$vector@EV?$allocator@E@std@@@2@@nlohmann@@@std@@@std@@@std@@U_Iterator_base0@2@@2@@Z 0000000010091f20     cfg.obj
 0001:00090fd0       ?_Extract@?$_Tree_val@U?$_Tree_simple_types@U?$pair@$$CBV?$basic_string@DU?$char_traits@D@std@@V?$allocator@D@2@@std@@V?$basic_json@Vmap@std@@Vvector@2@V?$basic_string@DU?$char_traits@D@std@@V?$allocator@D@2@@2@_N_J_KNVallocator@2@Uadl_serializer@nlohmann@@V?$vector@EV?$allocator@E@std@@@2@@nlohmann@@@std@@@std@@@std@@QAEPAU?$_Tree_node@U?$pair@$$CBV?$basic_string@DU?$char_traits@D@std@@V?$allocator@D@2@@std@@V?$basic_json@Vmap@std@@Vvector@2@V?$basic_string@DU?$char_traits@D@std@@V?$allocator@D@2@@2@_N_J_KNVallocator@2@Uadl_serializer@nlohmann@@V?$vector@EV?$allocator@E@std@@@2@@nlohmann@@@std@@PAX@2@V?$_Tree_unchecked_const_iterator@V?$_Tree_val@U?$_Tree_simple_types@U?$pair@$$CBV?$basic_string@DU?$char_traits@D@std@@V?$allocator@D@2@@std@@V?$basic_json@Vmap@std@@Vvector@2@V?$basic_string@DU?$char_traits@D@std@@V?$allocator@D@2@@2@_N_J_KNVallocator@2@Uadl_serializer@nlohmann@@V?$vector@EV?$allocator@E@std@@@2@@nlohmann@@@std@@@std@@@std@@U_Iterator_base0@2@@2@@Z 0000000010091fd0     cfg.obj
 0001:000913b0       ??$_Move_unchecked@PAV?$basic_json@Vmap@std@@Vvector@2@V?$basic_string@DU?$char_traits@D@std@@V?$allocator@D@2@@2@_N_J_KNVallocator@2@Uadl_serializer@nlohmann@@V?$vector@EV?$allocator@E@std@@@2@@nlohmann@@PAV12@@std@@YAPAV?$basic_json@Vmap@std@@Vvector@2@V?$basic_string@DU?$char_traits@D@std@@V?$allocator@D@2@@2@_N_J_KNVallocator@2@Uadl_serializer@nlohmann@@V?$vector@EV?$allocator@E@std@@@2@@nlohmann@@PAV12@00@Z 00000000100923b0     cfg.obj
 0001:00091440       ??$handle_value@AAN@?$json_sax_dom_callback_parser@V?$basic_json@Vmap@std@@Vvector@2@V?$basic_string@DU?$char_traits@D@std@@V?$allocator@D@2@@2@_N_J_KNVallocator@2@Uadl_serializer@nlohmann@@V?$vector@EV?$allocator@E@std@@@2@@nlohmann@@@detail@nlohmann@@AAE?AU?$pair@_NPAV?$basic_json@Vmap@std@@Vvector@2@V?$basic_string@DU?$char_traits@D@std@@V?$allocator@D@2@@2@_N_J_KNVallocator@2@Uadl_serializer@nlohmann@@V?$vector@EV?$allocator@E@std@@@2@@nlohmann@@@std@@AAN_N@Z 0000000010092440     cfg.obj
 0001:00091720       ??$handle_value@AA_N@?$json_sax_dom_callback_parser@V?$basic_json@Vmap@std@@Vvector@2@V?$basic_string@DU?$char_traits@D@std@@V?$allocator@D@2@@2@_N_J_KNVallocator@2@Uadl_serializer@nlohmann@@V?$vector@EV?$allocator@E@std@@@2@@nlohmann@@@detail@nlohmann@@AAE?AU?$pair@_NPAV?$basic_json@Vmap@std@@Vvector@2@V?$basic_string@DU?$char_traits@D@std@@V?$allocator@D@2@@2@_N_J_KNVallocator@2@Uadl_serializer@nlohmann@@V?$vector@EV?$allocator@E@std@@@2@@nlohmann@@@std@@AA_N_N@Z 0000000010092720     cfg.obj
 0001:00091a00       ??$handle_value@$$T@?$json_sax_dom_callback_parser@V?$basic_json@Vmap@std@@Vvector@2@V?$basic_string@DU?$char_traits@D@std@@V?$allocator@D@2@@2@_N_J_KNVallocator@2@Uadl_serializer@nlohmann@@V?$vector@EV?$allocator@E@std@@@2@@nlohmann@@@detail@nlohmann@@AAE?AU?$pair@_NPAV?$basic_json@Vmap@std@@Vvector@2@V?$basic_string@DU?$char_traits@D@std@@V?$allocator@D@2@@2@_N_J_KNVallocator@2@Uadl_serializer@nlohmann@@V?$vector@EV?$allocator@E@std@@@2@@nlohmann@@@std@@$$QA$$T_N@Z 0000000010092a00     cfg.obj
 0001:00091cd0       ??$handle_value@AA_J@?$json_sax_dom_callback_parser@V?$basic_json@Vmap@std@@Vvector@2@V?$basic_string@DU?$char_traits@D@std@@V?$allocator@D@2@@2@_N_J_KNVallocator@2@Uadl_serializer@nlohmann@@V?$vector@EV?$allocator@E@std@@@2@@nlohmann@@@detail@nlohmann@@AAE?AU?$pair@_NPAV?$basic_json@Vmap@std@@Vvector@2@V?$basic_string@DU?$char_traits@D@std@@V?$allocator@D@2@@2@_N_J_KNVallocator@2@Uadl_serializer@nlohmann@@V?$vector@EV?$allocator@E@std@@@2@@nlohmann@@@std@@AA_J_N@Z 0000000010092cd0     cfg.obj
 0001:00091fb0       ??$handle_value@AAV?$basic_string@DU?$char_traits@D@std@@V?$allocator@D@2@@std@@@?$json_sax_dom_callback_parser@V?$basic_json@Vmap@std@@Vvector@2@V?$basic_string@DU?$char_traits@D@std@@V?$allocator@D@2@@2@_N_J_KNVallocator@2@Uadl_serializer@nlohmann@@V?$vector@EV?$allocator@E@std@@@2@@nlohmann@@@detail@nlohmann@@AAE?AU?$pair@_NPAV?$basic_json@Vmap@std@@Vvector@2@V?$basic_string@DU?$char_traits@D@std@@V?$allocator@D@2@@2@_N_J_KNVallocator@2@Uadl_serializer@nlohmann@@V?$vector@EV?$allocator@E@std@@@2@@nlohmann@@@std@@AAV?$basic_string@DU?$char_traits@D@std@@V?$allocator@D@2@@4@_N@Z 0000000010092fb0     cfg.obj
 0001:000922d0       ??$handle_value@AA_K@?$json_sax_dom_callback_parser@V?$basic_json@Vmap@std@@Vvector@2@V?$basic_string@DU?$char_traits@D@std@@V?$allocator@D@2@@2@_N_J_KNVallocator@2@Uadl_serializer@nlohmann@@V?$vector@EV?$allocator@E@std@@@2@@nlohmann@@@detail@nlohmann@@AAE?AU?$pair@_NPAV?$basic_json@Vmap@std@@Vvector@2@V?$basic_string@DU?$char_traits@D@std@@V?$allocator@D@2@@2@_N_J_KNVallocator@2@Uadl_serializer@nlohmann@@V?$vector@EV?$allocator@E@std@@@2@@nlohmann@@@std@@AA_K_N@Z 00000000100932d0     cfg.obj
 0001:000925b0       ?erase@?$vector@_NV?$allocator@_N@std@@@std@@QAE?AV?$_Vb_iterator@U?$_Wrap_alloc@V?$allocator@I@std@@@std@@@2@V?$_Vb_const_iterator@U?$_Wrap_alloc@V?$allocator@I@std@@@std@@@2@@Z 00000000100935b0     cfg.obj
 0001:00092790       ??0parse_error@detail@nlohmann@@QAE@ABV012@@Z 0000000010093790     cfg.obj
 0001:00092810       ?position_string@parse_error@detail@nlohmann@@CA?AV?$basic_string@DU?$char_traits@D@std@@V?$allocator@D@2@@std@@ABUposition_t@23@@Z 0000000010093810     cfg.obj
 0001:00092bb0       ??$parse_error@Vout_of_range@detail@nlohmann@@@?$json_sax_dom_parser@V?$basic_json@Vmap@std@@Vvector@2@V?$basic_string@DU?$char_traits@D@std@@V?$allocator@D@2@@2@_N_J_KNVallocator@2@Uadl_serializer@nlohmann@@V?$vector@EV?$allocator@E@std@@@2@@nlohmann@@@detail@nlohmann@@QAE_NIABV?$basic_string@DU?$char_traits@D@std@@V?$allocator@D@2@@std@@ABVout_of_range@12@@Z 0000000010093bb0     cfg.obj
 0001:00092c00       ??$handle_value@W4value_t@detail@nlohmann@@@?$json_sax_dom_parser@V?$basic_json@Vmap@std@@Vvector@2@V?$basic_string@DU?$char_traits@D@std@@V?$allocator@D@2@@2@_N_J_KNVallocator@2@Uadl_serializer@nlohmann@@V?$vector@EV?$allocator@E@std@@@2@@nlohmann@@@detail@nlohmann@@AAEPAV?$basic_json@Vmap@std@@Vvector@2@V?$basic_string@DU?$char_traits@D@std@@V?$allocator@D@2@@2@_N_J_KNVallocator@2@Uadl_serializer@nlohmann@@V?$vector@EV?$allocator@E@std@@@2@@2@$$QAW4value_t@12@@Z 0000000010093c00     cfg.obj
 0001:00092d10       ??$_Emplace_reallocate@W4value_t@detail@nlohmann@@@?$vector@V?$basic_json@Vmap@std@@Vvector@2@V?$basic_string@DU?$char_traits@D@std@@V?$allocator@D@2@@2@_N_J_KNVallocator@2@Uadl_serializer@nlohmann@@V?$vector@EV?$allocator@E@std@@@2@@nlohmann@@V?$allocator@V?$basic_json@Vmap@std@@Vvector@2@V?$basic_string@DU?$char_traits@D@std@@V?$allocator@D@2@@2@_N_J_KNVallocator@2@Uadl_serializer@nlohmann@@V?$vector@EV?$allocator@E@std@@@2@@nlohmann@@@std@@@std@@AAEPAV?$basic_json@Vmap@std@@Vvector@2@V?$basic_string@DU?$char_traits@D@std@@V?$allocator@D@2@@2@_N_J_KNVallocator@2@Uadl_serializer@nlohmann@@V?$vector@EV?$allocator@E@std@@@2@@nlohmann@@QAV23@$$QAW4value_t@detail@3@@Z 0000000010093d10     cfg.obj
 0001:00092fd0       ??$handle_value@AAN@?$json_sax_dom_parser@V?$basic_json@Vmap@std@@Vvector@2@V?$basic_string@DU?$char_traits@D@std@@V?$allocator@D@2@@2@_N_J_KNVallocator@2@Uadl_serializer@nlohmann@@V?$vector@EV?$allocator@E@std@@@2@@nlohmann@@@detail@nlohmann@@AAEPAV?$basic_json@Vmap@std@@Vvector@2@V?$basic_string@DU?$char_traits@D@std@@V?$allocator@D@2@@2@_N_J_KNVallocator@2@Uadl_serializer@nlohmann@@V?$vector@EV?$allocator@E@std@@@2@@2@AAN@Z 0000000010093fd0     cfg.obj
 0001:000930e0       ??$_Emplace_reallocate@AAN@?$vector@V?$basic_json@Vmap@std@@Vvector@2@V?$basic_string@DU?$char_traits@D@std@@V?$allocator@D@2@@2@_N_J_KNVallocator@2@Uadl_serializer@nlohmann@@V?$vector@EV?$allocator@E@std@@@2@@nlohmann@@V?$allocator@V?$basic_json@Vmap@std@@Vvector@2@V?$basic_string@DU?$char_traits@D@std@@V?$allocator@D@2@@2@_N_J_KNVallocator@2@Uadl_serializer@nlohmann@@V?$vector@EV?$allocator@E@std@@@2@@nlohmann@@@std@@@std@@AAEPAV?$basic_json@Vmap@std@@Vvector@2@V?$basic_string@DU?$char_traits@D@std@@V?$allocator@D@2@@2@_N_J_KNVallocator@2@Uadl_serializer@nlohmann@@V?$vector@EV?$allocator@E@std@@@2@@nlohmann@@QAV23@AAN@Z 00000000100940e0     cfg.obj
 0001:00093330       ??$handle_value@AA_N@?$json_sax_dom_parser@V?$basic_json@Vmap@std@@Vvector@2@V?$basic_string@DU?$char_traits@D@std@@V?$allocator@D@2@@2@_N_J_KNVallocator@2@Uadl_serializer@nlohmann@@V?$vector@EV?$allocator@E@std@@@2@@nlohmann@@@detail@nlohmann@@AAEPAV?$basic_json@Vmap@std@@Vvector@2@V?$basic_string@DU?$char_traits@D@std@@V?$allocator@D@2@@2@_N_J_KNVallocator@2@Uadl_serializer@nlohmann@@V?$vector@EV?$allocator@E@std@@@2@@2@AA_N@Z 0000000010094330     cfg.obj
 0001:00093450       ??$_Emplace_reallocate@AA_N@?$vector@V?$basic_json@Vmap@std@@Vvector@2@V?$basic_string@DU?$char_traits@D@std@@V?$allocator@D@2@@2@_N_J_KNVallocator@2@Uadl_serializer@nlohmann@@V?$vector@EV?$allocator@E@std@@@2@@nlohmann@@V?$allocator@V?$basic_json@Vmap@std@@Vvector@2@V?$basic_string@DU?$char_traits@D@std@@V?$allocator@D@2@@2@_N_J_KNVallocator@2@Uadl_serializer@nlohmann@@V?$vector@EV?$allocator@E@std@@@2@@nlohmann@@@std@@@std@@AAEPAV?$basic_json@Vmap@std@@Vvector@2@V?$basic_string@DU?$char_traits@D@std@@V?$allocator@D@2@@2@_N_J_KNVallocator@2@Uadl_serializer@nlohmann@@V?$vector@EV?$allocator@E@std@@@2@@nlohmann@@QAV23@AA_N@Z 0000000010094450     cfg.obj
 0001:000936b0       ??$handle_value@$$T@?$json_sax_dom_parser@V?$basic_json@Vmap@std@@Vvector@2@V?$basic_string@DU?$char_traits@D@std@@V?$allocator@D@2@@2@_N_J_KNVallocator@2@Uadl_serializer@nlohmann@@V?$vector@EV?$allocator@E@std@@@2@@nlohmann@@@detail@nlohmann@@AAEPAV?$basic_json@Vmap@std@@Vvector@2@V?$basic_string@DU?$char_traits@D@std@@V?$allocator@D@2@@2@_N_J_KNVallocator@2@Uadl_serializer@nlohmann@@V?$vector@EV?$allocator@E@std@@@2@@2@$$QA$$T@Z 00000000100946b0     cfg.obj
 0001:00093790       ??$_Emplace_reallocate@$$T@?$vector@V?$basic_json@Vmap@std@@Vvector@2@V?$basic_string@DU?$char_traits@D@std@@V?$allocator@D@2@@2@_N_J_KNVallocator@2@Uadl_serializer@nlohmann@@V?$vector@EV?$allocator@E@std@@@2@@nlohmann@@V?$allocator@V?$basic_json@Vmap@std@@Vvector@2@V?$basic_string@DU?$char_traits@D@std@@V?$allocator@D@2@@2@_N_J_KNVallocator@2@Uadl_serializer@nlohmann@@V?$vector@EV?$allocator@E@std@@@2@@nlohmann@@@std@@@std@@AAEPAV?$basic_json@Vmap@std@@Vvector@2@V?$basic_string@DU?$char_traits@D@std@@V?$allocator@D@2@@2@_N_J_KNVallocator@2@Uadl_serializer@nlohmann@@V?$vector@EV?$allocator@E@std@@@2@@nlohmann@@QAV23@$$QA$$T@Z 0000000010094790     cfg.obj
 0001:000939d0       ??$handle_value@AA_J@?$json_sax_dom_parser@V?$basic_json@Vmap@std@@Vvector@2@V?$basic_string@DU?$char_traits@D@std@@V?$allocator@D@2@@2@_N_J_KNVallocator@2@Uadl_serializer@nlohmann@@V?$vector@EV?$allocator@E@std@@@2@@nlohmann@@@detail@nlohmann@@AAEPAV?$basic_json@Vmap@std@@Vvector@2@V?$basic_string@DU?$char_traits@D@std@@V?$allocator@D@2@@2@_N_J_KNVallocator@2@Uadl_serializer@nlohmann@@V?$vector@EV?$allocator@E@std@@@2@@2@AA_J@Z 00000000100949d0     cfg.obj
 0001:00093ae0       ??$_Emplace_reallocate@AA_J@?$vector@V?$basic_json@Vmap@std@@Vvector@2@V?$basic_string@DU?$char_traits@D@std@@V?$allocator@D@2@@2@_N_J_KNVallocator@2@Uadl_serializer@nlohmann@@V?$vector@EV?$allocator@E@std@@@2@@nlohmann@@V?$allocator@V?$basic_json@Vmap@std@@Vvector@2@V?$basic_string@DU?$char_traits@D@std@@V?$allocator@D@2@@2@_N_J_KNVallocator@2@Uadl_serializer@nlohmann@@V?$vector@EV?$allocator@E@std@@@2@@nlohmann@@@std@@@std@@AAEPAV?$basic_json@Vmap@std@@Vvector@2@V?$basic_string@DU?$char_traits@D@std@@V?$allocator@D@2@@2@_N_J_KNVallocator@2@Uadl_serializer@nlohmann@@V?$vector@EV?$allocator@E@std@@@2@@nlohmann@@QAV23@AA_J@Z 0000000010094ae0     cfg.obj
 0001:00093d30       ??$handle_value@AAV?$basic_string@DU?$char_traits@D@std@@V?$allocator@D@2@@std@@@?$json_sax_dom_parser@V?$basic_json@Vmap@std@@Vvector@2@V?$basic_string@DU?$char_traits@D@std@@V?$allocator@D@2@@2@_N_J_KNVallocator@2@Uadl_serializer@nlohmann@@V?$vector@EV?$allocator@E@std@@@2@@nlohmann@@@detail@nlohmann@@AAEPAV?$basic_json@Vmap@std@@Vvector@2@V?$basic_string@DU?$char_traits@D@std@@V?$allocator@D@2@@2@_N_J_KNVallocator@2@Uadl_serializer@nlohmann@@V?$vector@EV?$allocator@E@std@@@2@@2@AAV?$basic_string@DU?$char_traits@D@std@@V?$allocator@D@2@@std@@@Z 0000000010094d30     cfg.obj
 0001:00093f60       ??$_Emplace_reallocate@AAV?$basic_string@DU?$char_traits@D@std@@V?$allocator@D@2@@std@@@?$vector@V?$basic_json@Vmap@std@@Vvector@2@V?$basic_string@DU?$char_traits@D@std@@V?$allocator@D@2@@2@_N_J_KNVallocator@2@Uadl_serializer@nlohmann@@V?$vector@EV?$allocator@E@std@@@2@@nlohmann@@V?$allocator@V?$basic_json@Vmap@std@@Vvector@2@V?$basic_string@DU?$char_traits@D@std@@V?$allocator@D@2@@2@_N_J_KNVallocator@2@Uadl_serializer@nlohmann@@V?$vector@EV?$allocator@E@std@@@2@@nlohmann@@@std@@@std@@AAEPAV?$basic_json@Vmap@std@@Vvector@2@V?$basic_string@DU?$char_traits@D@std@@V?$allocator@D@2@@2@_N_J_KNVallocator@2@Uadl_serializer@nlohmann@@V?$vector@EV?$allocator@E@std@@@2@@nlohmann@@QAV23@AAV?$basic_string@DU?$char_traits@D@std@@V?$allocator@D@2@@1@@Z 0000000010094f60     cfg.obj
 0001:00094270       ??$handle_value@AA_K@?$json_sax_dom_parser@V?$basic_json@Vmap@std@@Vvector@2@V?$basic_string@DU?$char_traits@D@std@@V?$allocator@D@2@@2@_N_J_KNVallocator@2@Uadl_serializer@nlohmann@@V?$vector@EV?$allocator@E@std@@@2@@nlohmann@@@detail@nlohmann@@AAEPAV?$basic_json@Vmap@std@@Vvector@2@V?$basic_string@DU?$char_traits@D@std@@V?$allocator@D@2@@2@_N_J_KNVallocator@2@Uadl_serializer@nlohmann@@V?$vector@EV?$allocator@E@std@@@2@@2@AA_K@Z 0000000010095270     cfg.obj
 0001:00094380       ??$_Emplace_reallocate@AA_K@?$vector@V?$basic_json@Vmap@std@@Vvector@2@V?$basic_string@DU?$char_traits@D@std@@V?$allocator@D@2@@2@_N_J_KNVallocator@2@Uadl_serializer@nlohmann@@V?$vector@EV?$allocator@E@std@@@2@@nlohmann@@V?$allocator@V?$basic_json@Vmap@std@@Vvector@2@V?$basic_string@DU?$char_traits@D@std@@V?$allocator@D@2@@2@_N_J_KNVallocator@2@Uadl_serializer@nlohmann@@V?$vector@EV?$allocator@E@std@@@2@@nlohmann@@@std@@@std@@AAEPAV?$basic_json@Vmap@std@@Vvector@2@V?$basic_string@DU?$char_traits@D@std@@V?$allocator@D@2@@2@_N_J_KNVallocator@2@Uadl_serializer@nlohmann@@V?$vector@EV?$allocator@E@std@@@2@@nlohmann@@QAV23@AA_K@Z 0000000010095380     cfg.obj
 0001:000945d0       ??$_Find@$$BY07D@?$_Tree@V?$_Tmap_traits@V?$basic_string@DU?$char_traits@D@std@@V?$allocator@D@2@@std@@V?$basic_json@Vmap@std@@Vvector@2@V?$basic_string@DU?$char_traits@D@std@@V?$allocator@D@2@@2@_N_J_KNVallocator@2@Uadl_serializer@nlohmann@@V?$vector@EV?$allocator@E@std@@@2@@nlohmann@@U?$less@X@2@V?$allocator@U?$pair@$$CBV?$basic_string@DU?$char_traits@D@std@@V?$allocator@D@2@@std@@V?$basic_json@Vmap@std@@Vvector@2@V?$basic_string@DU?$char_traits@D@std@@V?$allocator@D@2@@2@_N_J_KNVallocator@2@Uadl_serializer@nlohmann@@V?$vector@EV?$allocator@E@std@@@2@@nlohmann@@@std@@@2@$0A@@std@@@std@@ABEPAU?$_Tree_node@U?$pair@$$CBV?$basic_string@DU?$char_traits@D@std@@V?$allocator@D@2@@std@@V?$basic_json@Vmap@std@@Vvector@2@V?$basic_string@DU?$char_traits@D@std@@V?$allocator@D@2@@2@_N_J_KNVallocator@2@Uadl_serializer@nlohmann@@V?$vector@EV?$allocator@E@std@@@2@@nlohmann@@@std@@PAX@1@AAY07$$CBD@Z 00000000100955d0     cfg.obj
 0001:00094a50       ??0ImGuiIO@@QAE@XZ         0000000010095a50     imgui.obj
 0001:00094f00       ?AddInputCharacter@ImGuiIO@@QAEXI@Z 0000000010095f00     imgui.obj
 0001:00094ff0       ?AddInputCharacterUTF16@ImGuiIO@@QAEXG@Z 0000000010095ff0     imgui.obj
 0001:000952d0       ?ImTextCharFromUtf8@@YAHPAIPBD1@Z 00000000100962d0     imgui.obj
 0001:00095530       ?ImStrncpy@@YAXPADPBDI@Z   0000000010096530     imgui.obj
 0001:00095560       ?MemAlloc@ImGui@@YAPAXI@Z  0000000010096560     imgui.obj
 0001:00095590       ?MemFree@ImGui@@YAXPAX@Z   0000000010096590     imgui.obj
 0001:000955c0       ?ImStrbolW@@YAPBGPBG0@Z    00000000100965c0     imgui.obj
 0001:000955f0       ?ImStrTrimBlanks@@YAXPAD@Z 00000000100965f0     imgui.obj
 0001:00095680       ?ImFormatString@@YAHPADIPBDZZ 0000000010096680     imgui.obj
 0001:00095700       ?ImFormatStringV@@YAHPADIPBD0@Z 0000000010096700     imgui.obj
 0001:00095760       ?ImFileOpen@@YAPAU_iobuf@@PBD0@Z 0000000010096760     imgui.obj
 0001:000958c0       ?ImFileLoadToMemory@@YAPAXPBD0PAIH@Z 00000000100968c0     imgui.obj
 0001:00095a00       ?ImTextStrFromUtf8@@YAHPAGHPBD1PAPBD@Z 0000000010096a00     imgui.obj
 0001:00095a90       ?ImTextCountCharsFromUtf8@@YAHPBD0@Z 0000000010096a90     imgui.obj
 0001:00095af0       ?ImTextStrToUtf8@@YAHPADHPBG1@Z 0000000010096af0     imgui.obj
 0001:00095bd0       ?ImTextCountUtf8BytesFromStr@@YAHPBG0@Z 0000000010096bd0     imgui.obj
 0001:00095c30       ?ImAlphaBlendColors@@YAIII@Z 0000000010096c30     imgui.obj
 0001:00095cd0       ?ColorConvertFloat4ToU32@ImGui@@YAIABUImVec4@@@Z 0000000010096cd0     imgui.obj
 0001:00095d80       ?ColorConvertRGBtoHSV@ImGui@@YAXMMMAAM00@Z 0000000010096d80     imgui.obj
 0001:00095e40       ?ColorConvertHSVtoRGB@ImGui@@YAXMMMAAM00@Z 0000000010096e40     imgui.obj
 0001:00095f80       ?SetVoidPtr@ImGuiStorage@@QAEXIPAX@Z 0000000010096f80     imgui.obj
 0001:000960d0       ?append@ImGuiTextBuffer@@QAEXPBD0@Z 00000000100970d0     imgui.obj
 0001:000961e0       ?appendf@ImGuiTextBuffer@@QAAXPBDZZ 00000000100971e0     imgui.obj
 0001:00096220       ?appendfv@ImGuiTextBuffer@@QAEXPBDPAD@Z 0000000010097220     imgui.obj
 0001:000963a0       ?GetStyle@ImGui@@YAAAUImGuiStyle@@XZ 00000000100973a0     imgui.obj
 0001:000963b0       ?GetColorU32@ImGui@@YAIHM@Z 00000000100973b0     imgui.obj
 0001:00096490       ?GetColorU32@ImGui@@YAIABUImVec4@@@Z 0000000010097490     imgui.obj
 0001:00096550       ?GetColorU32@ImGui@@YAII@Z 0000000010097550     imgui.obj
 0001:000965a0       ?PushStyleColor@ImGui@@YAXHABUImVec4@@@Z 00000000100975a0     imgui.obj
 0001:000966e0       ?PopStyleColor@ImGui@@YAXH@Z 00000000100976e0     imgui.obj
 0001:00096740       ?PushStyleVar@ImGui@@YAXHM@Z 0000000010097740     imgui.obj
 0001:00096880       ?PushStyleVar@ImGui@@YAXHABUImVec2@@@Z 0000000010097880     imgui.obj
 0001:000969d0       ?PopStyleVar@ImGui@@YAXH@Z 00000000100979d0     imgui.obj
 0001:00096a80       ?FindRenderedTextEnd@ImGui@@YAPBDPBD0@Z 0000000010097a80     imgui.obj
 0001:00096ac0       ?RenderText@ImGui@@YAXUImVec2@@PBD1_N@Z 0000000010097ac0     imgui.obj
 0001:00096c90       ?LogRenderedText@ImGui@@YAXPBUImVec2@@PBD1@Z 0000000010097c90     imgui.obj
 0001:00096e20       ?RenderTextWrapped@ImGui@@YAXUImVec2@@PBD1M@Z 0000000010097e20     imgui.obj
 0001:00096fc0       ?RenderTextClippedEx@ImGui@@YAXPAUImDrawList@@ABUImVec2@@1PBD2PBU3@1PBUImRect@@@Z 0000000010097fc0     imgui.obj
 0001:00097340       ?CalcTextSize@ImGui@@YA?AUImVec2@@PBD0_NM@Z 0000000010098340     imgui.obj
 0001:00097440       ?RenderTextClipped@ImGui@@YAXABUImVec2@@0PBD1PBU2@0PBUImRect@@@Z 0000000010098440     imgui.obj
 0001:000974f0       ?RenderFrame@ImGui@@YAXUImVec2@@0I_NM@Z 00000000100984f0     imgui.obj
 0001:000977f0       ?RenderFrameBorder@ImGui@@YAXUImVec2@@0M@Z 00000000100987f0     imgui.obj
 0001:00097ab0       ?RenderNavHighlight@ImGui@@YAXABUImRect@@IH@Z 0000000010098ab0     imgui.obj
 0001:00097ed0       ??0ImGuiWindow@@QAE@PAUImGuiContext@@PBD@Z 0000000010098ed0     imgui.obj
 0001:00098580       ?GetID@ImGuiWindow@@QAEIPBD0@Z 0000000010099580     imgui.obj
 0001:00098680       ??1?$ImVector@UImGuiColumns@@@@QAE@XZ 0000000010099680     imgui.obj
 0001:00098680       ??1ImGuiStorage@@QAE@XZ    0000000010099680     imgui.obj
 0001:00098680       ??1?$ImVector@I@@QAE@XZ    0000000010099680     imgui.obj
 0001:00098680       ??1?$ImVector@PAUImGuiWindow@@@@QAE@XZ 0000000010099680     imgui.obj
 0001:00098680       ??1ImGuiTextBuffer@@QAE@XZ 0000000010099680     imgui.obj
 0001:00098680       ??1?$ImChunkStream@UImGuiWindowSettings@@@@QAE@XZ 0000000010099680     imgui.obj
 0001:00098680       ??1?$ImVector@UImGuiSettingsHandler@@@@QAE@XZ 0000000010099680     imgui.obj
 0001:00098680       ??1?$ImVector@D@@QAE@XZ    0000000010099680     imgui.obj
 0001:00098680       ??1?$ImVector@UImGuiShrinkWidthItem@@@@QAE@XZ 0000000010099680     imgui.obj
 0001:00098680       ??1?$ImVector@UImGuiPtrOrIndex@@@@QAE@XZ 0000000010099680     imgui.obj
 0001:00098680       ??1?$ImVector@E@@QAE@XZ    0000000010099680     imgui.obj
 0001:00098680       ??1?$ImVector@UImGuiPopupData@@@@QAE@XZ 0000000010099680     imgui.obj
 0001:00098680       ??1?$ImVector@PAUImFont@@@@QAE@XZ 0000000010099680     imgui.obj
 0001:00098680       ??1?$ImVector@UImGuiStyleMod@@@@QAE@XZ 0000000010099680     imgui.obj
 0001:00098680       ??1?$ImVector@UImGuiColorMod@@@@QAE@XZ 0000000010099680     imgui.obj
 0001:00098680       ??1?$ImVector@UImGuiTabBar@@@@QAE@XZ 0000000010099680     imgui.obj
 0001:00098700       ??1ImGuiWindowTempData@@QAE@XZ 0000000010099700     imgui.obj
 0001:000988c0       ?KeepAliveID@ImGui@@YAXI@Z 00000000100998c0     imgui.obj
 0001:000988f0       ?GetIDNoKeepAlive@ImGuiWindow@@QAEIPBD0@Z 00000000100998f0     imgui.obj
 0001:000989c0       ?GetIDFromRectangle@ImGuiWindow@@QAEIABUImRect@@@Z 00000000100999c0     imgui.obj
 0001:00098b80       ?GcCompactTransientWindowBuffers@ImGui@@YAXPAUImGuiWindow@@@Z 0000000010099b80     imgui.obj
 0001:00098d70       ?GcAwakeTransientWindowBuffers@ImGui@@YAXPAUImGuiWindow@@@Z 0000000010099d70     imgui.obj
 0001:00098ea0       ?SetActiveID@ImGui@@YAXIPAUImGuiWindow@@@Z 0000000010099ea0     imgui.obj
 0001:00098fb0       ?ClearActiveID@ImGui@@YAXXZ 0000000010099fb0     imgui.obj
 0001:00099030       ?SetHoveredID@ImGui@@YAXI@Z 000000001009a030     imgui.obj
 0001:00099070       ?MarkItemEdited@ImGui@@YAXI@Z 000000001009a070     imgui.obj
 0001:00099090       ?IsItemHovered@ImGui@@YA_NH@Z 000000001009a090     imgui.obj
 0001:00099180       ?ItemHoverable@ImGui@@YA_NABUImRect@@I@Z 000000001009a180     imgui.obj
 0001:00099340       ?IsMouseHoveringRect@ImGui@@YA_NABUImVec2@@0_N@Z 000000001009a340     imgui.obj
 0001:00099400       ?GetForegroundDrawList@ImGui@@YAPAUImDrawList@@XZ 000000001009a400     imgui.obj
 0001:00099410       ?IsClippedEx@ImGui@@YA_NABUImRect@@I_N@Z 000000001009a410     imgui.obj
 0001:00099490       ?FocusableItemRegister@ImGui@@YA_NPAUImGuiWindow@@I@Z 000000001009a490     imgui.obj
 0001:000995c0       ?FocusableItemUnregister@ImGui@@YAXPAUImGuiWindow@@@Z 000000001009a5c0     imgui.obj
 0001:000995e0       ?CalcWrapWidthForPos@ImGui@@YAMABUImVec2@@M@Z 000000001009a5e0     imgui.obj
 0001:00099640       ?GetClipboardText@ImGui@@YAPBDXZ 000000001009a640     imgui.obj
 0001:00099670       ?SetClipboardText@ImGui@@YAXPBD@Z 000000001009a670     imgui.obj
 0001:00099690       ?GetCurrentContext@ImGui@@YAPAUImGuiContext@@XZ 000000001009a690     imgui.obj
 0001:000996a0       ?CreateContext@ImGui@@YAPAUImGuiContext@@PAUImFontAtlas@@@Z 000000001009a6a0     imgui.obj
 0001:00099700       ??0ImGuiContext@@QAE@PAUImFontAtlas@@@Z 000000001009a700     imgui.obj
 0001:0009a1a0       ?Initialize@ImGui@@YAXPAUImGuiContext@@@Z 000000001009b1a0     imgui.obj
 0001:0009a320       ?GetIO@ImGui@@YAAAUImGuiIO@@XZ 000000001009b320     imgui.obj
 0001:0009a330       ?GetDrawData@ImGui@@YAPAUImDrawData@@XZ 000000001009b330     imgui.obj
 0001:0009a350       ?GetBackgroundDrawList@ImGui@@YAPAUImDrawList@@XZ 000000001009b350     imgui.obj
 0001:0009a360       ?GetDrawListSharedData@ImGui@@YAPAUImDrawListSharedData@@XZ 000000001009b360     imgui.obj
 0001:0009a370       ?StartMouseMovingWindow@ImGui@@YAXPAUImGuiWindow@@@Z 000000001009b370     imgui.obj
 0001:0009a4e0       ?FocusWindow@ImGui@@YAXPAUImGuiWindow@@@Z 000000001009b4e0     imgui.obj
 0001:0009a700       ?UpdateMouseMovingWindowNewFrame@ImGui@@YAXXZ 000000001009b700     imgui.obj
 0001:0009a980       ?IsMousePosValid@ImGui@@YA_NPBUImVec2@@@Z 000000001009b980     imgui.obj
 0001:0009a9c0       ?UpdateMouseMovingWindowEndFrame@ImGui@@YAXXZ 000000001009b9c0     imgui.obj
 0001:0009ac40       ?IsPopupOpen@ImGui@@YA_NIH@Z 000000001009bc40     imgui.obj
 0001:0009acd0       ?TitleBarRect@ImGuiWindow@@QBE?AUImRect@@XZ 000000001009bcd0     imgui.obj
 0001:0009ad50       ?GetTopMostPopupModal@ImGui@@YAPAUImGuiWindow@@XZ 000000001009bd50     imgui.obj
 0001:0009ada0       ?ClosePopupsOverWindow@ImGui@@YAXPAUImGuiWindow@@_N@Z 000000001009bda0     imgui.obj
 0001:0009ae60       ?UpdateHoveredWindowAndCaptureFlags@ImGui@@YAXXZ 000000001009be60     imgui.obj
 0001:0009b370       ?NewFrame@ImGui@@YAXXZ     000000001009c370     imgui.obj
 0001:0009f360       ?FocusTopMostWindowUnderOne@ImGui@@YAXPAUImGuiWindow@@0@Z 00000000100a0360     imgui.obj
 0001:0009f590       ?Begin@ImGui@@YA_NPBDHPA_NH@Z 00000000100a0590     imgui.obj
 0001:000a3380       ?Clear@?$ImPool@UImGuiTabBar@@@@QAEXXZ 00000000100a4380     imgui.obj
 0001:000a3550       ?FlattenIntoSingleLayer@ImDrawDataBuilder@@QAEXXZ 00000000100a4550     imgui.obj
 0001:000a36b0       ?PopClipRect@ImGui@@YAXXZ  00000000100a46b0     imgui.obj
 0001:000a36f0       ?EndFrame@ImGui@@YAXXZ     00000000100a46f0     imgui.obj
 0001:000a42e0       ?End@ImGui@@YAXXZ          00000000100a52e0     imgui.obj
 0001:000a43e0       ?SetTooltip@ImGui@@YAXPBDZZ 00000000100a53e0     imgui.obj
 0001:000a4550       ?Render@ImGui@@YAXXZ       00000000100a5550     imgui.obj
 0001:000a4850       ?Clear@ImDrawDataBuilder@@QAEXXZ 00000000100a5850     imgui.obj
 0001:000a4a20       ?CalcTypematicRepeatAmount@ImGui@@YAHMMMM@Z 00000000100a5a20     imgui.obj
 0001:000a4aa0       ?IsKeyPressed@ImGui@@YA_NH_N@Z 00000000100a5aa0     imgui.obj
 0001:000a4b60       ?IsMouseClicked@ImGui@@YA_NH_N@Z 00000000100a5b60     imgui.obj
 0001:000a4c10       ?IsMouseDragging@ImGui@@YA_NHM@Z 00000000100a5c10     imgui.obj
 0001:000a4c50       ?GetMousePos@ImGui@@YA?AUImVec2@@XZ 00000000100a5c50     imgui.obj
 0001:000a4c70       ?IsAnyMouseDown@ImGui@@YA_NXZ 00000000100a5c70     imgui.obj
 0001:000a4cb0       ?GetMouseCursor@ImGui@@YAHXZ 00000000100a5cb0     imgui.obj
 0001:000a4cc0       ?IsItemActive@ImGui@@YA_NXZ 00000000100a5cc0     imgui.obj
 0001:000a4cf0       ?SetItemAllowOverlap@ImGui@@YAXXZ 00000000100a5cf0     imgui.obj
 0001:000a4d30       ?BeginChildEx@ImGui@@YA_NPBDIABUImVec2@@_NH@Z 00000000100a5d30     imgui.obj
 0001:000a5100       ?EndChild@ImGui@@YAXXZ     00000000100a6100     imgui.obj
 0001:000a53c0       ?ItemSize@ImGui@@YAXABUImVec2@@M@Z 00000000100a63c0     imgui.obj
 0001:000a5590       ?ItemAdd@ImGui@@YA_NABUImRect@@IPBU2@@Z 00000000100a6590     imgui.obj
 0001:000a5980       ?FindWindowByName@ImGui@@YAPAUImGuiWindow@@PBD@Z 00000000100a6980     imgui.obj
 0001:000a5a40       ?CalcWindowExpectedSize@ImGui@@YA?AUImVec2@@PAUImGuiWindow@@@Z 00000000100a6a40     imgui.obj
 0001:000a5fa0       ?BeginForFuckingColorPicker@ImGui@@YA_NPBDHPA_NH@Z 00000000100a6fa0     imgui.obj
 0001:000a8eb0       ?FindBestWindowPosForPopup@ImGui@@YA?AUImVec2@@PAUImGuiWindow@@@Z 00000000100a9eb0     imgui.obj
 0001:000aa800       ?LogFinish@ImGui@@YAXXZ    00000000100ab800     imgui.obj
 0001:000aa900       ?PushFont@ImGui@@YAXPAUImFont@@@Z 00000000100ab900     imgui.obj
 0001:000aaa90       ?PopFont@ImGui@@YAXXZ      00000000100aba90     imgui.obj
 0001:000aab80       ?GetWindowPos@ImGui@@YA?AUImVec2@@XZ 00000000100abb80     imgui.obj
 0001:000aaba0       ?SetWindowSize@ImGui@@YAXABUImVec2@@H@Z 00000000100abba0     imgui.obj
 0001:000aac40       ?SetNextWindowPos@ImGui@@YAXABUImVec2@@H0@Z 00000000100abc40     imgui.obj
 0001:000aac90       ?SetNextWindowSizeConstraints@ImGui@@YAXABUImVec2@@0P6AXPAUImGuiSizeCallbackData@@@ZPAX@Z 00000000100abc90     imgui.obj
 0001:000aacf0       ?GetWindowDrawList@ImGui@@YAPAUImDrawList@@XZ 00000000100abcf0     imgui.obj
 0001:000aad10       ?SetItemDefaultFocus@ImGui@@YAXXZ 00000000100abd10     imgui.obj
 0001:000aadf0       ?SetScrollHereY@ImGui@@YAXM@Z 00000000100abdf0     imgui.obj
 0001:000aaf50       ?PushID@ImGui@@YAXPBD@Z    00000000100abf50     imgui.obj
 0001:000ab0b0       ?PushID@ImGui@@YAXPBX@Z    00000000100ac0b0     imgui.obj
 0001:000ab200       ?PushID@ImGui@@YAXH@Z      00000000100ac200     imgui.obj
 0001:000ab370       ?PopID@ImGui@@YAXXZ        00000000100ac370     imgui.obj
 0001:000ab390       ?SameLine@ImGui@@YAXMM@Z   00000000100ac390     imgui.obj
 0001:000ab450       ?ItemSize@ImGui@@YAXABUImRect@@M@Z 00000000100ac450     imgui.obj
 0001:000ab4b0       ?GetCursorScreenPos@ImGui@@YA?AUImVec2@@XZ 00000000100ac4b0     imgui.obj
 0001:000ab4d0       ?SetCursorScreenPos@ImGui@@YAXABUImVec2@@@Z 00000000100ac4d0     imgui.obj
 0001:000ab550       ?SetCursorPos@ImGui@@YAXABUImVec2@@@Z 00000000100ac550     imgui.obj
 0001:000ab5d0       ?SetCursorPosX@ImGui@@YAXM@Z 00000000100ac5d0     imgui.obj
 0001:000ab630       ?PushItemWidth@ImGui@@YAXM@Z 00000000100ac630     imgui.obj
 0001:000ab740       ?PopItemWidth@ImGui@@YAXXZ 00000000100ac740     imgui.obj
 0001:000ab790       ?CalcItemWidth@ImGui@@YAMXZ 00000000100ac790     imgui.obj
 0001:000ab810       ?CalcItemSize@ImGui@@YA?AUImVec2@@U2@MM@Z 00000000100ac810     imgui.obj
 0001:000ab8e0       ?GetTextLineHeight@ImGui@@YAMXZ 00000000100ac8e0     imgui.obj
 0001:000ab8f0       ?GetFrameHeight@ImGui@@YAMXZ 00000000100ac8f0     imgui.obj
 0001:000ab920       ?BeginGroup@ImGui@@YAXXZ   00000000100ac920     imgui.obj
 0001:000abad0       ?EndGroup@ImGui@@YAXXZ     00000000100acad0     imgui.obj
 0001:000abf00       ?ScrollToBringRectIntoView@ImGui@@YA?AUImVec2@@PAUImGuiWindow@@ABUImRect@@@Z 00000000100acf00     imgui.obj
 0001:000ac1e0       ?GetScrollMaxY@ImGui@@YAMXZ 00000000100ad1e0     imgui.obj
 0001:000ac1f0       ?SetScrollY@ImGui@@YAXPAUImGuiWindow@@M@Z 00000000100ad1f0     imgui.obj
 0001:000ac210       ?BeginTooltipEx@ImGui@@YAXHH@Z 00000000100ad210     imgui.obj
 0001:000ac410       ?EndTooltip@ImGui@@YAXXZ   00000000100ad410     imgui.obj
 0001:000ac420       ?OpenPopup@ImGui@@YAXPBDH@Z 00000000100ad420     imgui.obj
 0001:000ac4d0       ?OpenPopupEx@ImGui@@YAXIH@Z 00000000100ad4d0     imgui.obj
 0001:000aca00       ?ClosePopupToLevel@ImGui@@YAXH_N@Z 00000000100ada00     imgui.obj
 0001:000acb40       ?CloseCurrentPopup@ImGui@@YAXXZ 00000000100adb40     imgui.obj
 0001:000acbf0       ?BeginPopupEx@ImGui@@YA_NIH@Z 00000000100adbf0     imgui.obj
 0001:000acce0       ?EndPopup@ImGui@@YAXXZ     00000000100adce0     imgui.obj
 0001:000acd30       ?BeginPopup@ImGui@@YA_NPBDH@Z 00000000100add30     imgui.obj
 0001:000acdf0       ?OpenPopupContextItem@ImGui@@YA_NPBDH@Z 00000000100addf0     imgui.obj
 0001:000aced0       ?FindBestWindowPosForPopupEx@ImGui@@YA?AUImVec2@@ABU2@0PAHABUImRect@@2W4ImGuiPopupPositionPolicy@@@Z 00000000100aded0     imgui.obj
 0001:000ad3f0       ?GetWindowAllowedExtentRect@ImGui@@YA?AUImRect@@PAUImGuiWindow@@@Z 00000000100ae3f0     imgui.obj
 0001:000ad430       ?SetNavID@ImGui@@YAXIHI@Z  00000000100ae430     imgui.obj
 0001:000ad460       ?SetFocusID@ImGui@@YAXIPAUImGuiWindow@@@Z 00000000100ae460     imgui.obj
 0001:000ad4f0       ?GetNavInputAmount@ImGui@@YAMHW4ImGuiInputReadMode@@@Z 00000000100ae4f0     imgui.obj
 0001:000ad6a0       ?GetNavInputAmount2d@ImGui@@YA?AUImVec2@@HW4ImGuiInputReadMode@@MM@Z 00000000100ae6a0     imgui.obj
 0001:000ad8c0       ?BeginDragDropSource@ImGui@@YA_NH@Z 00000000100ae8c0     imgui.obj
 0001:000adbd0       ?EndDragDropSource@ImGui@@YAXXZ 00000000100aebd0     imgui.obj
 0001:000adca0       ?SetDragDropPayload@ImGui@@YA_NPBDPBXIH@Z 00000000100aeca0     imgui.obj
 0001:000ade80       ?BeginDragDropTarget@ImGui@@YA_NXZ 00000000100aee80     imgui.obj
 0001:000adf10       ?AcceptDragDropPayload@ImGui@@YAPBUImGuiPayload@@PBDH@Z 00000000100aef10     imgui.obj
 0001:000ae1e0       ?EndDragDropTarget@ImGui@@YAXXZ 00000000100af1e0     imgui.obj
 0001:000ae1f0       ?LogText@ImGui@@YAXPBDZZ   00000000100af1f0     imgui.obj
 0001:000ae320       ?CreateNewWindowSettings@ImGui@@YAPAUImGuiWindowSettings@@PBD@Z 00000000100af320     imgui.obj
 0001:000ae530       ?LoadIniSettingsFromMemory@ImGui@@YAXPBDI@Z 00000000100af530     imgui.obj
 0001:000ae8f0       ?SaveIniSettingsToMemory@ImGui@@YAPBDPAI@Z 00000000100af8f0     imgui.obj
 0001:000aeab0       ??1ImGuiInputTextState@@QAE@XZ 00000000100afab0     imgui.obj
 0001:000aebd0       ??1?$ImPool@UImGuiTabBar@@@@QAE@XZ 00000000100afbd0     imgui.obj
 0001:000aecd0       ??1ImDrawDataBuilder@@QAE@XZ 00000000100afcd0     imgui.obj
 0001:000aed90       ??1ImGuiIO@@QAE@XZ         00000000100afd90     imgui.obj
 0001:000aeee0       ?push_front@?$ImVector@PAUImGuiWindow@@@@QAEXABQAUImGuiWindow@@@Z 00000000100afee0     imgui.obj
 0001:000af640       _sscanf                    00000000100b0640     imgui.obj
 0001:000af690       ___local_stdio_scanf_options 00000000100b0690     imgui.obj
 0001:000af740       ?StyleColorsDark@ImGui@@YAXPAUImGuiStyle@@@Z 00000000100b0740     imgui_draw.obj
 0001:000afa10       ?StyleColorsClassic@ImGui@@YAXPAUImGuiStyle@@@Z 00000000100b0a10     imgui_draw.obj
 0001:000afce0       ??0ImDrawListSharedData@@QAE@XZ 00000000100b0ce0     imgui_draw.obj
 0001:000afdc0       ?SetCircleSegmentMaxError@ImDrawListSharedData@@QAEXM@Z 00000000100b0dc0     imgui_draw.obj
 0001:000afe80       ?_ResetForNewFrame@ImDrawList@@QAEXXZ 00000000100b0e80     imgui_draw.obj
 0001:000b0120       ?Clear@ImDrawList@@QAEXXZ  00000000100b1120     imgui_draw.obj
 0001:000b03b0       ?_ClearFreeMemory@ImDrawList@@QAEXXZ 00000000100b13b0     imgui_draw.obj
 0001:000b04c0       ?ClearFreeMemory@ImDrawListSplitter@@QAEXXZ 00000000100b14c0     imgui_draw.obj
 0001:000b05a0       ?AddDrawCmd@ImDrawList@@QAEXXZ 00000000100b15a0     imgui_draw.obj
 0001:000b0690       ?_PopUnusedDrawCmd@ImDrawList@@QAEXXZ 00000000100b1690     imgui_draw.obj
 0001:000b06c0       ?PushClipRect@ImDrawList@@QAEXUImVec2@@0_N@Z 00000000100b16c0     imgui_draw.obj
 0001:000b0890       ?PushClipRectFullScreen@ImDrawList@@QAEXXZ 00000000100b1890     imgui_draw.obj
 0001:000b08b0       ?PopClipRect@ImDrawList@@QAEXXZ 00000000100b18b0     imgui_draw.obj
 0001:000b0960       ?PushTextureID@ImDrawList@@QAEXPAX@Z 00000000100b1960     imgui_draw.obj
 0001:000b0a50       ?PopTextureID@ImDrawList@@QAEXXZ 00000000100b1a50     imgui_draw.obj
 0001:000b0ae0       ?PrimReserve@ImDrawList@@QAEXHH@Z 00000000100b1ae0     imgui_draw.obj
 0001:000b0c40       ?AddPolyline@ImDrawList@@QAEXPBUImVec2@@HI_NM@Z 00000000100b1c40     imgui_draw.obj
 0001:000b1800       ?AddConvexPolyFilled@ImDrawList@@QAEXPBUImVec2@@HI@Z 00000000100b2800     imgui_draw.obj
 0001:000b1d00       ?PathArcToFast@ImDrawList@@QAEXABUImVec2@@MHH@Z 00000000100b2d00     imgui_draw.obj
 0001:000b1f10       ?PathArcTo@ImDrawList@@QAEXABUImVec2@@MMMH@Z 00000000100b2f10     imgui_draw.obj
 0001:000b2190       ?PathRect@ImDrawList@@QAEXABUImVec2@@0MH@Z 00000000100b3190     imgui_draw.obj
 0001:000b25c0       ?AddLine@ImDrawList@@QAEXABUImVec2@@0IM@Z 00000000100b35c0     imgui_draw.obj
 0001:000b2790       ?AddRect@ImDrawList@@QAEXABUImVec2@@0IMHM@Z 00000000100b3790     imgui_draw.obj
 0001:000b2890       ?AddRectFilled@ImDrawList@@QAEXABUImVec2@@0IMH@Z 00000000100b3890     imgui_draw.obj
 0001:000b29f0       ?AddRectFilledMultiColor@ImDrawList@@QAEXABUImVec2@@0IIII@Z 00000000100b39f0     imgui_draw.obj
 0001:000b2b50       ?AddTriangle@ImDrawList@@QAEXABUImVec2@@00IM@Z 00000000100b3b50     imgui_draw.obj
 0001:000b2d30       ?AddTriangleFilled@ImDrawList@@QAEXABUImVec2@@00I@Z 00000000100b3d30     imgui_draw.obj
 0001:000b2ef0       ?AddCircle@ImDrawList@@QAEXABUImVec2@@MIHM@Z 00000000100b3ef0     imgui_draw.obj
 0001:000b3070       ?AddCircleFilled@ImDrawList@@QAEXABUImVec2@@MIH@Z 00000000100b4070     imgui_draw.obj
 0001:000b31d0       ?AddTextOutline@ImDrawList@@QAEXPBUImFont@@MABUImVec2@@IPBD2M@Z 00000000100b41d0     imgui_draw.obj
 0001:000b39d0       ?AddText@ImDrawList@@QAEXPBUImFont@@MABUImVec2@@IPBD2MPBUImVec4@@@Z 00000000100b49d0     imgui_draw.obj
 0001:000b3b20       ?RenderText@ImFont@@QBEXPAUImDrawList@@MUImVec2@@IABUImVec4@@PBD3M_N@Z 00000000100b4b20     imgui_draw.obj
 0001:000b42f0       ?AddText@ImDrawList@@QAEXABUImVec2@@IPBD1@Z 00000000100b52f0     imgui_draw.obj
 0001:000b43b0       ?AddImage@ImDrawList@@QAEXPAXABUImVec2@@111I@Z 00000000100b53b0     imgui_draw.obj
 0001:000b46b0       ?Merge@ImDrawListSplitter@@QAEXPAUImDrawList@@@Z 00000000100b56b0     imgui_draw.obj
 0001:000b4be0       ?SetCurrentChannel@ImDrawListSplitter@@QAEXPAUImDrawList@@H@Z 00000000100b5be0     imgui_draw.obj
 0001:000b4cc0       ??0ImFontConfig@@QAE@XZ    00000000100b5cc0     imgui_draw.obj
 0001:000b4d40       ??0ImFontAtlas@@QAE@XZ     00000000100b5d40     imgui_draw.obj
 0001:000b4da0       ?ClearTexData@ImFontAtlas@@QAEXXZ 00000000100b5da0     imgui_draw.obj
 0001:000b4de0       ?GetTexDataAsAlpha8@ImFontAtlas@@QAEXPAPAEPAH11@Z 00000000100b5de0     imgui_draw.obj
 0001:000b4f60       ?GetTexDataAsRGBA32@ImFontAtlas@@QAEXPAPAEPAH11@Z 00000000100b5f60     imgui_draw.obj
 0001:000b5170       ?AddFont@ImFontAtlas@@QAEPAUImFont@@PBUImFontConfig@@@Z 00000000100b6170     imgui_draw.obj
 0001:000b53e0       ??0ImFont@@QAE@XZ          00000000100b63e0     imgui_draw.obj
 0001:000b5440       ?GetGlyphRangesDefault@ImFontAtlas@@QAEPBGXZ 00000000100b6440     imgui_draw.obj
 0001:000b5450       ?AddFontFromMemoryCompressedBase85TTF@ImFontAtlas@@QAEPAUImFont@@PBDMPBUImFontConfig@@PBG@Z 00000000100b6450     imgui_draw.obj
 0001:000b5560       ?AddFontFromFileTTF@ImFontAtlas@@QAEPAUImFont@@PBDMPBUImFontConfig@@PBG@Z 00000000100b6560     imgui_draw.obj
 0001:000b57e0       ?AddFontFromMemoryTTF@ImFontAtlas@@QAEPAUImFont@@PAXHMPBUImFontConfig@@PBG@Z 00000000100b67e0     imgui_draw.obj
 0001:000b5930       ?AddFontFromMemoryCompressedTTF@ImFontAtlas@@QAEPAUImFont@@PBXHMPBUImFontConfig@@PBG@Z 00000000100b6930     imgui_draw.obj
 0001:000b6a20       ?ImFontAtlasBuildWithStbTruetype@@YA_NPAUImFontAtlas@@@Z 00000000100b7a20     imgui_draw.obj
 0001:000bd620       ?ImFontAtlasBuildMultiplyCalcLookupTable@@YAXQAEM@Z 00000000100be620     imgui_draw.obj
 0001:000bea70       ?ImFontAtlasBuildInit@@YAXPAUImFontAtlas@@@Z 00000000100bfa70     imgui_draw.obj
 0001:000bf1b0       ?ImFontAtlasBuildPackCustomRects@@YAXPAUImFontAtlas@@PAX@Z 00000000100c01b0     imgui_draw.obj
 0001:000bf9e0       ?ImFontAtlasBuildSetupFont@@YAXPAUImFontAtlas@@PAUImFont@@PAUImFontConfig@@MM@Z 00000000100c09e0     imgui_draw.obj
 0001:000bfaf0       ?AddGlyph@ImFont@@QAEXPAUImFontConfig@@GMMMMMMMMM@Z 00000000100c0af0     imgui_draw.obj
 0001:000bfd40       ?ImFontAtlasBuildFinish@@YAXPAUImFontAtlas@@@Z 00000000100c0d40     imgui_draw.obj
 0001:000c03a0       ?BuildLookupTable@ImFont@@QAEXXZ 00000000100c13a0     imgui_draw.obj
 0001:000c0850       ?GetGlyphRangesCyrillic@ImFontAtlas@@QAEPBGXZ 00000000100c1850     imgui_draw.obj
 0001:000c0860       ??1ImFont@@QAE@XZ          00000000100c1860     imgui_draw.obj
 0001:000c0a10       ?GrowIndex@ImFont@@QAEXH@Z 00000000100c1a10     imgui_draw.obj
 0001:000c0c10       ?FindGlyph@ImFont@@QBEPBUImFontGlyph@@G@Z 00000000100c1c10     imgui_draw.obj
 0001:000c0c40       ?CalcWordWrapPositionA@ImFont@@QBEPBDMPBD0M@Z 00000000100c1c40     imgui_draw.obj
 0001:000c0e00       ?CalcTextSizeA@ImFont@@QBE?AUImVec2@@MMMPBD0PAPBD@Z 00000000100c1e00     imgui_draw.obj
 0001:000c10b0       ?RenderArrow@ImGui@@YAXPAUImDrawList@@UImVec2@@IHM@Z 00000000100c20b0     imgui_draw.obj
 0001:000c11e0       ?RenderMouseCursor@ImGui@@YAXPAUImDrawList@@UImVec2@@MHIII@Z 00000000100c21e0     imgui_draw.obj
 0001:000c1540       ?RenderArrowPointingAt@ImGui@@YAXPAUImDrawList@@UImVec2@@1HI@Z 00000000100c2540     imgui_draw.obj
 0001:000c1640       ?RenderColorRectWithAlphaCheckerboard@ImGui@@YAXPAUImDrawList@@UImVec2@@1IM1MH@Z 00000000100c2640     imgui_draw.obj
 0001:000c4ce0       ?ImFontAtlasBuildWithFreeType@@YA_NPAUFT_LibraryRec_@@PAUImFontAtlas@@I@Z 00000000100c5ce0     imgui_freetype.obj
 0001:000c6f20       ?BuildFontAtlas@ImGuiFreeType@@YA_NPAUImFontAtlas@@I@Z 00000000100c7f20     imgui_freetype.obj
 0001:000c70a0       ?ImGui_ImplDX9_RenderDrawData@@YAXPAUImDrawData@@@Z 00000000100c80a0     imgui_impl_dx9.obj
 0001:000c7910       ?ImGui_ImplDX9_Init@@YA_NPAUIDirect3DDevice9@@@Z 00000000100c8910     imgui_impl_dx9.obj
 0001:000c7940       ?ImGui_ImplDX9_InvalidateDeviceObjects@@YAXXZ 00000000100c8940     imgui_impl_dx9.obj
 0001:000c79b0       ?ImGui_ImplDX9_CreateDeviceObjects@@YA_NXZ 00000000100c89b0     imgui_impl_dx9.obj
 0001:000c7ae0       ?ImGui_ImplDX9_NewFrame@@YAXXZ 00000000100c8ae0     imgui_impl_dx9.obj
 0001:000c7af0       ?ImGui_ImplWin32_Init@@YA_NPAX@Z 00000000100c8af0     imgui_impl_win32.obj
 0001:000c7b90       ?ImGui_ImplWin32_NewFrame@@YAXXZ 00000000100c8b90     imgui_impl_win32.obj
 0001:000c80c0       ?ImGui_ImplWin32_WndProcHandler@@YAJPAUHWND__@@IIJ@Z 00000000100c90c0     imgui_impl_win32.obj
 0001:000c82f0       ?TextEx@ImGui@@YAXPBD0H@Z  00000000100c92f0     imgui_widgets.obj
 0001:000c87c0       ?Text@ImGui@@YAXPBDZZ      00000000100c97c0     imgui_widgets.obj
 0001:000c8830       ?TextV@ImGui@@YAXPBDPAD@Z  00000000100c9830     imgui_widgets.obj
 0001:000c8880       ?TextColored@ImGui@@YAXABUImVec4@@PBDZZ 00000000100c9880     imgui_widgets.obj
 0001:000c8910       ?ButtonBehavior@ImGui@@YA_NABUImRect@@IPA_N1H@Z 00000000100c9910     imgui_widgets.obj
 0001:000c8fd0       ?ButtonEx@ImGui@@YA_NPBDABUImVec2@@H@Z 00000000100c9fd0     imgui_widgets.obj
 0001:000c92f0       ?Button@ImGui@@YA_NPBDABUImVec2@@@Z 00000000100ca2f0     imgui_widgets.obj
 0001:000c9310       ?InvisibleButton@ImGui@@YA_NPBDABUImVec2@@H@Z 00000000100ca310     imgui_widgets.obj
 0001:000c9420       ?CloseButton@ImGui@@YA_NIABUImVec2@@@Z 00000000100ca420     imgui_widgets.obj
 0001:000c9690       ?CollapseButton@ImGui@@YA_NIABUImVec2@@@Z 00000000100ca690     imgui_widgets.obj
 0001:000c9890       ?Checkbox@ImGui@@YA_NPBDPA_NM@Z 00000000100ca890     imgui_widgets.obj
 0001:000ca710       ?RadioButton@ImGui@@YA_NPBD_N@Z 00000000100cb710     imgui_widgets.obj
 0001:000cab10       ?SeparatorEx@ImGui@@YAXH@Z 00000000100cbb10     imgui_widgets.obj
 0001:000cae30       ?BeginCombo@ImGui@@YA_NPBD0AAHH@Z 00000000100cbe30     imgui_widgets.obj
 0001:000cb5a0       ?EndCombo@ImGui@@YAXXZ     00000000100cc5a0     imgui_widgets.obj
 0001:000cb5b0       ?Selectable@ImGui@@YA_NPBDH_NHABUImVec2@@@Z 00000000100cc5b0     imgui_widgets.obj
 0001:000cbbb0       ?Combo@ImGui@@YA_NPBDPAHAAH2QBQBDHH@Z 00000000100ccbb0     imgui_widgets.obj
 0001:000cbd60       ?DataTypeFormatString@ImGui@@YAHPADHHPBXPBD@Z 00000000100ccd60     imgui_widgets.obj
 0001:000cbe00       ?DataTypeApplyOpFromText@ImGui@@YA_NPBD0HPAX0@Z 00000000100cce00     imgui_widgets.obj
 0001:000cc2c0       ?DataTypeClamp@ImGui@@YA_NHPAXPBX1@Z 00000000100cd2c0     imgui_widgets.obj
 0001:000cc460       ?DragBehavior@ImGui@@YA_NIHPAXMPBX1PBDH@Z 00000000100cd460     imgui_widgets.obj
 0001:000cc910       ??$DragBehaviorT@HHM@ImGui@@YA_NHPAHMHHPBDH@Z 00000000100cd910     imgui_widgets.obj
 0001:000cce20       ??$DragBehaviorT@IHM@ImGui@@YA_NHPAIMIIPBDH@Z 00000000100cde20     imgui_widgets.obj
 0001:000cd610       ??$DragBehaviorT@_J_JN@ImGui@@YA_NHPA_JM_J1PBDH@Z 00000000100ce610     imgui_widgets.obj
 0001:000cdd20       ??$DragBehaviorT@_K_JN@ImGui@@YA_NHPA_KM_K1PBDH@Z 00000000100ced20     imgui_widgets.obj
 0001:000ce820       ??$DragBehaviorT@MMM@ImGui@@YA_NHPAMMMMPBDH@Z 00000000100cf820     imgui_widgets.obj
 0001:000cedf0       ??$DragBehaviorT@NNN@ImGui@@YA_NHPANMNNPBDH@Z 00000000100cfdf0     imgui_widgets.obj
 0001:000cf3d0       ?DragScalar@ImGui@@YA_NPBDHPAXMPBX20H@Z 00000000100d03d0     imgui_widgets.obj
 0001:000cf930       ?TempInputScalar@ImGui@@YA_NABUImRect@@IPBDHPAX1PBX3@Z 00000000100d0930     imgui_widgets.obj
 0001:000cfb70       ?SliderBehavior@ImGui@@YA_NABUImRect@@IHPAXPBX2PBDHPAU2@@Z 00000000100d0b70     imgui_widgets.obj
 0001:000cfde0       ??$SliderBehaviorT@HHM@ImGui@@YA_NABUImRect@@IHPAHHHPBDHPAU1@@Z 00000000100d0de0     imgui_widgets.obj
 0001:000d0720       ??$SliderBehaviorT@IHM@ImGui@@YA_NABUImRect@@IHPAIIIPBDHPAU1@@Z 00000000100d1720     imgui_widgets.obj
 0001:000d1790       ??$SliderBehaviorT@_J_JN@ImGui@@YA_NABUImRect@@IHPA_J_J2PBDHPAU1@@Z 00000000100d2790     imgui_widgets.obj
 0001:000d2160       ??$SliderBehaviorT@_K_JN@ImGui@@YA_NABUImRect@@IHPA_K_K2PBDHPAU1@@Z 00000000100d3160     imgui_widgets.obj
 0001:000d3150       ??$SliderBehaviorT@MMM@ImGui@@YA_NABUImRect@@IHPAMMMPBDHPAU1@@Z 00000000100d4150     imgui_widgets.obj
 0001:000d3b30       ??$SliderBehaviorT@NNN@ImGui@@YA_NABUImRect@@IHPANNNPBDHPAU1@@Z 00000000100d4b30     imgui_widgets.obj
 0001:000d44f0       ?SliderScalar@ImGui@@YA_NPBDHPAXPBX20H@Z 00000000100d54f0     imgui_widgets.obj
 0001:000d4d90       ?SliderFloat@ImGui@@YA_NPBDPAMMM0H@Z 00000000100d5d90     imgui_widgets.obj
 0001:000d4de0       ?SliderInt@ImGui@@YA_NPBDPAHHH0H@Z 00000000100d5de0     imgui_widgets.obj
 0001:000d4e30       ?ImParseFormatPrecision@@YAHPBDH@Z 00000000100d5e30     imgui_widgets.obj
 0001:000d4f50       ?InputTextEx@ImGui@@YA_NPBD0PADHABUImVec2@@HP6AHPAUImGuiInputTextCallbackData@@@ZPAX@Z 00000000100d5f50     imgui_widgets.obj
 0001:000d7ef0       ?OnKeyPressed@ImGuiInputTextState@@QAEXH@Z 00000000100d8ef0     imgui_widgets.obj
 0001:000d9090       ?resize@?$ImVector@G@@QAEXH@Z 00000000100da090     imgui_widgets.obj
 0001:000d93b0       ?ColorEdit4@ImGui@@YA_NPBDQAMH@Z 00000000100da3b0     imgui_widgets.obj
 0001:000da160       ?ColorEditOptionsPopup@ImGui@@YAXPBMH@Z 00000000100db160     imgui_widgets.obj
 0001:000da5c0       ?ColorButton@ImGui@@YA_NPBDABUImVec4@@HUImVec2@@@Z 00000000100db5c0     imgui_widgets.obj
 0001:000dab30       ?ColorPicker4@ImGui@@YA_NPBDQAMHPBM@Z 00000000100dbb30     imgui_widgets.obj
 0001:000dbb70       ?ColorPickerOptionsPopup@ImGui@@YAXPBMH@Z 00000000100dcb70     imgui_widgets.obj
 0001:000dbe70       ?ColorTooltip@ImGui@@YAXPBDPBMH@Z 00000000100dce70     imgui_widgets.obj
 0001:000dc1f0       ?Selectable@ImGui@@YA_NPBDHPA_NHABUImVec2@@@Z 00000000100dd1f0     imgui_widgets.obj
 0001:000dc220       ??0ImGuiMenuColumns@@QAE@XZ 00000000100dd220     imgui_widgets.obj
 0001:000dc240       ?Update@ImGuiMenuColumns@@QAEXHM_N@Z 00000000100dd240     imgui_widgets.obj
 0001:000dc300       ?SetColumnOffset@ImGui@@YAXHM@Z 00000000100dd300     imgui_widgets.obj
 0001:000dc420       ?EndColumns@ImGui@@YAXXZ   00000000100dd420     imgui_widgets.obj
 0001:000dc880       ??$_Erase_tree@V?$allocator@U?$_Tree_node@U?$pair@$$CBIUImVec4@@@std@@PAX@std@@@std@@@?$_Tree_val@U?$_Tree_simple_types@U?$pair@$$CBIUImVec4@@@std@@@std@@@std@@QAEXAAV?$allocator@U?$_Tree_node@U?$pair@$$CBIUImVec4@@@std@@PAX@std@@@1@PAU?$_Tree_node@U?$pair@$$CBIUImVec4@@@std@@PAX@1@@Z 00000000100dd880     imgui_widgets.obj
 0001:000dc8d0       ??$_Erase_tree@V?$allocator@U?$_Tree_node@U?$pair@$$CBIUslider_anim@@@std@@PAX@std@@@std@@@?$_Tree_val@U?$_Tree_simple_types@U?$pair@$$CBIUslider_anim@@@std@@@std@@@std@@QAEXAAV?$allocator@U?$_Tree_node@U?$pair@$$CBIUslider_anim@@@std@@PAX@std@@@1@PAU?$_Tree_node@U?$pair@$$CBIUslider_anim@@@std@@PAX@1@@Z 00000000100dd8d0     imgui_widgets.obj
 0001:000dd5a0       ??$ScaleRatioFromValueT@HM@ImGui@@YAMHHHH_NMM@Z 00000000100de5a0     imgui_widgets.obj
 0001:000dd8c0       ??$ScaleValueFromRatioT@HM@ImGui@@YAHHMHH_NMM@Z 00000000100de8c0     imgui_widgets.obj
 0001:000ddb80       ??$RoundScalarWithFormatT@HH@ImGui@@YAHPBDHH@Z 00000000100deb80     imgui_widgets.obj
 0001:000ddc80       ??$RoundScalarWithFormatT@IH@ImGui@@YAIPBDHI@Z 00000000100dec80     imgui_widgets.obj
 0001:000ddda0       ??$ScaleRatioFromValueT@_JN@ImGui@@YAMH_J00_NMM@Z 00000000100deda0     imgui_widgets.obj
 0001:000de2b0       ??$ScaleValueFromRatioT@_JN@ImGui@@YA_JHM_J0_NMM@Z 00000000100df2b0     imgui_widgets.obj
 0001:000de870       ??$RoundScalarWithFormatT@_J_J@ImGui@@YA_JPBDH_J@Z 00000000100df870     imgui_widgets.obj
 0001:000de9d0       ??$ScaleValueFromRatioT@_KN@ImGui@@YA_KHM_K0_NMM@Z 00000000100df9d0     imgui_widgets.obj
 0001:000ded10       ??$RoundScalarWithFormatT@_K_J@ImGui@@YA_KPBDH_K@Z 00000000100dfd10     imgui_widgets.obj
 0001:000deea0       ??$ScaleRatioFromValueT@MM@ImGui@@YAMHMMM_NMM@Z 00000000100dfea0     imgui_widgets.obj
 0001:000df260       ??$ScaleValueFromRatioT@MM@ImGui@@YAMHMMM_NMM@Z 00000000100e0260     imgui_widgets.obj
 0001:000df570       ??$RoundScalarWithFormatT@MM@ImGui@@YAMPBDHM@Z 00000000100e0570     imgui_widgets.obj
 0001:000df6b0       ??$ScaleRatioFromValueT@NN@ImGui@@YAMHNNN_NMM@Z 00000000100e06b0     imgui_widgets.obj
 0001:000dfa80       ??$ScaleValueFromRatioT@NN@ImGui@@YANHMNN_NMM@Z 00000000100e0a80     imgui_widgets.obj
 0001:000dfd80       ??$RoundScalarWithFormatT@NN@ImGui@@YANPBDHN@Z 00000000100e0d80     imgui_widgets.obj
 0001:000dff60       ?work_loop@thread_t@c_thread_pool@sdk@@SAXVstop_token@std@@@Z 00000000100e0f60     thread_pool.obj
 0001:000e01cc       _MH_Initialize@0           00000000100e11cc     minhook_x86_v143_md:hook.obj
 0001:000e02ef       _MH_CreateHook@12          00000000100e12ef     minhook_x86_v143_md:hook.obj
 0001:000e09a1       _MH_EnableHook@4           00000000100e19a1     minhook_x86_v143_md:hook.obj
 0001:000e0aa8       _AllocateBuffer            00000000100e1aa8     minhook_x86_v143_md:buffer.obj
 0001:000e0b1c       _FreeBuffer                00000000100e1b1c     minhook_x86_v143_md:buffer.obj
 0001:000e0b79       _IsExecutableAddress       00000000100e1b79     minhook_x86_v143_md:buffer.obj
 0001:000e0bc4       _CreateTrampolineFunction  00000000100e1bc4     minhook_x86_v143_md:trampoline.obj
 0001:000e0f1c       _hde32_disasm              00000000100e1f1c     minhook_x86_v143_md:hde32.obj
 0001:000e1560       _FT_Add_Default_Modules    00000000100e2560     freetype:ftinit.obj
 0001:000e1890       _FT_New_Memory_Face        00000000100e2890     freetype:ftbase.obj
 0001:000e18e0       _FT_Open_Face              00000000100e28e0     freetype:ftbase.obj
 0001:000e1900       _FT_Done_Face              00000000100e2900     freetype:ftbase.obj
 0001:000e1980       _FT_Select_Size            00000000100e2980     freetype:ftbase.obj
 0001:000e1a70       _FT_Request_Size           00000000100e2a70     freetype:ftbase.obj
 0001:000e1c80       _FT_Load_Glyph             00000000100e2c80     freetype:ftbase.obj
 0001:000e2360       _FT_Render_Glyph           00000000100e3360     freetype:ftbase.obj
 0001:000e2450       _FT_Get_Glyph_Name         00000000100e3450     freetype:ftbase.obj
 0001:000e2500       _FT_Select_Charmap         00000000100e3500     freetype:ftbase.obj
 0001:000e2560       _FT_Set_Charmap            00000000100e3560     freetype:ftbase.obj
 0001:000e25c0       _FT_Get_Char_Index         00000000100e35c0     freetype:ftbase.obj
 0001:000e25f0       _FT_Get_Next_Char          00000000100e35f0     freetype:ftbase.obj
 0001:000e2650       _FT_MulDiv                 00000000100e3650     freetype:ftbase.obj
 0001:000e2720       _FT_DivFix                 00000000100e3720     freetype:ftbase.obj
 0001:000e27c0       _FT_RoundFix               00000000100e37c0     freetype:ftbase.obj
 0001:000e27e0       _FT_Vector_Transform       00000000100e37e0     freetype:ftbase.obj
 0001:000e28f0       _FT_Add_Module             00000000100e38f0     freetype:ftbase.obj
 0001:000e2b80       _FT_Get_Module             00000000100e3b80     freetype:ftbase.obj
 0001:000e2bf0       _FT_Remove_Module          00000000100e3bf0     freetype:ftbase.obj
 0001:000e2d50       _FT_New_Library            00000000100e3d50     freetype:ftbase.obj
 0001:000e2dd0       _FT_Done_Library           00000000100e3dd0     freetype:ftbase.obj
 0001:000e2ee0       _FT_Matrix_Invert          00000000100e3ee0     freetype:ftbase.obj
 0001:000e2fb0       _FT_New_Size               00000000100e3fb0     freetype:ftbase.obj
 0001:000e30d0       _FT_Done_Size              00000000100e40d0     freetype:ftbase.obj
 0001:000e3180       _FT_Activate_Size          00000000100e4180     freetype:ftbase.obj
 0001:000e31b0       _ft_mem_alloc              00000000100e41b0     freetype:ftbase.obj
 0001:000e3210       _ft_mem_qalloc             00000000100e4210     freetype:ftbase.obj
 0001:000e3260       _ft_mem_realloc            00000000100e4260     freetype:ftbase.obj
 0001:000e3360       _ft_mem_qrealloc           00000000100e4360     freetype:ftbase.obj
 0001:000e3450       _ft_mem_free               00000000100e4450     freetype:ftbase.obj
 0001:000e3470       _ft_mem_strdup             00000000100e4470     freetype:ftbase.obj
 0001:000e34f0       _ft_mem_strcpyn            00000000100e44f0     freetype:ftbase.obj
 0001:000e3520       _FT_GlyphLoader_CreateExtra 00000000100e4520     freetype:ftbase.obj
 0001:000e35c0       _FT_GlyphLoader_Reset      00000000100e45c0     freetype:ftbase.obj
 0001:000e3680       _FT_GlyphLoader_Rewind     00000000100e4680     freetype:ftbase.obj
 0001:000e36b0       _FT_GlyphLoader_CheckPoints 00000000100e46b0     freetype:ftbase.obj
 0001:000e3830       _FT_GlyphLoader_CheckSubGlyphs 00000000100e4830     freetype:ftbase.obj
 0001:000e3890       _FT_GlyphLoader_Prepare    00000000100e4890     freetype:ftbase.obj
 0001:000e38f0       _FT_GlyphLoader_Add        00000000100e48f0     freetype:ftbase.obj
 0001:000e3a30       _ft_service_list_lookup    00000000100e4a30     freetype:ftbase.obj
 0001:000e3aa0       _FT_MulDiv_No_Round        00000000100e4aa0     freetype:ftbase.obj
 0001:000e3b60       _FT_Matrix_Multiply_Scaled 00000000100e4b60     freetype:ftbase.obj
 0001:000e3c50       _FT_Vector_Transform_Scaled 00000000100e4c50     freetype:ftbase.obj
 0001:000e3cc0       _FT_Vector_NormLen         00000000100e4cc0     freetype:ftbase.obj
 0001:000e3e50       _ft_corner_orientation     00000000100e4e50     freetype:ftbase.obj
 0001:000e3f80       _ft_corner_is_flat         00000000100e4f80     freetype:ftbase.obj
 0001:000e4040       _FT_MSB                    00000000100e5040     freetype:ftbase.obj
 0001:000e40b0       _FT_Hypot                  00000000100e50b0     freetype:ftbase.obj
 0001:000e4120       _FT_CMap_New               00000000100e5120     freetype:ftbase.obj
 0001:000e4210       _FT_Get_Module_Interface   00000000100e5210     freetype:ftbase.obj
 0001:000e4230       _ft_module_get_service     00000000100e5230     freetype:ftbase.obj
 0001:000e42b0       _FT_New_GlyphSlot          00000000100e52b0     freetype:ftbase.obj
 0001:000e4400       _FT_Done_GlyphSlot         00000000100e5400     freetype:ftbase.obj
 0001:000e4460       _FT_Select_Metrics         00000000100e5460     freetype:ftbase.obj
 0001:000e4500       _FT_Request_Metrics        00000000100e5500     freetype:ftbase.obj
 0001:000e4790       _FT_Match_Size             00000000100e5790     freetype:ftbase.obj
 0001:000e4880       _ft_synthesize_vertical_metrics 00000000100e5880     freetype:ftbase.obj
 0001:000e48e0       _ft_glyphslot_free_bitmap  00000000100e58e0     freetype:ftbase.obj
 0001:000e4930       _ft_glyphslot_preset_bitmap 00000000100e5930     freetype:ftbase.obj
 0001:000e4aa0       _ft_glyphslot_alloc_bitmap 00000000100e5aa0     freetype:ftbase.obj
 0001:000e4b00       _ft_glyphslot_set_bitmap   00000000100e5b00     freetype:ftbase.obj
 0001:000e4b60       _FT_Get_Advance            00000000100e5b60     freetype:ftbase.obj
 0001:000e4f40       _ft_hash_str_init          00000000100e5f40     freetype:ftbase.obj
 0001:000e4fb0       _ft_hash_num_init          00000000100e5fb0     freetype:ftbase.obj
 0001:000e5020       _ft_hash_str_free          00000000100e6020     freetype:ftbase.obj
 0001:000e5080       _ft_hash_str_insert        00000000100e6080     freetype:ftbase.obj
 0001:000e5080       _ft_hash_num_insert        00000000100e6080     freetype:ftbase.obj
 0001:000e5090       _ft_hash_str_lookup        00000000100e6090     freetype:ftbase.obj
 0001:000e5090       _ft_hash_num_lookup        00000000100e6090     freetype:ftbase.obj
 0001:000e5340       _FT_Stream_New             00000000100e6340     freetype:ftbase.obj
 0001:000e5420       _FT_Stream_Free            00000000100e6420     freetype:ftbase.obj
 0001:000e5450       _FT_Stream_OpenMemory      00000000100e6450     freetype:ftbase.obj
 0001:000e5480       _FT_Stream_Close           00000000100e6480     freetype:ftbase.obj
 0001:000e54a0       _FT_Stream_Seek            00000000100e64a0     freetype:ftbase.obj
 0001:000e54e0       _FT_Stream_Skip            00000000100e64e0     freetype:ftbase.obj
 0001:000e5530       _FT_Stream_Pos             00000000100e6530     freetype:ftbase.obj
 0001:000e5540       _FT_Stream_Read            00000000100e6540     freetype:ftbase.obj
 0001:000e55c0       _FT_Stream_ReadAt          00000000100e65c0     freetype:ftbase.obj
 0001:000e5640       _FT_Stream_TryRead         00000000100e6640     freetype:ftbase.obj
 0001:000e56a0       _FT_Stream_EnterFrame      00000000100e66a0     freetype:ftbase.obj
 0001:000e5760       _FT_Stream_ExitFrame       00000000100e6760     freetype:ftbase.obj
 0001:000e57a0       _FT_Stream_ExtractFrame    00000000100e67a0     freetype:ftbase.obj
 0001:000e57d0       _FT_Stream_ReleaseFrame    00000000100e67d0     freetype:ftbase.obj
 0001:000e5810       _FT_Stream_GetChar         00000000100e6810     freetype:ftbase.obj
 0001:000e5830       _FT_Stream_GetUShort       00000000100e6830     freetype:ftbase.obj
 0001:000e5870       _FT_Stream_GetULong        00000000100e6870     freetype:ftbase.obj
 0001:000e58b0       _FT_Stream_GetUShortLE     00000000100e68b0     freetype:ftbase.obj
 0001:000e58f0       _FT_Stream_GetULongLE      00000000100e68f0     freetype:ftbase.obj
 0001:000e5930       _FT_Stream_ReadChar        00000000100e6930     freetype:ftbase.obj
 0001:000e5990       _FT_Stream_ReadUShort      00000000100e6990     freetype:ftbase.obj
 0001:000e5a00       _FT_Stream_ReadUOffset     00000000100e6a00     freetype:ftbase.obj
 0001:000e5a70       _FT_Stream_ReadULong       00000000100e6a70     freetype:ftbase.obj
 0001:000e5af0       _FT_Stream_ReadUShortLE    00000000100e6af0     freetype:ftbase.obj
 0001:000e5b60       _FT_Stream_ReadULongLE     00000000100e6b60     freetype:ftbase.obj
 0001:000e5be0       _FT_Stream_ReadFields      00000000100e6be0     freetype:ftbase.obj
 0001:000e6060       _FT_List_Find              00000000100e7060     freetype:ftbase.obj
 0001:000e6090       _FT_List_Add               00000000100e7090     freetype:ftbase.obj
 0001:000e60c0       _FT_List_Remove            00000000100e70c0     freetype:ftbase.obj
 0001:000e60f0       _FT_List_Iterate           00000000100e70f0     freetype:ftbase.obj
 0001:000e6140       _FT_List_Finalize          00000000100e7140     freetype:ftbase.obj
 0001:000e61a0       _FT_Outline_Decompose      00000000100e71a0     freetype:ftbase.obj
 0001:000e6590       _FT_Outline_Get_CBox       00000000100e7590     freetype:ftbase.obj
 0001:000e6640       _FT_Outline_Translate      00000000100e7640     freetype:ftbase.obj
 0001:000e6680       _FT_Outline_Transform      00000000100e7680     freetype:ftbase.obj
 0001:000e67c0       _FT_Outline_EmboldenXY     00000000100e77c0     freetype:ftbase.obj
 0001:000e6bf0       _FT_Outline_Get_Orientation 00000000100e7bf0     freetype:ftbase.obj
 0001:000e6e10       _ft_validator_init         00000000100e7e10     freetype:ftbase.obj
 0001:000e6e40       _ft_validator_error        00000000100e7e40     freetype:ftbase.obj
 0001:000e6e60       _FT_Raccess_Get_HeaderInfo 00000000100e7e60     freetype:ftbase.obj
 0001:000e7130       _FT_Raccess_Get_DataOffsets 00000000100e8130     freetype:ftbase.obj
 0001:000e7480       _FT_Get_CMap_Format        00000000100e8480     freetype:ftbase.obj
 0001:000e8d60       _ps_property_set           00000000100e9d60     freetype:ftbase.obj
 0001:000e9100       _ps_property_get           00000000100ea100     freetype:ftbase.obj
 0001:000e9680       _FT_GlyphSlot_Embolden     00000000100ea680     freetype:ftsynth.obj
 0001:000e9780       _FT_GlyphSlot_Oblique      00000000100ea780     freetype:ftsynth.obj
 0001:000e97dd       ??2@YAPAXI@Z               00000000100ea7dd     msvcrt:new_scalar.obj
 0001:000e980d       ??3@YAXPAX@Z               00000000100ea80d     msvcrt:delete_scalar.obj
 0001:000e9812       ??3@YAXPAXI@Z              00000000100ea812     msvcrt:delete_scalar_size.obj
 0001:000e9820       ??_Gtype_info@@UAEPAXI@Z   00000000100ea820     msvcrt:std_type_info_static.obj
 0001:000e9820       ??_Gtype_info@@UAEPAXI@Z   00000000100ea820     msvcrt:std_type_info_static.obj
 0001:000e9843       @__security_check_cookie@4 00000000100ea843     msvcrt:secchk.obj
 0001:000e9860       __alldiv                   00000000100ea860     msvcrt:lldiv.obj
 0001:000e9910       __aulldiv                  00000000100ea910     msvcrt:ulldiv.obj
 0001:000e9980       __chkstk                   00000000100ea980     msvcrt:chkstk.obj
 0001:000e9980       __alloca_probe             00000000100ea980     msvcrt:chkstk.obj
 0001:000e99ab       _atexit                    00000000100ea9ab     msvcrt:utility.obj
 0001:000e99c0       __onexit                   00000000100ea9c0     msvcrt:utility.obj
 0001:000e99ed       ___scrt_is_nonwritable_in_current_image 00000000100ea9ed     msvcrt:utility.obj
 0001:000e9a81       ___scrt_acquire_startup_lock 00000000100eaa81     msvcrt:utility.obj
 0001:000e9ab3       ___scrt_release_startup_lock 00000000100eaab3     msvcrt:utility.obj
 0001:000e9ad0       ___scrt_initialize_crt     00000000100eaad0     msvcrt:utility.obj
 0001:000e9b09       ___scrt_uninitialize_crt   00000000100eab09     msvcrt:utility.obj
 0001:000e9b31       ___scrt_initialize_onexit_tables 00000000100eab31     msvcrt:utility.obj
 0001:000e9bb8       ___scrt_dllmain_exception_filter 00000000100eabb8     msvcrt:utility.obj
 0001:000e9bec       ___scrt_dllmain_before_initialize_c 00000000100eabec     msvcrt:utility.obj
 0001:000e9bfa       ___scrt_dllmain_after_initialize_c 00000000100eabfa     msvcrt:utility.obj
 0001:000e9c25       ___scrt_dllmain_uninitialize_c 00000000100eac25     msvcrt:utility.obj
 0001:000e9c48       ___scrt_dllmain_uninitialize_critical 00000000100eac48     msvcrt:utility.obj
 0001:000e9c55       ___scrt_dllmain_crt_thread_attach 00000000100eac55     msvcrt:utility.obj
 0001:000e9c74       ___scrt_dllmain_crt_thread_detach 00000000100eac74     msvcrt:utility.obj
 0001:000e9cc5       ?_Facet_Register@std@@YAXPAV_Facet_base@1@@Z 00000000100eacc5     msvcprt:locale0_implib.obj
 0001:000e9cf1       ??1_Fac_node@std@@QAE@XZ   00000000100eacf1     msvcprt:locale0_implib.obj
 0001:000e9d22       ??1_Fac_tidy_reg_t@std@@QAE@XZ 00000000100ead22     msvcprt:locale0_implib.obj
 0001:000e9d50       ___std_find_trivial_1@12   00000000100ead50     msvcprt:vector_algorithms.obj
 0001:000e9e16       ___std_fs_open_handle@16   00000000100eae16     msvcprt:filesystem.obj
 0001:000e9e4a       ___std_fs_close_handle@4   00000000100eae4a     msvcprt:filesystem.obj
 0001:000e9e6a       ___std_fs_get_stats@16     00000000100eae6a     msvcprt:filesystem.obj
 0001:000ea0d6       ___std_fs_code_page@0      00000000100eb0d6     msvcprt:filesystem.obj
 0001:000ea0f4       ___std_fs_convert_narrow_to_wide@20 00000000100eb0f4     msvcprt:filesystem.obj
 0001:000ea128       ___std_fs_convert_wide_to_narrow_replace_chars@20 00000000100eb128     msvcprt:filesystem.obj
 0001:000ea197       ___std_fs_create_directory@4 00000000100eb197     msvcprt:filesystem.obj
 0001:000ea1f6       ___std_get_string_size_without_trailing_whitespace@8 00000000100eb1f6     msvcprt:syserror_import_lib.obj
 0001:000ea21a       ___std_system_error_allocate_message@8 00000000100eb21a     msvcprt:syserror_import_lib.obj
 0001:000ea264       ___std_system_error_deallocate_message@4 00000000100eb264     msvcprt:syserror_import_lib.obj
 0001:000eb680       _af_shaper_get_cluster     00000000100ec680     freetype:autofit.obj
 0001:000f4840       _TT_RunIns                 00000000100f5840     freetype:truetype.obj
 0001:00113e90       ___scrt_stub_for_is_c_termination_complete 0000000010114e90     msvcrt:ucrt_stubs.obj
 0001:00113e90       ___scrt_stub_for_is_c_termination_complete 0000000010114e90     msvcrt:ucrt_stubs.obj
 0001:0011fcf0       _ps_hints_apply            0000000010120cf0     freetype:pshinter.obj
 0001:00130c00       _sprintf                   0000000010131c00     freetype:bdf.obj
 0001:001337c2       ___report_gsfailure        00000000101347c2     msvcrt:gs_report.obj
 0001:001338bc       ___raise_securityfailure   00000000101348bc     msvcrt:gs_report.obj
 0001:001338f0       _FT_Stream_Open            00000000101348f0     freetype:ftsystem.obj
 0001:00133a10       _FT_Bitmap_Init            0000000010134a10     freetype:ftbitmap.obj
 0001:00133a30       _FT_Bitmap_Copy            0000000010134a30     freetype:ftbitmap.obj
 0001:00133b90       _FT_Bitmap_Embolden        0000000010134b90     freetype:ftbitmap.obj
 0001:00133e70       _FT_Bitmap_Convert         0000000010134e70     freetype:ftbitmap.obj
 0001:00134300       _FT_GlyphSlot_Own_Bitmap   0000000010135300     freetype:ftbitmap.obj
 0001:00134380       _FT_Bitmap_Done            0000000010135380     freetype:ftbitmap.obj
 0001:00134618       ??0bad_alloc@std@@QAE@XZ   0000000010135618     msvcrt:throw_bad_alloc.obj
 0001:00134630       ??1bad_alloc@std@@UAE@XZ   0000000010135630     msvcrt:throw_bad_alloc.obj
 0001:00134641       ??0bad_array_new_length@std@@QAE@XZ 0000000010135641     msvcrt:throw_bad_alloc.obj
 0001:00134659       ?__scrt_throw_std_bad_alloc@@YAXXZ 0000000010135659     msvcrt:throw_bad_alloc.obj
 0001:00134676       ?__scrt_throw_std_bad_array_new_length@@YAXXZ 0000000010135676     msvcrt:throw_bad_alloc.obj
 0001:00134693       ___isa_available_init      0000000010135693     msvcrt:cpu_disp.obj
 0001:00134867       __get_startup_argv_mode    0000000010135867     msvcrt:argv_mode.obj
 0001:0013486b       ___scrt_is_ucrt_dll_in_use 000000001013586b     msvcrt:ucrt_detection.obj
 0001:00134877       __crt_debugger_hook        0000000010135877     msvcrt:utility_desktop.obj
 0001:0013487f       ___scrt_fastfail           000000001013587f     msvcrt:utility_desktop.obj
 0001:001349a0       __SEH_prolog4              00000000101359a0     msvcrt:sehprolg4.obj
 0001:001349e5       __except_handler4          00000000101359e5     msvcrt:chandler4gs.obj
 0001:00134a14       @_guard_check_icall_nop@4  0000000010135a14     msvcrt:guard_support.obj
 0001:00134a20       _FT_Stream_OpenGzip        0000000010135a20     freetype:ftgzip.obj
 0001:00134c60       _FT_Gzip_Uncompress        0000000010135c60     freetype:ftgzip.obj
 0001:00137470       _FT_Stream_OpenLZW         0000000010138470     freetype:ftlzw.obj
 0001:001375f0       _ft_lzwstate_io            00000000101385f0     freetype:ftlzw.obj
 0001:0013849d       __DllMainCRTStartup@12     000000001013949d     msvcrt:dll_dllmain.obj
 0001:001384c0       __filter_x86_sse2_floating_point_exception_default 00000000101394c0     msvcrt:x86_exception_filter.obj
 0001:001384c0       __filter_x86_sse2_floating_point_exception_default 00000000101394c0     msvcrt:x86_exception_filter.obj
 0001:00138538       ___security_init_cookie    0000000010139538     msvcrt:gs_support.obj
 0001:001385d0       ?__scrt_initialize_type_info@@YAXXZ 00000000101395d0     msvcrt:tncleanup.obj
 0001:001385dc       ?__scrt_uninitialize_type_info@@YAXXZ 00000000101395dc     msvcrt:tncleanup.obj
 0001:001385e8       ___scrt_initialize_default_local_stdio_options 00000000101395e8     msvcrt:default_local_stdio_options.obj
 0001:00138605       ___scrt_get_dyn_tls_init_callback 0000000010139605     msvcrt:dyn_tls_init.obj
 0001:0013860b       __RTC_Initialize           000000001013960b     msvcrt:initsect.obj
 0001:00138637       __RTC_Terminate            0000000010139637     msvcrt:initsect.obj
 0001:00138663       ___scrt_stub_for_acrt_initialize 0000000010139663     msvcrt:ucrt_stubs.obj
 0001:00138663       ___scrt_stub_for_acrt_uninitialize 0000000010139663     msvcrt:ucrt_stubs.obj
 0001:00138663       ___scrt_stub_for_acrt_uninitialize_critical 0000000010139663     msvcrt:ucrt_stubs.obj
 0001:00138663       ___scrt_stub_for_acrt_thread_attach 0000000010139663     msvcrt:ucrt_stubs.obj
 0001:00138663       ___scrt_stub_for_acrt_thread_detach 0000000010139663     msvcrt:ucrt_stubs.obj
 0001:00138663       ___scrt_stub_for_acrt_initialize 0000000010139663     msvcrt:ucrt_stubs.obj
 0001:00138663       ___scrt_stub_for_acrt_uninitialize 0000000010139663     msvcrt:ucrt_stubs.obj
 0001:00138663       ___scrt_stub_for_acrt_uninitialize_critical 0000000010139663     msvcrt:ucrt_stubs.obj
 0001:00138663       ___scrt_stub_for_acrt_thread_attach 0000000010139663     msvcrt:ucrt_stubs.obj
 0001:00138663       ___scrt_stub_for_acrt_thread_detach 0000000010139663     msvcrt:ucrt_stubs.obj
 0001:00138663       ___scrt_stub_for_acrt_initialize 0000000010139663     msvcrt:ucrt_stubs.obj
 0001:00138663       ___scrt_stub_for_acrt_uninitialize 0000000010139663     msvcrt:ucrt_stubs.obj
 0001:00138663       ___scrt_stub_for_acrt_uninitialize_critical 0000000010139663     msvcrt:ucrt_stubs.obj
 0001:00138663       ___scrt_stub_for_acrt_thread_attach 0000000010139663     msvcrt:ucrt_stubs.obj
 0001:00138663       ___scrt_stub_for_acrt_thread_detach 0000000010139663     msvcrt:ucrt_stubs.obj
 0001:00138670       _D3DXCreateTextureFromFileInMemoryEx@60 0000000010139670     d3dx9:d3dx9_43.dll
 0001:00138676       ?_Fiopen@std@@YAPAU_iobuf@@PBDHH@Z 0000000010139676     msvcprt:MSVCP140.dll
 0001:0013867c       ?_Fiopen@std@@YAPAU_iobuf@@PB_WHH@Z 000000001013967c     msvcprt:MSVCP140.dll
 0001:00138682       ?_Getgloballocale@locale@std@@CAPAV_Locimp@12@XZ 0000000010139682     msvcprt:MSVCP140.dll
 0001:00138688       ?_Lock@?$basic_streambuf@DU?$char_traits@D@std@@@std@@UAEXXZ 0000000010139688     msvcprt:MSVCP140.dll
 0001:0013868e       ?_Syserror_map@std@@YAPBDH@Z 000000001013968e     msvcprt:MSVCP140.dll
 0001:00138694       ?_Throw_C_error@std@@YAXH@Z 0000000010139694     msvcprt:MSVCP140.dll
 0001:0013869a       ?_Throw_Cpp_error@std@@YAXH@Z 000000001013969a     msvcprt:MSVCP140.dll
 0001:001386a0       ?_Unlock@?$basic_streambuf@DU?$char_traits@D@std@@@std@@UAEXXZ 00000000101396a0     msvcprt:MSVCP140.dll
 0001:001386a6       ?_Winerror_map@std@@YAHH@Z 00000000101396a6     msvcprt:MSVCP140.dll
 0001:001386ac       ?_Xbad_function_call@std@@YAXXZ 00000000101396ac     msvcprt:MSVCP140.dll
 0001:001386b2       ?_Xlength_error@std@@YAXPBD@Z 00000000101396b2     msvcprt:MSVCP140.dll
 0001:001386b8       ?_Xout_of_range@std@@YAXPBD@Z 00000000101396b8     msvcprt:MSVCP140.dll
 0001:001386be       ?__ExceptionPtrAssign@@YAXPAXPBX@Z 00000000101396be     msvcprt:MSVCP140.dll
 0001:001386c4       ?__ExceptionPtrCopy@@YAXPAXPBX@Z 00000000101396c4     msvcprt:MSVCP140.dll
 0001:001386ca       ?__ExceptionPtrCopyException@@YAXPAXPBX1@Z 00000000101396ca     msvcprt:MSVCP140.dll
 0001:001386d0       ?__ExceptionPtrCreate@@YAXPAX@Z 00000000101396d0     msvcprt:MSVCP140.dll
 0001:001386d6       ?__ExceptionPtrCurrentException@@YAXPAX@Z 00000000101396d6     msvcprt:MSVCP140.dll
 0001:001386dc       ?__ExceptionPtrDestroy@@YAXPAX@Z 00000000101396dc     msvcprt:MSVCP140.dll
 0001:001386e2       ?__ExceptionPtrRethrow@@YAXPBX@Z 00000000101396e2     msvcprt:MSVCP140.dll
 0001:001386e8       ?__ExceptionPtrToBool@@YA_NPBX@Z 00000000101396e8     msvcprt:MSVCP140.dll
 0001:001386ee       ?imbue@?$basic_streambuf@DU?$char_traits@D@std@@@std@@MAEXABVlocale@2@@Z 00000000101396ee     msvcprt:MSVCP140.dll
 0001:001386f4       ?setbuf@?$basic_streambuf@DU?$char_traits@D@std@@@std@@MAEPAV12@PAD_J@Z 00000000101396f4     msvcprt:MSVCP140.dll
 0001:001386fa       ?showmanyc@?$basic_streambuf@DU?$char_traits@D@std@@@std@@MAE_JXZ 00000000101396fa     msvcprt:MSVCP140.dll
 0001:00138700       ?sync@?$basic_streambuf@DU?$char_traits@D@std@@@std@@MAEHXZ 0000000010139700     msvcprt:MSVCP140.dll
 0001:00138706       ?uflow@?$basic_streambuf@DU?$char_traits@D@std@@@std@@MAEHXZ 0000000010139706     msvcprt:MSVCP140.dll
 0001:0013870c       ?uncaught_exceptions@std@@YAHXZ 000000001013970c     msvcprt:MSVCP140.dll
 0001:00138712       ?xsgetn@?$basic_streambuf@DU?$char_traits@D@std@@@std@@MAE_JPAD_J@Z 0000000010139712     msvcprt:MSVCP140.dll
 0001:00138718       ?xsputn@?$basic_streambuf@DU?$char_traits@D@std@@@std@@MAE_JPBD_J@Z 0000000010139718     msvcprt:MSVCP140.dll
 0001:0013871e       __Cnd_broadcast            000000001013971e     msvcprt:MSVCP140.dll
 0001:00138724       __Cnd_destroy_in_situ      0000000010139724     msvcprt:MSVCP140.dll
 0001:0013872a       __Cnd_do_broadcast_at_thread_exit 000000001013972a     msvcprt:MSVCP140.dll
 0001:00138730       __Cnd_init_in_situ         0000000010139730     msvcprt:MSVCP140.dll
 0001:00138736       __Cnd_register_at_thread_exit 0000000010139736     msvcprt:MSVCP140.dll
 0001:0013873c       __Cnd_unregister_at_thread_exit 000000001013973c     msvcprt:MSVCP140.dll
 0001:00138742       __Cnd_wait                 0000000010139742     msvcprt:MSVCP140.dll
 0001:00138748       __Mtx_destroy_in_situ      0000000010139748     msvcprt:MSVCP140.dll
 0001:0013874e       __Mtx_init_in_situ         000000001013974e     msvcprt:MSVCP140.dll
 0001:00138754       __Mtx_lock                 0000000010139754     msvcprt:MSVCP140.dll
 0001:0013875a       __Mtx_trylock              000000001013975a     msvcprt:MSVCP140.dll
 0001:00138760       __Mtx_unlock               0000000010139760     msvcprt:MSVCP140.dll
 0001:00138766       __Query_perf_counter       0000000010139766     msvcprt:MSVCP140.dll
 0001:0013876c       __Query_perf_frequency     000000001013976c     msvcprt:MSVCP140.dll
 0001:00138772       __Thrd_detach              0000000010139772     msvcprt:MSVCP140.dll
 0001:00138778       __Thrd_hardware_concurrency 0000000010139778     msvcprt:MSVCP140.dll
 0001:0013877e       __Thrd_id                  000000001013977e     msvcprt:MSVCP140.dll
 0001:00138784       __Thrd_join                0000000010139784     msvcprt:MSVCP140.dll
 0001:0013878a       __Thrd_sleep               000000001013978a     msvcprt:MSVCP140.dll
 0001:00138790       __Thrd_yield               0000000010139790     msvcprt:MSVCP140.dll
 0001:00138796       __Xtime_get_ticks          0000000010139796     msvcprt:MSVCP140.dll
 0001:0013879c       ___std_atomic_notify_all_direct@4 000000001013979c     msvcprt:MSVCP140_ATOMIC_WAIT.dll
 0001:001387a2       ___std_atomic_notify_one_direct@4 00000000101397a2     msvcprt:MSVCP140_ATOMIC_WAIT.dll
 0001:001387a8       ___std_atomic_wait_direct@16 00000000101397a8     msvcprt:MSVCP140_ATOMIC_WAIT.dll
 0001:001387ae       _CreateToolhelp32Snapshot@8 00000000101397ae     kernel32:KERNEL32.dll
 0001:001387b4       _Thread32First@8           00000000101397b4     kernel32:KERNEL32.dll
 0001:001387ba       _Thread32Next@8            00000000101397ba     kernel32:KERNEL32.dll
 0001:001387c0       _ImmGetContext@4           00000000101397c0     imm32:IMM32.dll
 0001:001387c6       _ImmReleaseContext@8       00000000101397c6     imm32:IMM32.dll
 0001:001387cc       _ImmSetCompositionWindow@8 00000000101397cc     imm32:IMM32.dll
 0001:001387d2       _XInputGetCapabilities@12  00000000101397d2     xinput:XINPUT1_3.dll
 0001:001387d8       _XInputGetState@8          00000000101397d8     xinput:XINPUT1_3.dll
 0001:001387de       __CxxThrowException@8      00000000101397de     vcruntime:VCRUNTIME140.dll
 0001:001387e4       ___CxxFrameHandler3        00000000101397e4     vcruntime:VCRUNTIME140.dll
 0001:001387ea       ___std_exception_copy      00000000101397ea     vcruntime:VCRUNTIME140.dll
 0001:001387f0       ___std_exception_destroy   00000000101397f0     vcruntime:VCRUNTIME140.dll
 0001:001387f6       ___std_terminate           00000000101397f6     vcruntime:VCRUNTIME140.dll
 0001:001387fc       ___std_type_info_destroy_list 00000000101397fc     vcruntime:VCRUNTIME140.dll
 0001:00138802       __except_handler4_common   0000000010139802     vcruntime:VCRUNTIME140.dll
 0001:00138808       __setjmp3                  0000000010139808     vcruntime:VCRUNTIME140.dll
 0001:0013880e       _longjmp                   000000001013980e     vcruntime:VCRUNTIME140.dll
 0001:00138814       _memchr                    0000000010139814     vcruntime:VCRUNTIME140.dll
 0001:0013881a       _memcmp                    000000001013981a     vcruntime:VCRUNTIME140.dll
 0001:00138820       _memcpy                    0000000010139820     vcruntime:VCRUNTIME140.dll
 0001:00138826       _memmove                   0000000010139826     vcruntime:VCRUNTIME140.dll
 0001:0013882c       _memset                    000000001013982c     vcruntime:VCRUNTIME140.dll
 0001:00138832       _strrchr                   0000000010139832     vcruntime:VCRUNTIME140.dll
 0001:00138838       _strstr                    0000000010139838     vcruntime:VCRUNTIME140.dll
 0001:0013883e       ___stdio_common_vsprintf   000000001013983e     ucrt:api-ms-win-crt-stdio-l1-1-0.dll
 0001:00138844       __callnewh                 0000000010139844     ucrt:api-ms-win-crt-heap-l1-1-0.dll
 0001:0013884a       __cexit                    000000001013984a     ucrt:api-ms-win-crt-runtime-l1-1-0.dll
 0001:00138850       __configure_narrow_argv    0000000010139850     ucrt:api-ms-win-crt-runtime-l1-1-0.dll
 0001:00138856       __crt_atexit               0000000010139856     ucrt:api-ms-win-crt-runtime-l1-1-0.dll
 0001:0013885c       __execute_onexit_table     000000001013985c     ucrt:api-ms-win-crt-runtime-l1-1-0.dll
 0001:00138862       _fclose                    0000000010139862     ucrt:api-ms-win-crt-stdio-l1-1-0.dll
 0001:00138868       _fread                     0000000010139868     ucrt:api-ms-win-crt-stdio-l1-1-0.dll
 0001:0013886e       _free                      000000001013986e     ucrt:api-ms-win-crt-heap-l1-1-0.dll
 0001:00138874       _fseek                     0000000010139874     ucrt:api-ms-win-crt-stdio-l1-1-0.dll
 0001:0013887a       _ftell                     000000001013987a     ucrt:api-ms-win-crt-stdio-l1-1-0.dll
 0001:00138880       _malloc                    0000000010139880     ucrt:api-ms-win-crt-heap-l1-1-0.dll
 0001:00138886       _qsort                     0000000010139886     ucrt:api-ms-win-crt-utility-l1-1-0.dll
 0001:0013888c       _strncpy                   000000001013988c     ucrt:api-ms-win-crt-string-l1-1-0.dll
 0001:00138892       __initialize_narrow_environment 0000000010139892     ucrt:api-ms-win-crt-runtime-l1-1-0.dll
 0001:00138898       __initialize_onexit_table  0000000010139898     ucrt:api-ms-win-crt-runtime-l1-1-0.dll
 0001:0013889e       __initterm                 000000001013989e     ucrt:api-ms-win-crt-runtime-l1-1-0.dll
 0001:001388a4       __initterm_e               00000000101398a4     ucrt:api-ms-win-crt-runtime-l1-1-0.dll
 0001:001388aa       __register_onexit_function 00000000101398aa     ucrt:api-ms-win-crt-runtime-l1-1-0.dll
 0001:001388b0       __seh_filter_dll           00000000101398b0     ucrt:api-ms-win-crt-runtime-l1-1-0.dll
 0001:001388b6       _acos                      00000000101398b6     ucrt:api-ms-win-crt-math-l1-1-0.dll
 0001:001388bc       _atan                      00000000101398bc     ucrt:api-ms-win-crt-math-l1-1-0.dll
 0001:001388c2       _atan2                     00000000101398c2     ucrt:api-ms-win-crt-math-l1-1-0.dll
 0001:001388c8       _ceil                      00000000101398c8     ucrt:api-ms-win-crt-math-l1-1-0.dll
 0001:001388ce       _cos                       00000000101398ce     ucrt:api-ms-win-crt-math-l1-1-0.dll
 0001:001388d4       _exp                       00000000101398d4     ucrt:api-ms-win-crt-math-l1-1-0.dll
 0001:001388da       _floor                     00000000101398da     ucrt:api-ms-win-crt-math-l1-1-0.dll
 0001:001388e0       _fmod                      00000000101398e0     ucrt:api-ms-win-crt-math-l1-1-0.dll
 0001:001388e6       _fopen                     00000000101398e6     ucrt:api-ms-win-crt-stdio-l1-1-0.dll
 0001:001388ec       _log                       00000000101398ec     ucrt:api-ms-win-crt-math-l1-1-0.dll
 0001:001388f2       _pow                       00000000101398f2     ucrt:api-ms-win-crt-math-l1-1-0.dll
 0001:001388f8       _sin                       00000000101398f8     ucrt:api-ms-win-crt-math-l1-1-0.dll
 0001:001388fe       _sqrt                      00000000101398fe     ucrt:api-ms-win-crt-math-l1-1-0.dll
 0001:00138904       _strcmp                    0000000010139904     ucrt:api-ms-win-crt-string-l1-1-0.dll
 0001:0013890a       _strlen                    000000001013990a     ucrt:api-ms-win-crt-string-l1-1-0.dll
 0001:00138910       _strncmp                   0000000010139910     ucrt:api-ms-win-crt-string-l1-1-0.dll
 0001:00138916       _strtol                    0000000010139916     ucrt:api-ms-win-crt-convert-l1-1-0.dll
 0002:0000dfb0       __xmm@3f8000003f8000003f8000003f800000 0000000010147fb0     ctx.obj
 0002:0000dfc0       __xmm@00000000000000000000000200000001 0000000010147fc0     ctx.obj
 0002:0000dfd0       __xmm@00000000000000000000000000000001 0000000010147fd0     ctx.obj
 0002:0000dfe0       __xmm@000000000000000000000000ffffffff 0000000010147fe0     ctx.obj
 0002:0000dff0       __xmm@ffffffff000000010000000000000000 0000000010147ff0     ctx.obj
 0002:0000e000       __xmm@ffffffff000002000000020000007e90 0000000010148000     ctx.obj
 0002:0000e010       __xmm@ffffffff0000001800000018000002c0 0000000010148010     ctx.obj
 0002:0000e020       __xmm@ffffffff0000001800000018000002bf 0000000010148020     ctx.obj
 0002:0000e030       __xmm@ffffffff0000001800000018000001db 0000000010148030     ctx.obj
 0002:0000e040       __xmm@ffffffff000000180000001800000209 0000000010148040     ctx.obj
 0002:0000e050       __xmm@ffffffff00000018000000180000019b 0000000010148050     ctx.obj
 0002:0000e060       __xmm@ffffffff0000020000000200000018f8 0000000010148060     ctx.obj
 0002:0000e070       __real@47202800            0000000010148070     ctx.obj
 0002:0000e074       __real@3f000000            0000000010148074     ctx.obj
 0002:0000e078       __real@4f000000            0000000010148078     ctx.obj
 0002:0000e080       __xmm@43300000000000004330000000000000 0000000010148080     ctx.obj
 0002:0000e090       __real@4330000000000000    0000000010148090     ctx.obj
 0002:0000e0a0       __xmm@00000007000000000000000000000000 00000000101480a0     ctx.obj
 0002:0000e0b0       __xmm@00000000000000000000000000000000 00000000101480b0     ctx.obj
 0002:0000e0c0       __xmm@80000000800000008000000080000000 00000000101480c0     ctx.obj
 0002:0000e0d4       ??_7c_thread_pool@sdk@@6B@ 00000000101480d4     ctx.obj
 0002:0000e0e0       ??_R4c_thread_pool@sdk@@6B@ 00000000101480e0     ctx.obj
 0002:0000e0f4       ??_R3c_thread_pool@sdk@@8  00000000101480f4     ctx.obj
 0002:0000e104       ??_R2c_thread_pool@sdk@@8  0000000010148104     ctx.obj
 0002:0000e110       ??_R1A@?0A@EA@c_thread_pool@sdk@@8 0000000010148110     ctx.obj
 0002:0000e130       ??_7bad_array_new_length@std@@6B@ 0000000010148130     ctx.obj
 0002:0000e140       ??_R4bad_array_new_length@std@@6B@ 0000000010148140     ctx.obj
 0002:0000e154       ??_R3bad_array_new_length@std@@8 0000000010148154     ctx.obj
 0002:0000e164       ??_R2bad_array_new_length@std@@8 0000000010148164     ctx.obj
 0002:0000e180       ??_R1A@?0A@EA@bad_array_new_length@std@@8 0000000010148180     ctx.obj
 0002:0000e1a0       ??_R1A@?0A@EA@bad_alloc@std@@8 00000000101481a0     ctx.obj
 0002:0000e1bc       ??_R3bad_alloc@std@@8      00000000101481bc     ctx.obj
 0002:0000e1cc       ??_R2bad_alloc@std@@8      00000000101481cc     ctx.obj
 0002:0000e1e0       ??_R1A@?0A@EA@exception@std@@8 00000000101481e0     ctx.obj
 0002:0000e1fc       ??_R3exception@std@@8      00000000101481fc     ctx.obj
 0002:0000e20c       ??_R2exception@std@@8      000000001014820c     ctx.obj
 0002:0000e218       ??_7bad_alloc@std@@6B@     0000000010148218     ctx.obj
 0002:0000e220       ??_R4bad_alloc@std@@6B@    0000000010148220     ctx.obj
 0002:0000e238       ??_7exception@std@@6B@     0000000010148238     ctx.obj
 0002:0000e240       ??_R4exception@std@@6B@    0000000010148240     ctx.obj
 0002:0000e258       ??_7c_cfg@sdk@@6B@         0000000010148258     ctx.obj
 0002:0000e270       ??_R4c_cfg@sdk@@6B@        0000000010148270     ctx.obj
 0002:0000e284       ??_R3c_cfg@sdk@@8          0000000010148284     ctx.obj
 0002:0000e294       ??_R2c_cfg@sdk@@8          0000000010148294     ctx.obj
 0002:0000e2a0       ??_R1A@?0A@EA@c_cfg@sdk@@8 00000000101482a0     ctx.obj
 0002:0000e2c0       ??_7?$cfg_var_t@Ucfg_t@c_local_player@csgo@@@sdk@@6B@ 00000000101482c0     ctx.obj
 0002:0000e2d0       ??_R4?$cfg_var_t@Ucfg_t@c_local_player@csgo@@@sdk@@6B@ 00000000101482d0     ctx.obj
 0002:0000e2e4       ??_R3?$cfg_var_t@Ucfg_t@c_local_player@csgo@@@sdk@@8 00000000101482e4     ctx.obj
 0002:0000e2f4       ??_R2?$cfg_var_t@Ucfg_t@c_local_player@csgo@@@sdk@@8 00000000101482f4     ctx.obj
 0002:0000e300       ??_R1A@?0A@EA@?$cfg_var_t@Ucfg_t@c_local_player@csgo@@@sdk@@8 0000000010148300     ctx.obj
 0002:0000e320       ??_R1A@?0A@EA@base_cfg_var_t@detail@sdk@@8 0000000010148320     ctx.obj
 0002:0000e33c       ??_R3base_cfg_var_t@detail@sdk@@8 000000001014833c     ctx.obj
 0002:0000e34c       ??_R2base_cfg_var_t@detail@sdk@@8 000000001014834c     ctx.obj
 0002:0000e360       ??_R1A@?0A@EA@exception@detail@nlohmann@@8 0000000010148360     ctx.obj
 0002:0000e37c       ??_R3exception@detail@nlohmann@@8 000000001014837c     ctx.obj
 0002:0000e38c       ??_R2exception@detail@nlohmann@@8 000000001014838c     ctx.obj
 0002:0000e39c       ??_7exception@detail@nlohmann@@6B@ 000000001014839c     ctx.obj
 0002:0000e3b0       ??_R4exception@detail@nlohmann@@6B@ 00000000101483b0     ctx.obj
 0002:0000e3c8       ??_7type_error@detail@nlohmann@@6B@ 00000000101483c8     ctx.obj
 0002:0000e3d0       ??_R4type_error@detail@nlohmann@@6B@ 00000000101483d0     ctx.obj
 0002:0000e3e4       ??_R3type_error@detail@nlohmann@@8 00000000101483e4     ctx.obj
 0002:0000e3f4       ??_R2type_error@detail@nlohmann@@8 00000000101483f4     ctx.obj
 0002:0000e410       ??_R1A@?0A@EA@type_error@detail@nlohmann@@8 0000000010148410     ctx.obj
 0002:0000e430       ??_7invalid_iterator@detail@nlohmann@@6B@ 0000000010148430     ctx.obj
 0002:0000e440       ??_R4invalid_iterator@detail@nlohmann@@6B@ 0000000010148440     ctx.obj
 0002:0000e454       ??_R3invalid_iterator@detail@nlohmann@@8 0000000010148454     ctx.obj
 0002:0000e464       ??_R2invalid_iterator@detail@nlohmann@@8 0000000010148464     ctx.obj
 0002:0000e480       ??_R1A@?0A@EA@invalid_iterator@detail@nlohmann@@8 0000000010148480     ctx.obj
 0002:0000e4a0       ??_7out_of_range@detail@nlohmann@@6B@ 00000000101484a0     ctx.obj
 0002:0000e4b0       ??_R4out_of_range@detail@nlohmann@@6B@ 00000000101484b0     ctx.obj
 0002:0000e4c4       ??_R3out_of_range@detail@nlohmann@@8 00000000101484c4     ctx.obj
 0002:0000e4d4       ??_R2out_of_range@detail@nlohmann@@8 00000000101484d4     ctx.obj
 0002:0000e4f0       ??_R1A@?0A@EA@out_of_range@detail@nlohmann@@8 00000000101484f0     ctx.obj
 0002:0000e510       ??_7?$cfg_var_t@Ucfg_t@c_move@hacks@csgo@@@sdk@@6B@ 0000000010148510     ctx.obj
 0002:0000e520       ??_R4?$cfg_var_t@Ucfg_t@c_move@hacks@csgo@@@sdk@@6B@ 0000000010148520     ctx.obj
 0002:0000e534       ??_R3?$cfg_var_t@Ucfg_t@c_move@hacks@csgo@@@sdk@@8 0000000010148534     ctx.obj
 0002:0000e544       ??_R2?$cfg_var_t@Ucfg_t@c_move@hacks@csgo@@@sdk@@8 0000000010148544     ctx.obj
 0002:0000e550       ??_R1A@?0A@EA@?$cfg_var_t@Ucfg_t@c_move@hacks@csgo@@@sdk@@8 0000000010148550     ctx.obj
 0002:0000e570       ??_7?$cfg_var_t@Ucfg_t@c_skins@hacks@csgo@@@sdk@@6B@ 0000000010148570     ctx.obj
 0002:0000e580       ??_R4?$cfg_var_t@Ucfg_t@c_skins@hacks@csgo@@@sdk@@6B@ 0000000010148580     ctx.obj
 0002:0000e594       ??_R3?$cfg_var_t@Ucfg_t@c_skins@hacks@csgo@@@sdk@@8 0000000010148594     ctx.obj
 0002:0000e5a4       ??_R2?$cfg_var_t@Ucfg_t@c_skins@hacks@csgo@@@sdk@@8 00000000101485a4     ctx.obj
 0002:0000e5b0       ??_R1A@?0A@EA@?$cfg_var_t@Ucfg_t@c_skins@hacks@csgo@@@sdk@@8 00000000101485b0     ctx.obj
 0002:0000e5d0       ??_7?$cfg_var_t@Ucfg_t@c_ping_spike@hacks@csgo@@@sdk@@6B@ 00000000101485d0     ctx.obj
 0002:0000e5e0       ??_R4?$cfg_var_t@Ucfg_t@c_ping_spike@hacks@csgo@@@sdk@@6B@ 00000000101485e0     ctx.obj
 0002:0000e5f4       ??_R3?$cfg_var_t@Ucfg_t@c_ping_spike@hacks@csgo@@@sdk@@8 00000000101485f4     ctx.obj
 0002:0000e604       ??_R2?$cfg_var_t@Ucfg_t@c_ping_spike@hacks@csgo@@@sdk@@8 0000000010148604     ctx.obj
 0002:0000e610       ??_R1A@?0A@EA@?$cfg_var_t@Ucfg_t@c_ping_spike@hacks@csgo@@@sdk@@8 0000000010148610     ctx.obj
 0002:0000e630       ??_7?$cfg_var_t@Ucfg_t@c_misc@hacks@csgo@@@sdk@@6B@ 0000000010148630     ctx.obj
 0002:0000e640       ??_R4?$cfg_var_t@Ucfg_t@c_misc@hacks@csgo@@@sdk@@6B@ 0000000010148640     ctx.obj
 0002:0000e654       ??_R3?$cfg_var_t@Ucfg_t@c_misc@hacks@csgo@@@sdk@@8 0000000010148654     ctx.obj
 0002:0000e664       ??_R2?$cfg_var_t@Ucfg_t@c_misc@hacks@csgo@@@sdk@@8 0000000010148664     ctx.obj
 0002:0000e670       ??_R1A@?0A@EA@?$cfg_var_t@Ucfg_t@c_misc@hacks@csgo@@@sdk@@8 0000000010148670     ctx.obj
 0002:0000e690       ??_7?$cfg_var_t@Ucfg_t@c_chams@hacks@csgo@@@sdk@@6B@ 0000000010148690     ctx.obj
 0002:0000e6a0       ??_R4?$cfg_var_t@Ucfg_t@c_chams@hacks@csgo@@@sdk@@6B@ 00000000101486a0     ctx.obj
 0002:0000e6b4       ??_R3?$cfg_var_t@Ucfg_t@c_chams@hacks@csgo@@@sdk@@8 00000000101486b4     ctx.obj
 0002:0000e6c4       ??_R2?$cfg_var_t@Ucfg_t@c_chams@hacks@csgo@@@sdk@@8 00000000101486c4     ctx.obj
 0002:0000e6d0       ??_R1A@?0A@EA@?$cfg_var_t@Ucfg_t@c_chams@hacks@csgo@@@sdk@@8 00000000101486d0     ctx.obj
 0002:0000e6f0       ??_7?$cfg_var_t@Ucfg_t@c_visuals@hacks@csgo@@@sdk@@6B@ 00000000101486f0     ctx.obj
 0002:0000e700       ??_R4?$cfg_var_t@Ucfg_t@c_visuals@hacks@csgo@@@sdk@@6B@ 0000000010148700     ctx.obj
 0002:0000e714       ??_R3?$cfg_var_t@Ucfg_t@c_visuals@hacks@csgo@@@sdk@@8 0000000010148714     ctx.obj
 0002:0000e724       ??_R2?$cfg_var_t@Ucfg_t@c_visuals@hacks@csgo@@@sdk@@8 0000000010148724     ctx.obj
 0002:0000e730       ??_R1A@?0A@EA@?$cfg_var_t@Ucfg_t@c_visuals@hacks@csgo@@@sdk@@8 0000000010148730     ctx.obj
 0002:0000e750       ??_7?$cfg_var_t@Ucfg_t@c_exploits@hacks@csgo@@@sdk@@6B@ 0000000010148750     ctx.obj
 0002:0000e760       ??_R4?$cfg_var_t@Ucfg_t@c_exploits@hacks@csgo@@@sdk@@6B@ 0000000010148760     ctx.obj
 0002:0000e774       ??_R3?$cfg_var_t@Ucfg_t@c_exploits@hacks@csgo@@@sdk@@8 0000000010148774     ctx.obj
 0002:0000e784       ??_R2?$cfg_var_t@Ucfg_t@c_exploits@hacks@csgo@@@sdk@@8 0000000010148784     ctx.obj
 0002:0000e790       ??_R1A@?0A@EA@?$cfg_var_t@Ucfg_t@c_exploits@hacks@csgo@@@sdk@@8 0000000010148790     ctx.obj
 0002:0000e7b0       ??_7?$cfg_var_t@Ucfg_t@c_anti_aim@hacks@csgo@@@sdk@@6B@ 00000000101487b0     ctx.obj
 0002:0000e7c0       ??_R4?$cfg_var_t@Ucfg_t@c_anti_aim@hacks@csgo@@@sdk@@6B@ 00000000101487c0     ctx.obj
 0002:0000e7d4       ??_R3?$cfg_var_t@Ucfg_t@c_anti_aim@hacks@csgo@@@sdk@@8 00000000101487d4     ctx.obj
 0002:0000e7e4       ??_R2?$cfg_var_t@Ucfg_t@c_anti_aim@hacks@csgo@@@sdk@@8 00000000101487e4     ctx.obj
 0002:0000e7f0       ??_R1A@?0A@EA@?$cfg_var_t@Ucfg_t@c_anti_aim@hacks@csgo@@@sdk@@8 00000000101487f0     ctx.obj
 0002:0000e810       ??_7?$cfg_var_t@Ucfg_t@c_aim_bot@hacks@csgo@@@sdk@@6B@ 0000000010148810     ctx.obj
 0002:0000e820       ??_R4?$cfg_var_t@Ucfg_t@c_aim_bot@hacks@csgo@@@sdk@@6B@ 0000000010148820     ctx.obj
 0002:0000e834       ??_R3?$cfg_var_t@Ucfg_t@c_aim_bot@hacks@csgo@@@sdk@@8 0000000010148834     ctx.obj
 0002:0000e844       ??_R2?$cfg_var_t@Ucfg_t@c_aim_bot@hacks@csgo@@@sdk@@8 0000000010148844     ctx.obj
 0002:0000e850       ??_R1A@?0A@EA@?$cfg_var_t@Ucfg_t@c_aim_bot@hacks@csgo@@@sdk@@8 0000000010148850     ctx.obj
 0002:0000e870       ??_7runtime_error@std@@6B@ 0000000010148870     ctx.obj
 0002:0000e880       ??_R4runtime_error@std@@6B@ 0000000010148880     ctx.obj
 0002:0000e894       ??_R3runtime_error@std@@8  0000000010148894     ctx.obj
 0002:0000e8a4       ??_R2runtime_error@std@@8  00000000101488a4     ctx.obj
 0002:0000e8b0       ??_R1A@?0A@EA@runtime_error@std@@8 00000000101488b0     ctx.obj
 0002:0000e8d0       ??_7event_listener_t@hooks@csgo@@6B@ 00000000101488d0     ctx.obj
 0002:0000e8e0       ??_R4event_listener_t@hooks@csgo@@6B@ 00000000101488e0     ctx.obj
 0002:0000e8f4       ??_R3event_listener_t@hooks@csgo@@8 00000000101488f4     ctx.obj
 0002:0000e904       ??_R2event_listener_t@hooks@csgo@@8 0000000010148904     ctx.obj
 0002:0000e910       ??_R1A@?0A@EA@event_listener_t@hooks@csgo@@8 0000000010148910     ctx.obj
 0002:0000e930       ??_R1A@?0A@EA@base_event_listener_t@valve@csgo@@8 0000000010148930     ctx.obj
 0002:0000e94c       ??_R3base_event_listener_t@valve@csgo@@8 000000001014894c     ctx.obj
 0002:0000e95c       ??_R2base_event_listener_t@valve@csgo@@8 000000001014895c     ctx.obj
 0002:0000e98c       ??_R3?$_Func_base@_NPAUldr_data_table_entry_t@sdk@@@std@@8 000000001014898c     ctx.obj
 0002:0000e99c       ??_R2?$_Func_base@_NPAUldr_data_table_entry_t@sdk@@@std@@8 000000001014899c     ctx.obj
 0002:0000e9b4       ??_7?$_Ref_count_obj2@UImDrawList@@@std@@6B@ 00000000101489b4     ctx.obj
 0002:0000e9d0       ??_R4?$_Ref_count_obj2@UImDrawList@@@std@@6B@ 00000000101489d0     ctx.obj
 0002:0000e9e4       ??_R3?$_Ref_count_obj2@UImDrawList@@@std@@8 00000000101489e4     ctx.obj
 0002:0000e9f4       ??_R2?$_Ref_count_obj2@UImDrawList@@@std@@8 00000000101489f4     ctx.obj
 0002:0000ea00       ??_R1A@?0A@EA@?$_Ref_count_obj2@UImDrawList@@@std@@8 0000000010148a00     ctx.obj
 0002:0000ea20       ??_R1A@?0A@EA@_Ref_count_base@std@@8 0000000010148a20     ctx.obj
 0002:0000ea3c       ??_R3_Ref_count_base@std@@8 0000000010148a3c     ctx.obj
 0002:0000ea4c       ??_R2_Ref_count_base@std@@8 0000000010148a4c     ctx.obj
 0002:0000ea7c       ??_R3?$_Func_base@_NPBDU?$base_address_t@I@detail@sdk@@@std@@8 0000000010148a7c     ctx.obj
 0002:0000ea8c       ??_R2?$_Func_base@_NPBDU?$base_address_t@I@detail@sdk@@@std@@8 0000000010148a8c     ctx.obj
 0002:0000ecd8       __real@c2b4000042b40000    0000000010148cd8     aim_bot.obj
 0002:0000ece0       __real@42652ee1            0000000010148ce0     aim_bot.obj
 0002:0000ece4       __real@42700000            0000000010148ce4     aim_bot.obj
 0002:0000ece8       __real@c2b20000            0000000010148ce8     aim_bot.obj
 0002:0000ecec       __real@42b20000            0000000010148cec     aim_bot.obj
 0002:0000ecf0       __real@c3340000            0000000010148cf0     aim_bot.obj
 0002:0000ecf4       __real@43340000            0000000010148cf4     aim_bot.obj
 0002:0000ecf8       __real@c2b40000            0000000010148cf8     aim_bot.obj
 0002:0000ecfc       __real@42b40000            0000000010148cfc     aim_bot.obj
 0002:0000ed00       __real@bf800000            0000000010148d00     aim_bot.obj
 0002:0000ed04       __real@3c8efa35            0000000010148d04     aim_bot.obj
 0002:0000ed10       __xmm@00000000000000003c8efa353c8efa35 0000000010148d10     aim_bot.obj
 0002:0000ed20       __xmm@000000003f8000003f8000003f800000 0000000010148d20     aim_bot.obj
 0002:0000ed30       __xmm@3e22f9813e22f9813e22f9813e22f981 0000000010148d30     aim_bot.obj
 0002:0000ed40       __xmm@40c90fda40c90fda40c90fda40c90fda 0000000010148d40     aim_bot.obj
 0002:0000ed50       __xmm@40490fdc40490fdc40490fdc40490fdc 0000000010148d50     aim_bot.obj
 0002:0000ed60       __xmm@3fc90fd83fc90fd83fc90fd83fc90fd8 0000000010148d60     aim_bot.obj
 0002:0000ed70       __xmm@4096cbe44096cbe44096cbe44096cbe4 0000000010148d70     aim_bot.obj
 0002:0000ed80       __xmm@baa69eb6baa69eb6baa69eb6baa69eb6 0000000010148d80     aim_bot.obj
 0002:0000ed90       __xmm@3d29ef0e3d29ef0e3d29ef0e3d29ef0e 0000000010148d90     aim_bot.obj
 0002:0000eda0       __xmm@befff486befff486befff486befff486 0000000010148da0     aim_bot.obj
 0002:0000edb0       __xmm@3f7fff903f7fff903f7fff903f7fff90 0000000010148db0     aim_bot.obj
 0002:0000edc0       __real@00000000            0000000010148dc0     aim_bot.obj
 0002:0000edc4       __real@40400000            0000000010148dc4     aim_bot.obj
 0002:0000edd0       __xmm@00000000000000003f8000003f800000 0000000010148dd0     aim_bot.obj
 0002:0000ede0       __xmm@7fffffff7fffffff7fffffff7fffffff 0000000010148de0     aim_bot.obj
 0002:0000edf0       __real@c3b40000            0000000010148df0     aim_bot.obj
 0002:0000edf4       __real@43b40000            0000000010148df4     aim_bot.obj
 0002:0000edf8       __real@40c00000            0000000010148df8     aim_bot.obj
 0002:0000edfc       __real@bf000000            0000000010148dfc     aim_bot.obj
 0002:0000ee00       __real@358637bd            0000000010148e00     aim_bot.obj
 0002:0000ee04       __real@3f800000            0000000010148e04     aim_bot.obj
 0002:0000ee08       __real@461c4000            0000000010148e08     aim_bot.obj
 0002:0000ee0c       __real@3c000000            0000000010148e0c     aim_bot.obj
 0002:0000ee10       __real@42c80000            0000000010148e10     aim_bot.obj
 0002:0000ee14       __real@3ca3d70a            0000000010148e14     aim_bot.obj
 0002:0000ee18       __real@0000000000000000    0000000010148e18     aim_bot.obj
 0002:0000ee20       __real@80000000            0000000010148e20     aim_bot.obj
 0002:0000ee24       __real@3f666666            0000000010148e24     aim_bot.obj
 0002:0000ee28       __real@42960000            0000000010148e28     aim_bot.obj
 0002:0000ee30       __xmm@00000000000000003f0000003f000000 0000000010148e30     aim_bot.obj
 0002:0000ee40       __real@42652ee0            0000000010148e40     aim_bot.obj
 0002:0000ee44       __real@c2652ee0            0000000010148e44     aim_bot.obj
 0002:0000ee48       __real@3ecccccd            0000000010148e48     aim_bot.obj
 0002:0000ee4c       __real@42480000            0000000010148e4c     aim_bot.obj
 0002:0000ee54       ??_7?$_Ref_count_obj2@V?$packaged_task@$$A6AXXZ@std@@@std@@6B@ 0000000010148e54     aim_bot.obj
 0002:0000ee70       ??_R4?$_Ref_count_obj2@V?$packaged_task@$$A6AXXZ@std@@@std@@6B@ 0000000010148e70     aim_bot.obj
 0002:0000ee84       ??_R3?$_Ref_count_obj2@V?$packaged_task@$$A6AXXZ@std@@@std@@8 0000000010148e84     aim_bot.obj
 0002:0000ee94       ??_R2?$_Ref_count_obj2@V?$packaged_task@$$A6AXXZ@std@@@std@@8 0000000010148e94     aim_bot.obj
 0002:0000eea0       ??_R1A@?0A@EA@?$_Ref_count_obj2@V?$packaged_task@$$A6AXXZ@std@@@std@@8 0000000010148ea0     aim_bot.obj
 0002:0000eec4       ??_7?$_Packaged_state@$$A6AXXZ@std@@6B@ 0000000010148ec4     aim_bot.obj
 0002:0000eee0       ??_R4?$_Packaged_state@$$A6AXXZ@std@@6B@ 0000000010148ee0     aim_bot.obj
 0002:0000eef4       ??_R3?$_Packaged_state@$$A6AXXZ@std@@8 0000000010148ef4     aim_bot.obj
 0002:0000ef04       ??_R2?$_Packaged_state@$$A6AXXZ@std@@8 0000000010148f04     aim_bot.obj
 0002:0000ef10       ??_R1A@?0A@EA@?$_Packaged_state@$$A6AXXZ@std@@8 0000000010148f10     aim_bot.obj
 0002:0000ef30       ??_R1A@?0A@EA@?$_Associated_state@H@std@@8 0000000010148f30     aim_bot.obj
 0002:0000ef4c       ??_R3?$_Associated_state@H@std@@8 0000000010148f4c     aim_bot.obj
 0002:0000ef5c       ??_R2?$_Associated_state@H@std@@8 0000000010148f5c     aim_bot.obj
 0002:0000ef74       ??_7?$_Associated_state@H@std@@6B@ 0000000010148f74     aim_bot.obj
 0002:0000ef90       ??_R4?$_Associated_state@H@std@@6B@ 0000000010148f90     aim_bot.obj
 0002:0000efcc       ??_R3?$_Func_base@X$$V@std@@8 0000000010148fcc     aim_bot.obj
 0002:0000efdc       ??_R2?$_Func_base@X$$V@std@@8 0000000010148fdc     aim_bot.obj
 0002:0000efe8       ??_7future_error@std@@6B@  0000000010148fe8     aim_bot.obj
 0002:0000eff0       ??_R4future_error@std@@6B@ 0000000010148ff0     aim_bot.obj
 0002:0000f004       ??_R3future_error@std@@8   0000000010149004     aim_bot.obj
 0002:0000f014       ??_R2future_error@std@@8   0000000010149014     aim_bot.obj
 0002:0000f030       ??_R1A@?0A@EA@future_error@std@@8 0000000010149030     aim_bot.obj
 0002:0000f050       ??_R1A@?0A@EA@logic_error@std@@8 0000000010149050     aim_bot.obj
 0002:0000f06c       ??_R3logic_error@std@@8    000000001014906c     aim_bot.obj
 0002:0000f07c       ??_R2logic_error@std@@8    000000001014907c     aim_bot.obj
 0002:0000f08c       ??_7logic_error@std@@6B@   000000001014908c     aim_bot.obj
 0002:0000f0a0       ??_R4logic_error@std@@6B@  00000000101490a0     aim_bot.obj
 0002:0000f0c4       ??_7_Future_error_category2@std@@6B@ 00000000101490c4     aim_bot.obj
 0002:0000f0e0       ??_R4_Future_error_category2@std@@6B@ 00000000101490e0     aim_bot.obj
 0002:0000f0f4       ??_R3_Future_error_category2@std@@8 00000000101490f4     aim_bot.obj
 0002:0000f104       ??_R2_Future_error_category2@std@@8 0000000010149104     aim_bot.obj
 0002:0000f110       ??_R1A@?0A@EA@_Future_error_category2@std@@8 0000000010149110     aim_bot.obj
 0002:0000f130       ??_R1A@?0A@EA@error_category@std@@8 0000000010149130     aim_bot.obj
 0002:0000f14c       ??_R3error_category@std@@8 000000001014914c     aim_bot.obj
 0002:0000f15c       ??_R2error_category@std@@8 000000001014915c     aim_bot.obj
 0002:0000f190       ??_7bad_optional_access@std@@6B@ 0000000010149190     aim_bot.obj
 0002:0000f1a0       ??_R4bad_optional_access@std@@6B@ 00000000101491a0     aim_bot.obj
 0002:0000f1b4       ??_R3bad_optional_access@std@@8 00000000101491b4     aim_bot.obj
 0002:0000f1c4       ??_R2bad_optional_access@std@@8 00000000101491c4     aim_bot.obj
 0002:0000f1d0       ??_R1A@?0A@EA@bad_optional_access@std@@8 00000000101491d0     aim_bot.obj
 0002:0000f1f0       ??_7trace_filter_world_only_t@valve@csgo@@6B@ 00000000101491f0     aim_bot.obj
 0002:0000f200       ??_R4trace_filter_world_only_t@valve@csgo@@6B@ 0000000010149200     aim_bot.obj
 0002:0000f214       ??_R3trace_filter_world_only_t@valve@csgo@@8 0000000010149214     aim_bot.obj
 0002:0000f224       ??_R2trace_filter_world_only_t@valve@csgo@@8 0000000010149224     aim_bot.obj
 0002:0000f230       ??_R1A@?0A@EA@trace_filter_world_only_t@valve@csgo@@8 0000000010149230     aim_bot.obj
 0002:0000f250       ??_R1A@?0A@EA@base_trace_filter_t@valve@csgo@@8 0000000010149250     aim_bot.obj
 0002:0000f26c       ??_R3base_trace_filter_t@valve@csgo@@8 000000001014926c     aim_bot.obj
 0002:0000f27c       ??_R2base_trace_filter_t@valve@csgo@@8 000000001014927c     aim_bot.obj
 0002:0000f288       ??_7?$basic_stringstream@DU?$char_traits@D@std@@V?$allocator@D@2@@std@@6B@ 0000000010149288     aim_bot.obj
 0002:0000f28c       ??_8?$basic_stringstream@DU?$char_traits@D@std@@V?$allocator@D@2@@std@@7B?$basic_istream@DU?$char_traits@D@std@@@1@@ 000000001014928c     aim_bot.obj
 0002:0000f28c       ??_8?$basic_ofstream@DU?$char_traits@D@std@@@std@@7B@ 000000001014928c     visuals.obj
 0002:0000f294       ??_8?$basic_stringstream@DU?$char_traits@D@std@@V?$allocator@D@2@@std@@7B?$basic_ostream@DU?$char_traits@D@std@@@1@@ 0000000010149294     aim_bot.obj
 0002:0000f2a0       ??_R4?$basic_stringstream@DU?$char_traits@D@std@@V?$allocator@D@2@@std@@6B@ 00000000101492a0     aim_bot.obj
 0002:0000f2b4       ??_R3?$basic_stringstream@DU?$char_traits@D@std@@V?$allocator@D@2@@std@@8 00000000101492b4     aim_bot.obj
 0002:0000f2d0       ??_R2?$basic_stringstream@DU?$char_traits@D@std@@V?$allocator@D@2@@std@@8 00000000101492d0     aim_bot.obj
 0002:0000f300       ??_R1A@?0A@EA@?$basic_stringstream@DU?$char_traits@D@std@@V?$allocator@D@2@@std@@8 0000000010149300     aim_bot.obj
 0002:0000f320       ??_R1A@?0A@EA@?$basic_iostream@DU?$char_traits@D@std@@@std@@8 0000000010149320     aim_bot.obj
 0002:0000f33c       ??_R3?$basic_iostream@DU?$char_traits@D@std@@@std@@8 000000001014933c     aim_bot.obj
 0002:0000f350       ??_R2?$basic_iostream@DU?$char_traits@D@std@@@std@@8 0000000010149350     aim_bot.obj
 0002:0000f380       ??_R1A@?0A@EA@?$basic_istream@DU?$char_traits@D@std@@@std@@8 0000000010149380     aim_bot.obj
 0002:0000f39c       ??_R3?$basic_istream@DU?$char_traits@D@std@@@std@@8 000000001014939c     aim_bot.obj
 0002:0000f3b0       ??_R2?$basic_istream@DU?$char_traits@D@std@@@std@@8 00000000101493b0     aim_bot.obj
 0002:0000f3d0       ??_R1A@A@3FA@?$basic_ios@DU?$char_traits@D@std@@@std@@8 00000000101493d0     aim_bot.obj
 0002:0000f3ec       ??_R3?$basic_ios@DU?$char_traits@D@std@@@std@@8 00000000101493ec     aim_bot.obj
 0002:0000f3fc       ??_R2?$basic_ios@DU?$char_traits@D@std@@@std@@8 00000000101493fc     aim_bot.obj
 0002:0000f410       ??_R1A@?0A@EA@?$basic_ios@DU?$char_traits@D@std@@@std@@8 0000000010149410     aim_bot.obj
 0002:0000f430       ??_R1A@?0A@EA@ios_base@std@@8 0000000010149430     aim_bot.obj
 0002:0000f44c       ??_R3ios_base@std@@8       000000001014944c     aim_bot.obj
 0002:0000f45c       ??_R2ios_base@std@@8       000000001014945c     aim_bot.obj
 0002:0000f470       ??_R17?0A@EA@?$_Iosb@H@std@@8 0000000010149470     aim_bot.obj
 0002:0000f48c       ??_R3?$_Iosb@H@std@@8      000000001014948c     aim_bot.obj
 0002:0000f49c       ??_R2?$_Iosb@H@std@@8      000000001014949c     aim_bot.obj
 0002:0000f4b0       ??_R1A@?0A@EA@?$_Iosb@H@std@@8 00000000101494b0     aim_bot.obj
 0002:0000f4d0       ??_R1A@A@3EA@ios_base@std@@8 00000000101494d0     aim_bot.obj
 0002:0000f4f0       ??_R17A@3EA@?$_Iosb@H@std@@8 00000000101494f0     aim_bot.obj
 0002:0000f510       ??_R1BA@?0A@EA@?$basic_ostream@DU?$char_traits@D@std@@@std@@8 0000000010149510     aim_bot.obj
 0002:0000f52c       ??_R3?$basic_ostream@DU?$char_traits@D@std@@@std@@8 000000001014952c     aim_bot.obj
 0002:0000f540       ??_R2?$basic_ostream@DU?$char_traits@D@std@@@std@@8 0000000010149540     aim_bot.obj
 0002:0000f560       ??_R1A@?0A@EA@?$basic_ostream@DU?$char_traits@D@std@@@std@@8 0000000010149560     aim_bot.obj
 0002:0000f584       ??_7?$basic_stringbuf@DU?$char_traits@D@std@@V?$allocator@D@2@@std@@6B@ 0000000010149584     aim_bot.obj
 0002:0000f5c0       ??_R4?$basic_stringbuf@DU?$char_traits@D@std@@V?$allocator@D@2@@std@@6B@ 00000000101495c0     aim_bot.obj
 0002:0000f5d4       ??_R3?$basic_stringbuf@DU?$char_traits@D@std@@V?$allocator@D@2@@std@@8 00000000101495d4     aim_bot.obj
 0002:0000f5e4       ??_R2?$basic_stringbuf@DU?$char_traits@D@std@@V?$allocator@D@2@@std@@8 00000000101495e4     aim_bot.obj
 0002:0000f5f0       ??_R1A@?0A@EA@?$basic_stringbuf@DU?$char_traits@D@std@@V?$allocator@D@2@@std@@8 00000000101495f0     aim_bot.obj
 0002:0000f610       ??_R1A@?0A@EA@?$basic_streambuf@DU?$char_traits@D@std@@@std@@8 0000000010149610     aim_bot.obj
 0002:0000f62c       ??_R3?$basic_streambuf@DU?$char_traits@D@std@@@std@@8 000000001014962c     aim_bot.obj
 0002:0000f63c       ??_R2?$basic_streambuf@DU?$char_traits@D@std@@@std@@8 000000001014963c     aim_bot.obj
 0002:0000f654       ??_7?$_Ref_count_obj2@Ulag_record_t@hacks@csgo@@@std@@6B@ 0000000010149654     aim_bot.obj
 0002:0000f670       ??_R4?$_Ref_count_obj2@Ulag_record_t@hacks@csgo@@@std@@6B@ 0000000010149670     aim_bot.obj
 0002:0000f684       ??_R3?$_Ref_count_obj2@Ulag_record_t@hacks@csgo@@@std@@8 0000000010149684     aim_bot.obj
 0002:0000f694       ??_R2?$_Ref_count_obj2@Ulag_record_t@hacks@csgo@@@std@@8 0000000010149694     aim_bot.obj
 0002:0000f6a0       ??_R1A@?0A@EA@?$_Ref_count_obj2@Ulag_record_t@hacks@csgo@@@std@@8 00000000101496a0     aim_bot.obj
 0002:0000f700       ??_S?$basic_ios@DU?$char_traits@D@std@@@std@@6B@ 0000000010149700     aim_bot.obj
 0002:0000f710       ??_R4?$basic_ios@DU?$char_traits@D@std@@@std@@6B@ 0000000010149710     aim_bot.obj
 0002:0000f728       ??_S?$basic_iostream@DU?$char_traits@D@std@@@std@@6B@ 0000000010149728     aim_bot.obj
 0002:0000f730       ??_R4?$basic_iostream@DU?$char_traits@D@std@@@std@@6B@ 0000000010149730     aim_bot.obj
 0002:0000f748       ??_S?$basic_istream@DU?$char_traits@D@std@@@std@@6B@ 0000000010149748     aim_bot.obj
 0002:0000f750       ??_R4?$basic_istream@DU?$char_traits@D@std@@@std@@6B@ 0000000010149750     aim_bot.obj
 0002:0000f768       ??_S?$basic_ostream@DU?$char_traits@D@std@@@std@@6B@ 0000000010149768     aim_bot.obj
 0002:0000f770       ??_R4?$basic_ostream@DU?$char_traits@D@std@@@std@@6B@ 0000000010149770     aim_bot.obj
 0002:000102e8       __real@c1100000            000000001014a2e8     anim_sync.obj
 0002:000102ec       __real@43820000            000000001014a2ec     anim_sync.obj
 0002:000102f0       __real@3dcccccd            000000001014a2f0     anim_sync.obj
 0002:000102f4       __real@3eae147b            000000001014a2f4     anim_sync.obj
 0002:000102f8       __real@3f051eb8            000000001014a2f8     anim_sync.obj
 0002:000102fc       __real@3f8ccccd            000000001014a2fc     anim_sync.obj
 0002:00010300       __xmm@3fe00000000000003fe0000000000000 000000001014a300     anim_sync.obj
 0002:00010310       __real@3fe0000000000000    000000001014a310     anim_sync.obj
 0002:00010318       __real@41f00000            000000001014a318     anim_sync.obj
 0002:0001031c       __real@428c0000            000000001014a31c     anim_sync.obj
 0002:00010320       __real@40490fdb            000000001014a320     anim_sync.obj
 0002:00010324       __real@41480000            000000001014a324     anim_sync.obj
 0002:00010328       __real@7f7fffff            000000001014a328     anim_sync.obj
 0002:0001032c       __real@41800000            000000001014a32c     anim_sync.obj
 0002:00010330       __real@3e6147af            000000001014a330     anim_sync.obj
 0002:00010334       __real@be99999a            000000001014a334     anim_sync.obj
 0002:000103a4       __real@420c0000            000000001014a3a4     anti_aim.obj
 0002:000103a8       __real@43330000            000000001014a3a8     anti_aim.obj
 0002:000103ac       __real@c2700000            000000001014a3ac     anti_aim.obj
 0002:000103b0       __real@3ff8000000000000    000000001014a3b0     anti_aim.obj
 0002:000103b8       __real@42000000            000000001014a3b8     anti_aim.obj
 0002:000103bc       __real@40800000            000000001014a3bc     anti_aim.obj
 0002:000103c0       __real@c2fa0000            000000001014a3c0     anti_aim.obj
 0002:000103c4       __real@c1f00000            000000001014a3c4     anti_aim.obj
 0002:000103c8       __real@42dc0000            000000001014a3c8     anti_aim.obj
 0002:000103cc       __real@41880000            000000001014a3cc     anti_aim.obj
 0002:000103d4       ??_7trace_filter_t@valve@csgo@@6B@ 000000001014a3d4     anti_aim.obj
 0002:000103e0       ??_R4trace_filter_t@valve@csgo@@6B@ 000000001014a3e0     anti_aim.obj
 0002:000103f4       ??_R3trace_filter_t@valve@csgo@@8 000000001014a3f4     anti_aim.obj
 0002:00010404       ??_R2trace_filter_t@valve@csgo@@8 000000001014a404     anti_aim.obj
 0002:00010410       ??_R1A@?0A@EA@trace_filter_t@valve@csgo@@8 000000001014a410     anti_aim.obj
 0002:00010454       __real@3f400000            000000001014a454     auto_wall.obj
 0002:00010458       __real@3fa00000            000000001014a458     auto_wall.obj
 0002:0001045c       __real@3e800000            000000001014a45c     auto_wall.obj
 0002:00010460       __real@3f59999a            000000001014a460     auto_wall.obj
 0002:00010464       __real@3ea8f5c3            000000001014a464     auto_wall.obj
 0002:00010468       __real@3d4ccccd            000000001014a468     auto_wall.obj
 0002:0001046c       __real@3e23d70a            000000001014a46c     auto_wall.obj
 0002:00010470       __real@40000000            000000001014a470     auto_wall.obj
 0002:00010474       __real@3d2aaaab            000000001014a474     auto_wall.obj
 0002:00010478       __real@43fa0000            000000001014a478     auto_wall.obj
 0002:0001047c       __real@453b8000            000000001014a47c     auto_wall.obj
 0002:00010480       __real@42200000            000000001014a480     auto_wall.obj
 0002:00010490       __xmm@00000000000000004334000043340000 000000001014a490     auto_wall.obj
 0002:000104a0       __xmm@000000000000000040490fdb40490fdb 000000001014a4a0     auto_wall.obj
 0002:000104b0       __real@43870000            000000001014a4b0     auto_wall.obj
 0002:000104dc       __real@3fd9999a            000000001014a4dc     eng_pred.obj
 0002:000104e0       __real@c0800000            000000001014a4e0     eng_pred.obj
 0002:000104e4       __real@3e2aaaab            000000001014a4e4     eng_pred.obj
 0002:000104e8       __real@c0000000            000000001014a4e8     eng_pred.obj
 0002:00010514       __real@447a0000            000000001014a514     exploits.obj
 0002:00010518       __real@bc23d70a            000000001014a518     exploits.obj
 0002:0001051c       __real@3c23d70a            000000001014a51c     exploits.obj
 0002:00010550       __xmm@0000000000000000bf800000bf800000 000000001014a550     lag_comp.obj
 0002:00010600       __xmm@0000000000000000000000003f800000 000000001014a600     misc.obj
 0002:00010610       __real@3fc00000            000000001014a610     misc.obj
 0002:00010614       __real@40a00000            000000001014a614     misc.obj
 0002:00010618       __real@4099999a            000000001014a618     misc.obj
 0002:0001061c       __real@41400000            000000001014a61c     misc.obj
 0002:00010620       __real@c1900000            000000001014a620     misc.obj
 0002:00010624       __real@41700000            000000001014a624     misc.obj
 0002:00010628       __real@406fe00000000000    000000001014a628     misc.obj
 0002:00010630       __real@3ff0000000000000    000000001014a630     misc.obj
 0002:00010638       __real@c06fe00000000000    000000001014a638     misc.obj
 0002:00010640       __real@4065e00000000000    000000001014a640     misc.obj
 0002:00010648       __real@c065e00000000000    000000001014a648     misc.obj
 0002:00010650       __real@41c80000            000000001014a650     misc.obj
 0002:00010654       __real@3b808081            000000001014a654     misc.obj
 0002:00010658       __real@41b80000            000000001014a658     misc.obj
 0002:0001065c       __real@43480000            000000001014a65c     misc.obj
 0002:00010660       __real@42980000            000000001014a660     misc.obj
 0002:000107d0       __real@3f800000bf800000    000000001014a7d0     move.obj
 0002:000107d8       __real@42b0cccd            000000001014a7d8     move.obj
 0002:000107dc       __real@c3e10000            000000001014a7dc     move.obj
 0002:000107e0       __real@43e10000            000000001014a7e0     move.obj
 0002:000107e4       __real@42120000            000000001014a7e4     move.obj
 0002:000107e8       __real@437a0000            000000001014a7e8     move.obj
 0002:000107ec       __real@bf99999a            000000001014a7ec     move.obj
 0002:000107f0       __real@c47a0000            000000001014a7f0     move.obj
 0002:000107f4       __real@42820000            000000001014a7f4     move.obj
 0002:000107f8       __real@42340000            000000001014a7f8     move.obj
 0002:000107fc       __real@c3480000            000000001014a7fc     move.obj
 0002:00010800       __real@c0a00000            000000001014a800     move.obj
 0002:00010880       __real@40200000            000000001014a880     shots.obj
 0002:00010884       __real@437f0000            000000001014a884     shots.obj
 0002:00010888       __real@40980000            000000001014a888     shots.obj
 0002:0001088c       __real@41200000            000000001014a88c     shots.obj
 0002:00010890       __xmm@00000001000000000000000000000000 000000001014a890     shots.obj
 0002:000108a0       __xmm@00000000424800000000000000000000 000000001014a8a0     shots.obj
 0002:000108b0       ??_8?$basic_ostringstream@DU?$char_traits@D@std@@V?$allocator@D@2@@std@@7B@ 000000001014a8b0     shots.obj
 0002:000108bc       ??_7?$basic_ostringstream@DU?$char_traits@D@std@@V?$allocator@D@2@@std@@6B@ 000000001014a8bc     shots.obj
 0002:000108c0       ??_R4?$basic_ostringstream@DU?$char_traits@D@std@@V?$allocator@D@2@@std@@6B@ 000000001014a8c0     shots.obj
 0002:000108d4       ??_R3?$basic_ostringstream@DU?$char_traits@D@std@@V?$allocator@D@2@@std@@8 000000001014a8d4     shots.obj
 0002:000108f0       ??_R2?$basic_ostringstream@DU?$char_traits@D@std@@V?$allocator@D@2@@std@@8 000000001014a8f0     shots.obj
 0002:00010910       ??_R1A@?0A@EA@?$basic_ostringstream@DU?$char_traits@D@std@@V?$allocator@D@2@@std@@8 000000001014a910     shots.obj
 0002:000109cc       __real@3d000000            000000001014a9cc     sim_ctx.obj
 0002:000109d0       __real@3f333333            000000001014a9d0     sim_ctx.obj
 0002:000109fc       __real@41a00000            000000001014a9fc     visuals.obj
 0002:00010a00       __real@c0e00000            000000001014aa00     visuals.obj
 0002:00010a04       __real@c1c80000            000000001014aa04     visuals.obj
 0002:00010a08       __real@429e0000            000000001014aa08     visuals.obj
 0002:00010a0c       __real@43c80000            000000001014aa0c     visuals.obj
 0002:00010a10       __real@41900000            000000001014aa10     visuals.obj
 0002:00010a14       __real@43f00000            000000001014aa14     visuals.obj
 0002:00010a18       __real@43520000            000000001014aa18     visuals.obj
 0002:00010a20       __real@400921fb54442d18    000000001014aa20     visuals.obj
 0002:00010a28       __real@c04ca5dc1a63c1f8    000000001014aa28     visuals.obj
 0002:00010a30       __real@3f91df46a2529d39    000000001014aa30     visuals.obj
 0002:00010a38       __real@42a00000            000000001014aa38     visuals.obj
 0002:00010a3c       __real@c1400000            000000001014aa3c     visuals.obj
 0002:00010a40       __real@c0400000            000000001014aa40     visuals.obj
 0002:00010a44       __real@3d088889            000000001014aa44     visuals.obj
 0002:00010a50       __xmm@00000000000000000000000042700000 000000001014aa50     visuals.obj
 0002:00010a60       __real@3d23d70a            000000001014aa60     visuals.obj
 0002:00010a64       __real@3e4ccccd            000000001014aa64     visuals.obj
 0002:00010a68       __real@becccccd            000000001014aa68     visuals.obj
 0002:00010a6c       __real@3e99999a            000000001014aa6c     visuals.obj
 0002:00010a70       __real@3ee66666            000000001014aa70     visuals.obj
 0002:00010a74       __real@47bb8000            000000001014aa74     visuals.obj
 0002:00010a80       __xmm@80000000800000008000000000000000 000000001014aa80     visuals.obj
 0002:00010a90       __xmm@40000000400000004000000000000000 000000001014aa90     visuals.obj
 0002:00010aa0       __real@c1200000            000000001014aaa0     visuals.obj
 0002:00010aa4       __real@41b00000            000000001014aaa4     visuals.obj
 0002:00010aa8       __real@443b8000            000000001014aaa8     visuals.obj
 0002:00010aac       __real@41100000            000000001014aaac     visuals.obj
 0002:00010ab0       __real@c2c80000            000000001014aab0     visuals.obj
 0002:00010ab4       __real@3f7851ec            000000001014aab4     visuals.obj
 0002:00010ab8       __real@43bb8000            000000001014aab8     visuals.obj
 0002:00010abc       __real@43200000            000000001014aabc     visuals.obj
 0002:00010ac0       __real@c37f0000            000000001014aac0     visuals.obj
 0002:00010ac4       __real@c27f0000            000000001014aac4     visuals.obj
 0002:00010ac8       __real@40e00000            000000001014aac8     visuals.obj
 0002:00010ad0       __xmm@00000001000000000000000100000000 000000001014aad0     visuals.obj
 0002:00010ae0       __xmm@00000000000000000000000100000001 000000001014aae0     visuals.obj
 0002:00010af0       __real@3feccccccccccccd    000000001014aaf0     visuals.obj
 0002:00010af8       __real@44070000            000000001014aaf8     visuals.obj
 0002:00010afc       __real@c4070000            000000001014aafc     visuals.obj
 0002:00010b00       __real@3a83126f            000000001014ab00     visuals.obj
 0002:00010b04       __real@40e10000            000000001014ab04     visuals.obj
 0002:00010b08       __real@c0200000            000000001014ab08     visuals.obj
 0002:00010b0c       __real@c18c0000            000000001014ab0c     visuals.obj
 0002:00010b10       __real@41f80000            000000001014ab10     visuals.obj
 0002:00010b14       __real@41980000            000000001014ab14     visuals.obj
 0002:00010b18       __real@c0c00000            000000001014ab18     visuals.obj
 0002:00010b20       __xmm@000000003f19999a3f19999a3f000000 000000001014ab20     visuals.obj
 0002:00010b30       __xmm@437f0000437f0000437f0000437f0000 000000001014ab30     visuals.obj
 0002:00010b40       __xmm@000000ff000000ff000000ff000000ff 000000001014ab40     visuals.obj
 0002:00010b50       __xmm@fffffffdfffffffeffffffff00000000 000000001014ab50     visuals.obj
 0002:00010b60       __xmm@00000001000000010000000100000001 000000001014ab60     visuals.obj
 0002:00010b70       __xmm@00000005000000050000000500000005 000000001014ab70     visuals.obj
 0002:00010b80       __xmm@fffffff8fffffff8fffffff8fffffff8 000000001014ab80     visuals.obj
 0002:00010b90       ?piecewise_construct@std@@3Upiecewise_construct_t@1@B 000000001014ab90     visuals.obj
 0002:00010b98       ??_7?$basic_ofstream@DU?$char_traits@D@std@@@std@@6B@ 000000001014ab98     visuals.obj
 0002:00010ba0       ??_R4?$basic_ofstream@DU?$char_traits@D@std@@@std@@6B@ 000000001014aba0     visuals.obj
 0002:00010bb4       ??_R3?$basic_ofstream@DU?$char_traits@D@std@@@std@@8 000000001014abb4     visuals.obj
 0002:00010bd0       ??_R2?$basic_ofstream@DU?$char_traits@D@std@@@std@@8 000000001014abd0     visuals.obj
 0002:00010bf0       ??_R1A@?0A@EA@?$basic_ofstream@DU?$char_traits@D@std@@@std@@8 000000001014abf0     visuals.obj
 0002:00010c14       ??_7?$basic_filebuf@DU?$char_traits@D@std@@@std@@6B@ 000000001014ac14     visuals.obj
 0002:00010c50       ??_R4?$basic_filebuf@DU?$char_traits@D@std@@@std@@6B@ 000000001014ac50     visuals.obj
 0002:00010c64       ??_R3?$basic_filebuf@DU?$char_traits@D@std@@@std@@8 000000001014ac64     visuals.obj
 0002:00010c74       ??_R2?$basic_filebuf@DU?$char_traits@D@std@@@std@@8 000000001014ac74     visuals.obj
 0002:00010c80       ??_R1A@?0A@EA@?$basic_filebuf@DU?$char_traits@D@std@@@std@@8 000000001014ac80     visuals.obj
 0002:00010ca0       ??_7bad_cast@std@@6B@      000000001014aca0     visuals.obj
 0002:00010cb0       ??_R4bad_cast@std@@6B@     000000001014acb0     visuals.obj
 0002:00010cc4       ??_R3bad_cast@std@@8       000000001014acc4     visuals.obj
 0002:00010cd4       ??_R2bad_cast@std@@8       000000001014acd4     visuals.obj
 0002:00010ce0       ??_R1A@?0A@EA@bad_cast@std@@8 000000001014ace0     visuals.obj
 0002:000114ac       __real@41000000            000000001014b4ac     hooks.obj
 0002:000114b0       __real@3d092253            000000001014b4b0     hooks.obj
 0002:000114c0       __xmm@00000000000000003d0000003d000000 000000001014b4c0     hooks.obj
 0002:000114d0       __real@3bcccccd            000000001014b4d0     hooks.obj
 0002:000114e0       __xmm@00000000000000003dcccccd3dcccccd 000000001014b4e0     hooks.obj
 0002:000114f0       __real@42800000            000000001014b4f0     hooks.obj
 0002:00011500       __xmm@0000007f0000000000000000000000ff 000000001014b500     hooks.obj
 0002:00011510       __xmm@0000007f000000ff0000000000000000 000000001014b510     hooks.obj
 0002:00011574       __real@41a0cccd            000000001014b574     local_player.obj
 0002:00011578       __real@c2480000            000000001014b578     local_player.obj
 0002:000115b8       __real@42640000            000000001014b5b8     menu.obj
 0002:000115bc       __real@446b0000            000000001014b5bc     menu.obj
 0002:000115c0       __real@41d00000            000000001014b5c0     menu.obj
 0002:000115c4       __real@42180000            000000001014b5c4     menu.obj
 0002:000115c8       __real@42080000            000000001014b5c8     menu.obj
 0002:000115cc       __real@42380000            000000001014b5cc     menu.obj
 0002:000115d0       __real@42280000            000000001014b5d0     menu.obj
 0002:000115d4       __real@442bc000            000000001014b5d4     menu.obj
 0002:000115d8       __real@42880000            000000001014b5d8     menu.obj
 0002:000115dc       __real@43fd8000            000000001014b5dc     menu.obj
 0002:000115e0       __real@c3660000            000000001014b5e0     menu.obj
 0002:000115e4       __real@c25c0000            000000001014b5e4     menu.obj
 0002:000115e8       __real@43ef8000            000000001014b5e8     menu.obj
 0002:000115ec       __real@42b00000            000000001014b5ec     menu.obj
 0002:000115f0       __real@44660000            000000001014b5f0     menu.obj
 0002:000115f4       __real@440a4000            000000001014b5f4     menu.obj
 0002:000115f8       __real@43a98000            000000001014b5f8     menu.obj
 0002:000115fc       __real@42ca0000            000000001014b5fc     menu.obj
 0002:00011600       __real@43b88000            000000001014b600     menu.obj
 0002:00011604       __real@43c78000            000000001014b604     menu.obj
 0002:00011608       __real@41200000c1200000    000000001014b608     menu.obj
 0002:00011610       __real@37a7c5ac            000000001014b610     menu.obj
 0002:00011614       __real@42d20000            000000001014b614     menu.obj
 0002:00011618       __real@44610000            000000001014b618     menu.obj
 0002:0001161c       __real@43160000            000000001014b61c     menu.obj
 0002:00011620       __real@42f00000            000000001014b620     menu.obj
 0002:00011624       __real@433e0000            000000001014b624     menu.obj
 0002:00011628       __real@43660000            000000001014b628     menu.obj
 0002:0001162c       __real@43700000            000000001014b62c     menu.obj
 0002:00011630       __real@44318000            000000001014b630     menu.obj
 0002:00011634       __real@442a0000            000000001014b634     menu.obj
 0002:00011638       __real@442cc000            000000001014b638     menu.obj
 0002:0001163c       __real@444a8000            000000001014b63c     menu.obj
 0002:00011640       __real@43020000            000000001014b640     menu.obj
 0002:00011644       __real@42a40000            000000001014b644     menu.obj
 0002:00011648       __real@43130000            000000001014b648     menu.obj
 0002:0001164c       __real@43040000            000000001014b64c     menu.obj
 0002:00011650       __real@42a20000            000000001014b650     menu.obj
 0002:00011654       __real@42be0000            000000001014b654     menu.obj
 0002:00011658       __real@43120000            000000001014b658     menu.obj
 0002:00011660       __xmm@00000000000000004302000043520000 000000001014b660     menu.obj
 0002:00011670       __real@c2be0000            000000001014b670     menu.obj
 0002:00011674       __real@432a0000            000000001014b674     menu.obj
 0002:00011678       __real@438c0000            000000001014b678     menu.obj
 0002:0001167c       __real@42e20000            000000001014b67c     menu.obj
 0002:00011680       __real@42ba0000            000000001014b680     menu.obj
 0002:00011684       __real@c2000000            000000001014b684     menu.obj
 0002:00011688       __real@433d0000            000000001014b688     menu.obj
 0002:0001168c       __real@43290000            000000001014b68c     menu.obj
 0002:00011858       __real@47c35000            000000001014b858     render.obj
 0002:0001185c       __real@3f733333            000000001014b85c     render.obj
 0002:00011860       __real@3db2b8c3            000000001014b860     render.obj
 0002:00011864       __real@40c90fdb            000000001014b864     render.obj
 0002:00011890       __real@3f0ccccd            000000001014b890     other.obj
 0002:000119d0       __xmm@000000000000000000000020ffffffff 000000001014b9d0     cfg.obj
 0002:000119e0       __xmm@80000000000000008000000000000000 000000001014b9e0     cfg.obj
 0002:000119f0       __xmm@000000bf000000800000009f00000080 000000001014b9f0     cfg.obj
 0002:00011a00       __xmm@000000bf00000080000000bf00000080 000000001014ba00     cfg.obj
 0002:00011a10       __xmm@000000bf00000080000000bf000000a0 000000001014ba10     cfg.obj
 0002:00011a20       __xmm@0000000000000004000000080000000c 000000001014ba20     cfg.obj
 0002:00011a34       ??_7_System_error_category@std@@6B@ 000000001014ba34     cfg.obj
 0002:00011a50       ??_R4_System_error_category@std@@6B@ 000000001014ba50     cfg.obj
 0002:00011a64       ??_R3_System_error_category@std@@8 000000001014ba64     cfg.obj
 0002:00011a74       ??_R2_System_error_category@std@@8 000000001014ba74     cfg.obj
 0002:00011a80       ??_R1A@?0A@EA@_System_error_category@std@@8 000000001014ba80     cfg.obj
 0002:00011aa4       ??_7_Generic_error_category@std@@6B@ 000000001014baa4     cfg.obj
 0002:00011ac0       ??_R4_Generic_error_category@std@@6B@ 000000001014bac0     cfg.obj
 0002:00011ad4       ??_R3_Generic_error_category@std@@8 000000001014bad4     cfg.obj
 0002:00011ae4       ??_R2_Generic_error_category@std@@8 000000001014bae4     cfg.obj
 0002:00011af0       ??_R1A@?0A@EA@_Generic_error_category@std@@8 000000001014baf0     cfg.obj
 0002:00011b10       ??_7filesystem_error@filesystem@std@@6B@ 000000001014bb10     cfg.obj
 0002:00011b20       ??_R4filesystem_error@filesystem@std@@6B@ 000000001014bb20     cfg.obj
 0002:00011b34       ??_R3filesystem_error@filesystem@std@@8 000000001014bb34     cfg.obj
 0002:00011b50       ??_R2filesystem_error@filesystem@std@@8 000000001014bb50     cfg.obj
 0002:00011b70       ??_R1A@?0A@EA@filesystem_error@filesystem@std@@8 000000001014bb70     cfg.obj
 0002:00011b90       ??_R1A@?0A@EA@system_error@std@@8 000000001014bb90     cfg.obj
 0002:00011bac       ??_R3system_error@std@@8   000000001014bbac     cfg.obj
 0002:00011bc0       ??_R2system_error@std@@8   000000001014bbc0     cfg.obj
 0002:00011be0       ??_R1A@?0A@EA@_System_error@std@@8 000000001014bbe0     cfg.obj
 0002:00011bfc       ??_R3_System_error@std@@8  000000001014bbfc     cfg.obj
 0002:00011c0c       ??_R2_System_error@std@@8  000000001014bc0c     cfg.obj
 0002:00011c20       ??_7system_error@std@@6B@  000000001014bc20     cfg.obj
 0002:00011c30       ??_R4system_error@std@@6B@ 000000001014bc30     cfg.obj
 0002:00011c48       ??_7_System_error@std@@6B@ 000000001014bc48     cfg.obj
 0002:00011c50       ??_R4_System_error@std@@6B@ 000000001014bc50     cfg.obj
 0002:00011c68       ??_7?$basic_ifstream@DU?$char_traits@D@std@@@std@@6B@ 000000001014bc68     cfg.obj
 0002:00011c6c       ??_8?$basic_ifstream@DU?$char_traits@D@std@@@std@@7B@ 000000001014bc6c     cfg.obj
 0002:00011c80       ??_R4?$basic_ifstream@DU?$char_traits@D@std@@@std@@6B@ 000000001014bc80     cfg.obj
 0002:00011c94       ??_R3?$basic_ifstream@DU?$char_traits@D@std@@@std@@8 000000001014bc94     cfg.obj
 0002:00011cb0       ??_R2?$basic_ifstream@DU?$char_traits@D@std@@@std@@8 000000001014bcb0     cfg.obj
 0002:00011cd0       ??_R1A@?0A@EA@?$basic_ifstream@DU?$char_traits@D@std@@@std@@8 000000001014bcd0     cfg.obj
 0002:00011cf4       ??_7?$_Ref_count_obj2@V?$output_string_adapter@DV?$basic_string@DU?$char_traits@D@std@@V?$allocator@D@2@@std@@@detail@nlohmann@@@std@@6B@ 000000001014bcf4     cfg.obj
 0002:00011d10       ??_R4?$_Ref_count_obj2@V?$output_string_adapter@DV?$basic_string@DU?$char_traits@D@std@@V?$allocator@D@2@@std@@@detail@nlohmann@@@std@@6B@ 000000001014bd10     cfg.obj
 0002:00011d24       ??_R3?$_Ref_count_obj2@V?$output_string_adapter@DV?$basic_string@DU?$char_traits@D@std@@V?$allocator@D@2@@std@@@detail@nlohmann@@@std@@8 000000001014bd24     cfg.obj
 0002:00011d34       ??_R2?$_Ref_count_obj2@V?$output_string_adapter@DV?$basic_string@DU?$char_traits@D@std@@V?$allocator@D@2@@std@@@detail@nlohmann@@@std@@8 000000001014bd34     cfg.obj
 0002:00011d40       ??_R1A@?0A@EA@?$_Ref_count_obj2@V?$output_string_adapter@DV?$basic_string@DU?$char_traits@D@std@@V?$allocator@D@2@@std@@@detail@nlohmann@@@std@@8 000000001014bd40     cfg.obj
 0002:00011d60       ??_7?$output_string_adapter@DV?$basic_string@DU?$char_traits@D@std@@V?$allocator@D@2@@std@@@detail@nlohmann@@6B@ 000000001014bd60     cfg.obj
 0002:00011d70       ??_R4?$output_string_adapter@DV?$basic_string@DU?$char_traits@D@std@@V?$allocator@D@2@@std@@@detail@nlohmann@@6B@ 000000001014bd70     cfg.obj
 0002:00011d84       ??_R3?$output_string_adapter@DV?$basic_string@DU?$char_traits@D@std@@V?$allocator@D@2@@std@@@detail@nlohmann@@8 000000001014bd84     cfg.obj
 0002:00011d94       ??_R2?$output_string_adapter@DV?$basic_string@DU?$char_traits@D@std@@V?$allocator@D@2@@std@@@detail@nlohmann@@8 000000001014bd94     cfg.obj
 0002:00011da0       ??_R1A@?0A@EA@?$output_string_adapter@DV?$basic_string@DU?$char_traits@D@std@@V?$allocator@D@2@@std@@@detail@nlohmann@@8 000000001014bda0     cfg.obj
 0002:00011dc0       ??_R1A@?0A@EA@?$output_adapter_protocol@D@detail@nlohmann@@8 000000001014bdc0     cfg.obj
 0002:00011ddc       ??_R3?$output_adapter_protocol@D@detail@nlohmann@@8 000000001014bddc     cfg.obj
 0002:00011dec       ??_R2?$output_adapter_protocol@D@detail@nlohmann@@8 000000001014bdec     cfg.obj
 0002:00011df4       ?utf8d@?1??decode@?$serializer@V?$basic_json@Vmap@std@@Vvector@2@V?$basic_string@DU?$char_traits@D@std@@V?$allocator@D@2@@2@_N_J_KNVallocator@2@Uadl_serializer@nlohmann@@V?$vector@EV?$allocator@E@std@@@2@@nlohmann@@@detail@nlohmann@@CAEAAEAAIE@Z@4V?$array@E$0BJA@@std@@B 000000001014bdf4     cfg.obj
 0002:00011f84       ?digits_to_99@?1???$dump_integer@E$0A@@?$serializer@V?$basic_json@Vmap@std@@Vvector@2@V?$basic_string@DU?$char_traits@D@std@@V?$allocator@D@2@@2@_N_J_KNVallocator@2@Uadl_serializer@nlohmann@@V?$vector@EV?$allocator@E@std@@@2@@nlohmann@@@detail@nlohmann@@AAEXE@Z@4V?$array@V?$array@D$01@std@@$0GE@@std@@B 000000001014bf84     cfg.obj
 0002:00011f84       ?digits_to_99@?1???$dump_integer@_J$0A@@?$serializer@V?$basic_json@Vmap@std@@Vvector@2@V?$basic_string@DU?$char_traits@D@std@@V?$allocator@D@2@@2@_N_J_KNVallocator@2@Uadl_serializer@nlohmann@@V?$vector@EV?$allocator@E@std@@@2@@nlohmann@@@detail@nlohmann@@AAEX_J@Z@4V?$array@V?$array@D$01@std@@$0GE@@std@@B 000000001014bf84     cfg.obj
 0002:00011f84       ?digits_to_99@?1???$dump_integer@_K$0A@@?$serializer@V?$basic_json@Vmap@std@@Vvector@2@V?$basic_string@DU?$char_traits@D@std@@V?$allocator@D@2@@2@_N_J_KNVallocator@2@Uadl_serializer@nlohmann@@V?$vector@EV?$allocator@E@std@@@2@@nlohmann@@@detail@nlohmann@@AAEX_K@Z@4V?$array@V?$array@D$01@std@@$0GE@@std@@B 000000001014bf84     cfg.obj
 0002:00012050       ?kCachedPowers@?1??get_cached_power_for_binary_exponent@dtoa_impl@detail@nlohmann@@YA?AUcached_power@234@H@Z@4V?$array@Ucached_power@dtoa_impl@detail@nlohmann@@$0EP@@std@@B 000000001014c050     cfg.obj
 0002:00012544       ??_7parse_error@detail@nlohmann@@6B@ 000000001014c544     cfg.obj
 0002:00012550       ??_R4parse_error@detail@nlohmann@@6B@ 000000001014c550     cfg.obj
 0002:00012564       ??_R3parse_error@detail@nlohmann@@8 000000001014c564     cfg.obj
 0002:00012574       ??_R2parse_error@detail@nlohmann@@8 000000001014c574     cfg.obj
 0002:00012590       ??_R1A@?0A@EA@parse_error@detail@nlohmann@@8 000000001014c590     cfg.obj
 0002:00012c30       __xmm@40e0000041000000410000003f800000 000000001014cc30     imgui.obj
 0002:00012c40       __xmm@3f000000000000004200000042000000 000000001014cc40     imgui.obj
 0002:00012c50       __xmm@3f800000000000003f80000000000000 000000001014cc50     imgui.obj
 0002:00012c60       __xmm@00000000000000004040000040800000 000000001014cc60     imgui.obj
 0002:00012c70       __xmm@40800000408000004080000041000000 000000001014cc70     imgui.obj
 0002:00012c80       __xmm@411000004160000040c0000041a80000 000000001014cc80     imgui.obj
 0002:00012c90       __xmm@40800000408000000000000041200000 000000001014cc90     imgui.obj
 0002:00012ca0       __xmm@000000003f0000003f00000000000001 000000001014cca0     imgui.obj
 0002:00012cb0       __xmm@40400000419800004198000000000000 000000001014ccb0     imgui.obj
 0002:00012cc0       __xmm@40a000003c888889bf800000bf800000 000000001014ccc0     imgui.obj
 0002:00012cd0       __xmm@3d4ccccd3e8ccccdffffffffffffffff 000000001014ccd0     imgui.obj
 0002:00012ce0       __xmm@bf800000bf800000bf800000bf800000 000000001014cce0     imgui.obj
 0002:00012cf0       __real@beaaaaab            000000001014ccf0     imgui.obj
 0002:00012cf4       __real@1e3ce508            000000001014ccf4     imgui.obj
 0002:00012d00       __xmm@ffffffffffffffff0000000100000001 000000001014cd00     imgui.obj
 0002:00012d10       __xmm@3f0000003f0000007f7fffff7f7fffff 000000001014cd10     imgui.obj
 0002:00012d20       __xmm@0000000f0000000000000000ffffffff 000000001014cd20     imgui.obj
 0002:00012d30       __xmm@7f7fffff7f7fffff0000000f0000000f 000000001014cd30     imgui.obj
 0002:00012d40       __xmm@3f8000000000000f00000000ff00ffff 000000001014cd40     imgui.obj
 0002:00012d50       __xmm@00000000ffffffffffffffff00000000 000000001014cd50     imgui.obj
 0002:00012d60       __xmm@bf800000bf8000000000000000000000 000000001014cd60     imgui.obj
 0002:00012d70       __xmm@ffffffff000000000000000000000000 000000001014cd70     imgui.obj
 0002:00012d80       __xmm@7f7fffff7f7fffff0000000000000000 000000001014cd80     imgui.obj
 0002:00012d90       __xmm@00000000000000003c23d70a00000000 000000001014cd90     imgui.obj
 0002:00012da0       __xmm@7f7fffff7f7fffff7f7fffff7f7fffff 000000001014cda0     imgui.obj
 0002:00012db0       __real@c87a0000            000000001014cdb0     imgui.obj
 0002:00012db4       __real@be4ccccd            000000001014cdb4     imgui.obj
 0002:00012db8       __real@44480000            000000001014cdb8     imgui.obj
 0002:00012dbc       __real@3f4ccccd            000000001014cdbc     imgui.obj
 0002:00012dc0       __real@3f3851ec            000000001014cdc0     imgui.obj
 0002:00012dc8       __real@bf8000003f800000    000000001014cdc8     imgui.obj
 0002:00012dd0       __xmm@7f7fffff000000000000000000000000 000000001014cdd0     imgui.obj
 0002:00012de0       __xmm@3f8000003f800000bf800000bf800000 000000001014cde0     imgui.obj
 0002:00012df0       __real@3f2b851f            000000001014cdf0     imgui.obj
 0002:00012df4       __real@3727c5ac            000000001014cdf4     imgui.obj
 0002:00012e00       __xmm@7f7fffff7f7fffffff7fffffff7fffff 000000001014ce00     imgui.obj
 0002:00012e10       __real@3faccccd            000000001014ce10     imgui.obj
 0002:00012e20       __xmm@3f0000003f0000003f0000003f000000 000000001014ce20     imgui.obj
 0002:00012e30       __real@3f266666            000000001014ce30     imgui.obj
 0002:00012e34       __real@c3b60000            000000001014ce34     imgui.obj
 0002:00012e38       __real@38d1b717            000000001014ce38     imgui.obj
 0002:00012e3c       __real@3e19999a            000000001014ce3c     imgui.obj
 0002:00012e40       __xmm@00000000000000007f7fffff7f7fffff 000000001014ce40     imgui.obj
 0002:00012e50       __xmm@00000000000000007f7fffff00000000 000000001014ce50     imgui.obj
 0002:00012e60       __xmm@00000000000000004080000040800000 000000001014ce60     imgui.obj
 0002:00012e70       __xmm@4000000040000000c0000000c0000000 000000001014ce70     imgui.obj
 0002:00012e80       __real@ff7fffff            000000001014ce80     imgui.obj
 0002:00012e90       __xmm@00000000000000004100000041800000 000000001014ce90     imgui.obj
 0002:00012ea0       __real@c1800000            000000001014cea0     imgui.obj
 0002:00012ea4       __real@41c00000            000000001014cea4     imgui.obj
 0002:00012ea8       __real@c1000000            000000001014cea8     imgui.obj
 0002:00012eb0       __xmm@0000000000000000ff7fffffff7fffff 000000001014ceb0     imgui.obj
 0002:00012ec0       __xmm@000000000000000000000000ff7fffff 000000001014cec0     imgui.obj
 0002:00012ed0       __xmm@00000000000000003f80000000000000 000000001014ced0     imgui.obj
 0002:00012ee0       __xmm@0000000000000000ff7fffff00000000 000000001014cee0     imgui.obj
 0002:00012ef0       __xmm@0000000000000000000000007f7fffff 000000001014cef0     imgui.obj
 0002:00012f00       __xmm@00000000000000000000000000000002 000000001014cf00     imgui.obj
 0002:00012f10       __real@44160000            000000001014cf10     imgui.obj
 0002:00012f14       __real@be800000            000000001014cf14     imgui.obj
 0002:00012f18       __real@3f19999a            000000001014cf18     imgui.obj
 0002:00012f20       __xmm@4060000040600000c0600000c0600000 000000001014cf20     imgui.obj
 0002:00012f30       __xmm@00000000000000003e4ccccd3f4ccccd 000000001014cf30     imgui.obj
 0002:00018df0       __xmm@3f8000003f0000003f0000003f000000 0000000010152df0     imgui_draw.obj
 0002:00018e00       __xmm@3f70a3d73d75c28f3d75c28f3d75c28f 0000000010152e00     imgui_draw.obj
 0002:00018e10       __xmm@3f70a3d73da3d70a3da3d70a3da3d70a 0000000010152e10     imgui_draw.obj
 0002:00018e20       __xmm@3f0000003f0000003edc28f63edc28f6 0000000010152e20     imgui_draw.obj
 0002:00018e30       __xmm@3f0a3d713ef5c28f3e947ae13e23d70a 0000000010152e30     imgui_draw.obj
 0002:00018e40       __xmm@3ecccccd3f7ae1483f170a3d3e851eb8 0000000010152e40     imgui_draw.obj
 0002:00018e50       __xmm@3f2b851f3f7ae1483f170a3d3e851eb8 0000000010152e50     imgui_draw.obj
 0002:00018e60       __xmm@3f8000003d23d70a3d23d70a3d23d70a 0000000010152e60     imgui_draw.obj
 0002:00018e70       __xmm@3f8000003ef5c28f3e947ae13e23d70a 0000000010152e70     imgui_draw.obj
 0002:00018e80       __xmm@3f028f5c000000000000000000000000 0000000010152e80     imgui_draw.obj
 0002:00018e90       __xmm@3f8000003e0f5c293e0f5c293e0f5c29 0000000010152e90     imgui_draw.obj
 0002:00018ea0       __xmm@3f07ae143ca3d70a3ca3d70a3ca3d70a 0000000010152ea0     imgui_draw.obj
 0002:00018eb0       __xmm@3f8000003e9eb8523e9eb8523e9eb852 0000000010152eb0     imgui_draw.obj
 0002:00018ec0       __xmm@3f8000003ed1eb853ed1eb853ed1eb85 0000000010152ec0     imgui_draw.obj
 0002:00018ed0       __xmm@3f8000003f028f5c3f028f5c3f028f5c 0000000010152ed0     imgui_draw.obj
 0002:00018ee0       __xmm@3f8000003f7ae1483f170a3d3e851eb8 0000000010152ee0     imgui_draw.obj
 0002:00018ef0       __xmm@3f8000003f6147ae3f051eb83e75c28f 0000000010152ef0     imgui_draw.obj
 0002:00018f00       __xmm@3f8000003f7ae1483f07ae143d75c28f 0000000010152f00     imgui_draw.obj
 0002:00018f10       __xmm@3e9eb8523f7ae1483f170a3d3e851eb8 0000000010152f10     imgui_draw.obj
 0002:00018f20       __xmm@3f4ccccd3f7ae1483f170a3d3e851eb8 0000000010152f20     imgui_draw.obj
 0002:00018f30       __xmm@3f47ae143f4000003ecccccd3dcccccd 0000000010152f30     imgui_draw.obj
 0002:00018f40       __xmm@3f8000003f4000003ecccccd3dcccccd 0000000010152f40     imgui_draw.obj
 0002:00018f50       __xmm@3e8000003f7ae1483f170a3d3e851eb8 0000000010152f50     imgui_draw.obj
 0002:00018f60       __xmm@3f7333333f7ae1483f170a3d3e851eb8 0000000010152f60     imgui_draw.obj
 0002:00018f70       __xmm@be9eb852bf7ae148bf170a3dbe851eb8 0000000010152f70     imgui_draw.obj
 0002:00018f80       __xmm@3f4ccccd3f4ccccd3f4ccccd3f4ccccd 0000000010152f80     imgui_draw.obj
 0002:00018f90       __xmm@3f19999a3f19999a3f19999a3f19999a 0000000010152f90     imgui_draw.obj
 0002:00018fa0       __xmm@3ecccccd3ecccccd3ecccccd3ecccccd 0000000010152fa0     imgui_draw.obj
 0002:00018fb0       __xmm@3f8000003f1c28f63f1c28f63f1c28f6 0000000010152fb0     imgui_draw.obj
 0002:00018fc0       __xmm@3f8000003eb333333edc28f63f800000 0000000010152fc0     imgui_draw.obj
 0002:00018fd0       __xmm@3f800000000000003f3333333f666666 0000000010152fd0     imgui_draw.obj
 0002:00018fe0       __xmm@3f800000000000003f19999a3f800000 0000000010152fe0     imgui_draw.obj
 0002:00018ff0       __xmm@3eb333333f7ae1483f170a3d3e851eb8 0000000010152ff0     imgui_draw.obj
 0002:00019000       __xmm@3f666666000000003f8000003f800000 0000000010153000     imgui_draw.obj
 0002:00019010       __xmm@3f3333333f8000003f8000003f800000 0000000010153010     imgui_draw.obj
 0002:00019020       __xmm@3e4ccccd3f4ccccd3f4ccccd3f4ccccd 0000000010153020     imgui_draw.obj
 0002:00019030       __xmm@3eb333333f4ccccd3f4ccccd3f4ccccd 0000000010153030     imgui_draw.obj
 0002:00019040       __xmm@3f8000003f6666663f6666663f666666 0000000010153040     imgui_draw.obj
 0002:00019050       __xmm@3f8000003f19999a3f19999a3f19999a 0000000010153050     imgui_draw.obj
 0002:00019060       __xmm@3f333333000000000000000000000000 0000000010153060     imgui_draw.obj
 0002:00019070       __xmm@3f6b851f3e0f5c293de147ae3de147ae 0000000010153070     imgui_draw.obj
 0002:00019080       __xmm@3ec7ae143edc28f63edc28f63edc28f6 0000000010153080     imgui_draw.obj
 0002:00019090       __xmm@3ecccccd3f30a3d73ef0a3d73ef0a3d7 0000000010153090     imgui_draw.obj
 0002:000190a0       __xmm@3f30a3d73f23d70a3ed1eb853ed70a3d 00000000101530a0     imgui_draw.obj
 0002:000190b0       __xmm@3f547ae13f0a3d713e8a3d713e8a3d71 00000000101530b0     imgui_draw.obj
 0002:000190c0       __xmm@3f5eb8523f2147ae3ea3d70a3ea3d70a 00000000101530c0     imgui_draw.obj
 0002:000190d0       __xmm@3e4ccccd3f4ccccd3ecccccd3ecccccd 00000000101530d0     imgui_draw.obj
 0002:000190e0       __xmm@3f4ccccd3f0ccccd3ecccccd3ecccccd 00000000101530e0     imgui_draw.obj
 0002:000190f0       __xmm@3f19999a3e99999a3e8000003e4ccccd 00000000101530f0     imgui_draw.obj
 0002:00019100       __xmm@3e99999a3f4ccccd3ecccccd3ecccccd 0000000010153100     imgui_draw.obj
 0002:00019110       __xmm@3ecccccd3f4ccccd3ecccccd3ecccccd 0000000010153110     imgui_draw.obj
 0002:00019120       __xmm@3f19999a3f4ccccd3ec7ae143ed1eb85 0000000010153120     imgui_draw.obj
 0002:00019130       __xmm@3f0000003f6666663f6666663f666666 0000000010153130     imgui_draw.obj
 0002:00019140       __xmm@3e99999a3f8000003f8000003f800000 0000000010153140     imgui_draw.obj
 0002:00019150       __xmm@3f1eb8523f1c28f63ecccccd3eb33333 0000000010153150     imgui_draw.obj
 0002:00019160       __xmm@3f4a3d713f35c28f3ef5c28f3ecccccd 0000000010153160     imgui_draw.obj
 0002:00019170       __xmm@3f8000003f4ccccd3f0a3d713eeb851f 0000000010153170     imgui_draw.obj
 0002:00019180       __xmm@3ee666663f6666663ecccccd3ecccccd 0000000010153180     imgui_draw.obj
 0002:00019190       __xmm@3f4ccccd3f6666663ee666663ee66666 0000000010153190     imgui_draw.obj
 0002:000191a0       __xmm@3f4ccccd3f5eb8523f07ae143f07ae14 00000000101531a0     imgui_draw.obj
 0002:000191b0       __xmm@3f19999a3f0000003f0000003f000000 00000000101531b0     imgui_draw.obj
 0002:000191c0       __xmm@3f8000003f3333333f19999a3f19999a 00000000101531c0     imgui_draw.obj
 0002:000191d0       __xmm@3f8000003f6666663f3333333f333333 00000000101531d0     imgui_draw.obj
 0002:000191e0       __xmm@3e23d70a3f8000003f8000003f800000 00000000101531e0     imgui_draw.obj
 0002:000191f0       __xmm@3f19999a3f8000003f51eb853f47ae14 00000000101531f0     imgui_draw.obj
 0002:00019200       __xmm@3f6666663f8000003f51eb853f47ae14 0000000010153200     imgui_draw.obj
 0002:00019210       __xmm@bee66666bf666666becccccdbecccccd 0000000010153210     imgui_draw.obj
 0002:00019220       __xmm@bf4ccccdbf5eb852bf07ae14bf07ae14 0000000010153220     imgui_draw.obj
 0002:00019230       __xmm@3eb333333f8000000000000000000000 0000000010153230     imgui_draw.obj
 0002:00019240       __xmm@3eb333333e4ccccd3e4ccccd3e4ccccd 0000000010153240     imgui_draw.obj
 0002:00019250       __xmm@4600000046000000c6000000c6000000 0000000010153250     imgui_draw.obj
 0002:00019260       __real@befae148            0000000010153260     imgui_draw.obj
 0002:00019270       __xmm@00000001000000030000000000000000 0000000010153270     imgui_draw.obj
 0002:00019280       __xmm@00ffffff00ffffff00ffffff00ffffff 0000000010153280     imgui_draw.obj
 0002:00019290       __real@42da0000            0000000010153290     imgui_draw.obj
 0002:00019294       __real@3eb33333            0000000010153294     imgui_draw.obj
 0002:000192a0       __xmm@00000000000000000000000001010101 00000000101532a0     imgui_draw.obj
 0002:000192b0       __xmm@40e0000040c0000040a0000040800000 00000000101532b0     imgui_draw.obj
 0002:000192c0       __xmm@40400000400000003f80000000000000 00000000101532c0     imgui_draw.obj
 0002:000192d0       __xmm@41700000416000004150000041400000 00000000101532d0     imgui_draw.obj
 0002:000192e0       __xmm@41300000412000004110000041000000 00000000101532e0     imgui_draw.obj
 0002:000192f0       __xmm@4f0000004f0000004f0000004f000000 00000000101532f0     imgui_draw.obj
 0002:00019300       __xmm@800000ff800000ff800000ff800000ff 0000000010153300     imgui_draw.obj
 0002:00019310       __xmm@41b8000041b0000041a8000041a00000 0000000010153310     imgui_draw.obj
 0002:00019320       __xmm@41980000419000004188000041800000 0000000010153320     imgui_draw.obj
 0002:00019330       __xmm@41f8000041f0000041e8000041e00000 0000000010153330     imgui_draw.obj
 0002:00019340       __xmm@41d8000041d0000041c8000041c00000 0000000010153340     imgui_draw.obj
 0002:00019350       __xmm@421c0000421800004214000042100000 0000000010153350     imgui_draw.obj
 0002:00019360       __xmm@420c0000420800004204000042000000 0000000010153360     imgui_draw.obj
 0002:00019370       __xmm@423c0000423800004234000042300000 0000000010153370     imgui_draw.obj
 0002:00019380       __xmm@422c0000422800004224000042200000 0000000010153380     imgui_draw.obj
 0002:00019390       __xmm@425c0000425800004254000042500000 0000000010153390     imgui_draw.obj
 0002:000193a0       __xmm@424c0000424800004244000042400000 00000000101533a0     imgui_draw.obj
 0002:000193b0       __xmm@427c0000427800004274000042700000 00000000101533b0     imgui_draw.obj
 0002:000193c0       __xmm@426c0000426800004264000042600000 00000000101533c0     imgui_draw.obj
 0002:000193d0       __xmm@428e0000428c0000428a000042880000 00000000101533d0     imgui_draw.obj
 0002:000193e0       __xmm@42860000428400004282000042800000 00000000101533e0     imgui_draw.obj
 0002:000193f0       __xmm@429e0000429c0000429a000042980000 00000000101533f0     imgui_draw.obj
 0002:00019400       __xmm@42960000429400004292000042900000 0000000010153400     imgui_draw.obj
 0002:00019410       __xmm@42ae000042ac000042aa000042a80000 0000000010153410     imgui_draw.obj
 0002:00019420       __xmm@42a6000042a4000042a2000042a00000 0000000010153420     imgui_draw.obj
 0002:00019430       __xmm@42be000042bc000042ba000042b80000 0000000010153430     imgui_draw.obj
 0002:00019440       __xmm@42b6000042b4000042b2000042b00000 0000000010153440     imgui_draw.obj
 0002:00019450       __xmm@42ce000042cc000042ca000042c80000 0000000010153450     imgui_draw.obj
 0002:00019460       __xmm@42c6000042c4000042c2000042c00000 0000000010153460     imgui_draw.obj
 0002:00019470       __xmm@42de000042dc000042da000042d80000 0000000010153470     imgui_draw.obj
 0002:00019480       __xmm@42d6000042d4000042d2000042d00000 0000000010153480     imgui_draw.obj
 0002:00019490       __xmm@42ee000042ec000042ea000042e80000 0000000010153490     imgui_draw.obj
 0002:000194a0       __xmm@42e6000042e4000042e2000042e00000 00000000101534a0     imgui_draw.obj
 0002:000194b0       __xmm@42fe000042fc000042fa000042f80000 00000000101534b0     imgui_draw.obj
 0002:000194c0       __xmm@42f6000042f4000042f2000042f00000 00000000101534c0     imgui_draw.obj
 0002:000194d0       __xmm@43070000430600004305000043040000 00000000101534d0     imgui_draw.obj
 0002:000194e0       __xmm@43030000430200004301000043000000 00000000101534e0     imgui_draw.obj
 0002:000194f0       __xmm@430f0000430e0000430d0000430c0000 00000000101534f0     imgui_draw.obj
 0002:00019500       __xmm@430b0000430a00004309000043080000 0000000010153500     imgui_draw.obj
 0002:00019510       __xmm@43170000431600004315000043140000 0000000010153510     imgui_draw.obj
 0002:00019520       __xmm@43130000431200004311000043100000 0000000010153520     imgui_draw.obj
 0002:00019530       __xmm@431f0000431e0000431d0000431c0000 0000000010153530     imgui_draw.obj
 0002:00019540       __xmm@431b0000431a00004319000043180000 0000000010153540     imgui_draw.obj
 0002:00019550       __xmm@43270000432600004325000043240000 0000000010153550     imgui_draw.obj
 0002:00019560       __xmm@43230000432200004321000043200000 0000000010153560     imgui_draw.obj
 0002:00019570       __xmm@432f0000432e0000432d0000432c0000 0000000010153570     imgui_draw.obj
 0002:00019580       __xmm@432b0000432a00004329000043280000 0000000010153580     imgui_draw.obj
 0002:00019590       __xmm@43370000433600004335000043340000 0000000010153590     imgui_draw.obj
 0002:000195a0       __xmm@43330000433200004331000043300000 00000000101535a0     imgui_draw.obj
 0002:000195b0       __xmm@433f0000433e0000433d0000433c0000 00000000101535b0     imgui_draw.obj
 0002:000195c0       __xmm@433b0000433a00004339000043380000 00000000101535c0     imgui_draw.obj
 0002:000195d0       __xmm@43470000434600004345000043440000 00000000101535d0     imgui_draw.obj
 0002:000195e0       __xmm@43430000434200004341000043400000 00000000101535e0     imgui_draw.obj
 0002:000195f0       __xmm@434f0000434e0000434d0000434c0000 00000000101535f0     imgui_draw.obj
 0002:00019600       __xmm@434b0000434a00004349000043480000 0000000010153600     imgui_draw.obj
 0002:00019610       __xmm@43570000435600004355000043540000 0000000010153610     imgui_draw.obj
 0002:00019620       __xmm@43530000435200004351000043500000 0000000010153620     imgui_draw.obj
 0002:00019630       __xmm@435f0000435e0000435d0000435c0000 0000000010153630     imgui_draw.obj
 0002:00019640       __xmm@435b0000435a00004359000043580000 0000000010153640     imgui_draw.obj
 0002:00019650       __xmm@43670000436600004365000043640000 0000000010153650     imgui_draw.obj
 0002:00019660       __xmm@43630000436200004361000043600000 0000000010153660     imgui_draw.obj
 0002:00019670       __xmm@436f0000436e0000436d0000436c0000 0000000010153670     imgui_draw.obj
 0002:00019680       __xmm@436b0000436a00004369000043680000 0000000010153680     imgui_draw.obj
 0002:00019690       __xmm@43770000437600004375000043740000 0000000010153690     imgui_draw.obj
 0002:000196a0       __xmm@43730000437200004371000043700000 00000000101536a0     imgui_draw.obj
 0002:000196b0       __xmm@437f0000437e0000437d0000437c0000 00000000101536b0     imgui_draw.obj
 0002:000196c0       __xmm@437b0000437a00004379000043780000 00000000101536c0     imgui_draw.obj
 0002:000196d0       __real@3f7d70a4            00000000101536d0     imgui_draw.obj
 0002:000196e0       __xmm@2e2e2e2e2e2e2e2e2e2e2e2e2e2e2e2e 00000000101536e0     imgui_draw.obj
 0002:000196f0       __xmm@00000000000000002e2e2e2e2e2e2e2e 00000000101536f0     imgui_draw.obj
 0002:00019700       __xmm@58585858585858585858585858585858 0000000010153700     imgui_draw.obj
 0002:00019710       __xmm@00000000000000005858585858585858 0000000010153710     imgui_draw.obj
 0002:00019720       __xmm@000000003f4000003f5db22dbf400000 0000000010153720     imgui_draw.obj
 0002:00019730       __real@bf5db22d            0000000010153730     imgui_draw.obj
 0002:00019740       __xmm@3f40000000000000bf400000bf5db22d 0000000010153740     imgui_draw.obj
 0002:00019750       __real@3f5db22d            0000000010153750     imgui_draw.obj
 0002:00019754       __real@37800000            0000000010153754     imgui_draw.obj
 0002:00019758       __real@38800000            0000000010153758     imgui_draw.obj
 0002:00019760       __xmm@00000000000000003e8000003e800000 0000000010153760     imgui_draw.obj
 0002:00019870       __xmm@00000000000000000000003f0000003f 0000000010153870     imgui_freetype.obj
 0002:00019880       __xmm@00000000000000150000020000000001 0000000010153880     imgui_impl_dx9.obj
 0002:00019890       __xmm@00000026000000270000002500000009 0000000010153890     imgui_impl_win32.obj
 0002:000198a0       __xmm@00000024000000220000002100000028 00000000101538a0     imgui_impl_win32.obj
 0002:000198b0       __xmm@000000080000002e0000002d00000023 00000000101538b0     imgui_impl_win32.obj
 0002:000198c0       __xmm@0000000d0000001b0000000d00000020 00000000101538c0     imgui_impl_win32.obj
 0002:000198d0       __xmm@00000058000000560000004300000041 00000000101538d0     imgui_impl_win32.obj
 0002:000198e0       __xmm@00000000000000000001000800044000 00000000101538e0     imgui_impl_win32.obj
 0002:000198f0       __xmm@00000000000000000000000002000100 00000000101538f0     imgui_impl_win32.obj
 0002:00019900       __real@c6c2ae00            0000000010153900     imgui_impl_win32.obj
 0002:00019904       __real@46c2ac00            0000000010153904     imgui_impl_win32.obj
 0002:00019908       __real@c6c2ac00            0000000010153908     imgui_impl_win32.obj
 0002:00019b14       __real@3f350481            0000000010153b14     imgui_widgets.obj
 0002:00019b20       __xmm@0000000000000000c0000000c0000000 0000000010153b20     imgui_widgets.obj
 0002:00019b30       __xmm@0000000000000000c0800000c0a00000 0000000010153b30     imgui_widgets.obj
 0002:00019b40       __xmm@00000000000000004040000040000000 0000000010153b40     imgui_widgets.obj
 0002:00019b50       __real@40900000            0000000010153b50     imgui_widgets.obj
 0002:00019b58       __real@3db0b0b13f800000    0000000010153b58     imgui_widgets.obj
 0002:00019b60       __real@3de0e0e23f800000    0000000010153b60     imgui_widgets.obj
 0002:00019b70       __xmm@3f8000003f34b4b53f34b4b53f34b4b5 0000000010153b70     imgui_widgets.obj
 0002:00019b80       __real@3f7cfcfd3f34b4b5    0000000010153b80     imgui_widgets.obj
 0002:00019b88       __real@3f34b4b5            0000000010153b88     imgui_widgets.obj
 0002:00019b8c       __real@c3998000            0000000010153b8c     imgui_widgets.obj
 0002:00019b90       __real@7fefffffffffffff    0000000010153b90     imgui_widgets.obj
 0002:00019b98       __real@ffefffffffffffff    0000000010153b98     imgui_widgets.obj
 0002:00019ba0       __xmm@412000003dcccccd0000000500000003 0000000010153ba0     imgui_widgets.obj
 0002:00019bb0       __real@00800000            0000000010153bb0     imgui_widgets.obj
 0002:00019bb8       __real@5f80000000000000    0000000010153bb8     imgui_widgets.obj
 0002:00019bc0       __xmm@00000000000000004530000043300000 0000000010153bc0     imgui_widgets.obj
 0002:00019bd0       __xmm@45300000000000004330000000000000 0000000010153bd0     imgui_widgets.obj
 0002:00019be0       __real@43e0000000000000    0000000010153be0     imgui_widgets.obj
 0002:00019be8       __real@47efffffe0000000    0000000010153be8     imgui_widgets.obj
 0002:00019bf0       __real@3eb0c6f7a0000000    0000000010153bf0     imgui_widgets.obj
 0002:00019c00       __xmm@00000000000000000000000500000003 0000000010153c00     imgui_widgets.obj
 0002:00019c10       __real@c059000000000000    0000000010153c10     imgui_widgets.obj
 0002:00019c18       __real@4059000000000000    0000000010153c18     imgui_widgets.obj
 0002:00019c20       __xmm@42100000435c00004188000000000000 0000000010153c20     imgui_widgets.obj
 0002:00019c30       __xmm@00010000000000000000000000000000 0000000010153c30     imgui_widgets.obj
 0002:00019c40       __real@bfc00000            0000000010153c40     imgui_widgets.obj
 0002:00019c50       __xmm@bf000000bf000000bf000000bf000000 0000000010153c50     imgui_widgets.obj
 0002:00019c60       __xmm@0000000000000000000000ff000000ff 0000000010153c60     imgui_widgets.obj
 0002:00019c70       __real@403f5c29            0000000010153c70     imgui_widgets.obj
 0002:00019c80       __xmm@0000000000000000c1a000003f800000 0000000010153c80     imgui_widgets.obj
 0002:00019c90       __real@43180000            0000000010153c90     imgui_widgets.obj
 0002:00019ca0       __xmm@00000000000000004317000043170000 0000000010153ca0     imgui_widgets.obj
 0002:00019cb0       __real@43170000            0000000010153cb0     imgui_widgets.obj
 0002:00019cb4       __real@b727c5ac            0000000010153cb4     imgui_widgets.obj
 0002:00019cc0       __xmm@ff000000ff0000000000000000000000 0000000010153cc0     imgui_widgets.obj
 0002:00019cd0       __xmm@3f8000000000000f00000000ff000000 0000000010153cd0     imgui_widgets.obj
 0002:00019ce0       __xmm@00000000000000004318000043180000 0000000010153ce0     imgui_widgets.obj
 0002:00019cf0       __real@41caaaab            0000000010153cf0     imgui_widgets.obj
 0002:00019d00       __xmm@ff00ffffff00ffffff0000ffff0000ff 0000000010153d00     imgui_widgets.obj
 0002:00019d10       __real@424aaaab            0000000010153d10     imgui_widgets.obj
 0002:00019d20       __xmm@ff00ff00ff00ff00ff00ffffff00ffff 0000000010153d20     imgui_widgets.obj
 0002:00019d30       __xmm@ffffff00ffffff00ff00ff00ff00ff00 0000000010153d30     imgui_widgets.obj
 0002:00019d40       __real@42caaaab            0000000010153d40     imgui_widgets.obj
 0002:00019d50       __xmm@ffff0000ffff0000ffffff00ffffff00 0000000010153d50     imgui_widgets.obj
 0002:00019d60       __real@42fd5556            0000000010153d60     imgui_widgets.obj
 0002:00019d70       __xmm@ffff00ffffff00ffffff0000ffff0000 0000000010153d70     imgui_widgets.obj
 0002:00019d80       __xmm@ff0000ffff0000ffffff00ffffff00ff 0000000010153d80     imgui_widgets.obj
 0002:00019d90       __xmm@00000000000000004000000040000000 0000000010153d90     imgui_widgets.obj
 0002:00019da0       __real@43148000            0000000010153da0     imgui_widgets.obj
 0002:00019da4       __real@41600000            0000000010153da4     imgui_widgets.obj
 0002:00019da8       __real@41e0000000000000    0000000010153da8     imgui_widgets.obj
 0002:00019db0       __xmm@7fffffffffffffff7fffffffffffffff 0000000010153db0     imgui_widgets.obj
 0002:00019dc0       __real@5f000000            0000000010153dc0     imgui_widgets.obj
 0002:00019dc8       __real@4024000000000000    0000000010153dc8     imgui_widgets.obj
 0002:0001a4c0       ??_7type_info@@6B@         00000000101544c0     msvcrt:std_type_info_static.obj
 0002:0001a5e0       _af_autofitter_interface   00000000101545e0     freetype:autofit.obj
 0002:0001a6f0       _af_blue_strings           00000000101546f0     freetype:autofit.obj
 0002:0001bb60       _af_blue_stringsets        0000000010155b60     freetype:autofit.obj
 0002:0001c330       _autofit_module_class      0000000010156330     freetype:autofit.obj
 0002:0001c354       _af_writing_system_classes 0000000010156354     freetype:autofit.obj
 0002:0001c368       _af_adlm_script_class      0000000010156368     freetype:autofit.obj
 0002:0001c37c       _af_arab_script_class      000000001015637c     freetype:autofit.obj
 0002:0001c390       _af_armn_script_class      0000000010156390     freetype:autofit.obj
 0002:0001c3a4       _af_avst_script_class      00000000101563a4     freetype:autofit.obj
 0002:0001c3b8       _af_bamu_script_class      00000000101563b8     freetype:autofit.obj
 0002:0001c3cc       _af_beng_script_class      00000000101563cc     freetype:autofit.obj
 0002:0001c3e0       _af_buhd_script_class      00000000101563e0     freetype:autofit.obj
 0002:0001c3f4       _af_cakm_script_class      00000000101563f4     freetype:autofit.obj
 0002:0001c408       _af_cans_script_class      0000000010156408     freetype:autofit.obj
 0002:0001c41c       _af_cari_script_class      000000001015641c     freetype:autofit.obj
 0002:0001c430       _af_cher_script_class      0000000010156430     freetype:autofit.obj
 0002:0001c444       _af_copt_script_class      0000000010156444     freetype:autofit.obj
 0002:0001c458       _af_cprt_script_class      0000000010156458     freetype:autofit.obj
 0002:0001c46c       _af_cyrl_script_class      000000001015646c     freetype:autofit.obj
 0002:0001c480       _af_deva_script_class      0000000010156480     freetype:autofit.obj
 0002:0001c494       _af_dsrt_script_class      0000000010156494     freetype:autofit.obj
 0002:0001c4a8       _af_ethi_script_class      00000000101564a8     freetype:autofit.obj
 0002:0001c4bc       _af_geor_script_class      00000000101564bc     freetype:autofit.obj
 0002:0001c4d0       _af_geok_script_class      00000000101564d0     freetype:autofit.obj
 0002:0001c4e4       _af_glag_script_class      00000000101564e4     freetype:autofit.obj
 0002:0001c4f8       _af_goth_script_class      00000000101564f8     freetype:autofit.obj
 0002:0001c50c       _af_grek_script_class      000000001015650c     freetype:autofit.obj
 0002:0001c520       _af_gujr_script_class      0000000010156520     freetype:autofit.obj
 0002:0001c534       _af_guru_script_class      0000000010156534     freetype:autofit.obj
 0002:0001c548       _af_hebr_script_class      0000000010156548     freetype:autofit.obj
 0002:0001c55c       _af_kali_script_class      000000001015655c     freetype:autofit.obj
 0002:0001c570       _af_khmr_script_class      0000000010156570     freetype:autofit.obj
 0002:0001c584       _af_khms_script_class      0000000010156584     freetype:autofit.obj
 0002:0001c598       _af_knda_script_class      0000000010156598     freetype:autofit.obj
 0002:0001c5ac       _af_lao_script_class       00000000101565ac     freetype:autofit.obj
 0002:0001c5c0       _af_latn_script_class      00000000101565c0     freetype:autofit.obj
 0002:0001c5d4       _af_latb_script_class      00000000101565d4     freetype:autofit.obj
 0002:0001c5e8       _af_latp_script_class      00000000101565e8     freetype:autofit.obj
 0002:0001c5fc       _af_lisu_script_class      00000000101565fc     freetype:autofit.obj
 0002:0001c610       _af_mlym_script_class      0000000010156610     freetype:autofit.obj
 0002:0001c624       _af_mymr_script_class      0000000010156624     freetype:autofit.obj
 0002:0001c638       _af_nkoo_script_class      0000000010156638     freetype:autofit.obj
 0002:0001c64c       _af_none_script_class      000000001015664c     freetype:autofit.obj
 0002:0001c660       _af_olck_script_class      0000000010156660     freetype:autofit.obj
 0002:0001c674       _af_orkh_script_class      0000000010156674     freetype:autofit.obj
 0002:0001c688       _af_osge_script_class      0000000010156688     freetype:autofit.obj
 0002:0001c69c       _af_osma_script_class      000000001015669c     freetype:autofit.obj
 0002:0001c6b0       _af_saur_script_class      00000000101566b0     freetype:autofit.obj
 0002:0001c6c4       _af_shaw_script_class      00000000101566c4     freetype:autofit.obj
 0002:0001c6d8       _af_sinh_script_class      00000000101566d8     freetype:autofit.obj
 0002:0001c6ec       _af_sund_script_class      00000000101566ec     freetype:autofit.obj
 0002:0001c700       _af_taml_script_class      0000000010156700     freetype:autofit.obj
 0002:0001c714       _af_tavt_script_class      0000000010156714     freetype:autofit.obj
 0002:0001c728       _af_telu_script_class      0000000010156728     freetype:autofit.obj
 0002:0001c73c       _af_tfng_script_class      000000001015673c     freetype:autofit.obj
 0002:0001c750       _af_thai_script_class      0000000010156750     freetype:autofit.obj
 0002:0001c764       _af_vaii_script_class      0000000010156764     freetype:autofit.obj
 0002:0001c778       _af_limb_script_class      0000000010156778     freetype:autofit.obj
 0002:0001c78c       _af_orya_script_class      000000001015678c     freetype:autofit.obj
 0002:0001c7a0       _af_sylo_script_class      00000000101567a0     freetype:autofit.obj
 0002:0001c7b4       _af_tibt_script_class      00000000101567b4     freetype:autofit.obj
 0002:0001c7c8       _af_hani_script_class      00000000101567c8     freetype:autofit.obj
 0002:0001c7e0       _af_script_classes         00000000101567e0     freetype:autofit.obj
 0002:0001c8c8       _af_adlm_dflt_style_class  00000000101568c8     freetype:autofit.obj
 0002:0001c8dc       _af_arab_dflt_style_class  00000000101568dc     freetype:autofit.obj
 0002:0001c8f0       _af_armn_dflt_style_class  00000000101568f0     freetype:autofit.obj
 0002:0001c904       _af_avst_dflt_style_class  0000000010156904     freetype:autofit.obj
 0002:0001c918       _af_bamu_dflt_style_class  0000000010156918     freetype:autofit.obj
 0002:0001c92c       _af_beng_dflt_style_class  000000001015692c     freetype:autofit.obj
 0002:0001c940       _af_buhd_dflt_style_class  0000000010156940     freetype:autofit.obj
 0002:0001c954       _af_cakm_dflt_style_class  0000000010156954     freetype:autofit.obj
 0002:0001c968       _af_cans_dflt_style_class  0000000010156968     freetype:autofit.obj
 0002:0001c97c       _af_cari_dflt_style_class  000000001015697c     freetype:autofit.obj
 0002:0001c990       _af_cher_dflt_style_class  0000000010156990     freetype:autofit.obj
 0002:0001c9a4       _af_copt_dflt_style_class  00000000101569a4     freetype:autofit.obj
 0002:0001c9b8       _af_cprt_dflt_style_class  00000000101569b8     freetype:autofit.obj
 0002:0001c9cc       _af_cyrl_c2cp_style_class  00000000101569cc     freetype:autofit.obj
 0002:0001c9e0       _af_cyrl_c2sc_style_class  00000000101569e0     freetype:autofit.obj
 0002:0001c9f4       _af_cyrl_ordn_style_class  00000000101569f4     freetype:autofit.obj
 0002:0001ca08       _af_cyrl_pcap_style_class  0000000010156a08     freetype:autofit.obj
 0002:0001ca1c       _af_cyrl_sinf_style_class  0000000010156a1c     freetype:autofit.obj
 0002:0001ca30       _af_cyrl_smcp_style_class  0000000010156a30     freetype:autofit.obj
 0002:0001ca44       _af_cyrl_subs_style_class  0000000010156a44     freetype:autofit.obj
 0002:0001ca58       _af_cyrl_sups_style_class  0000000010156a58     freetype:autofit.obj
 0002:0001ca6c       _af_cyrl_titl_style_class  0000000010156a6c     freetype:autofit.obj
 0002:0001ca80       _af_cyrl_dflt_style_class  0000000010156a80     freetype:autofit.obj
 0002:0001ca94       _af_deva_dflt_style_class  0000000010156a94     freetype:autofit.obj
 0002:0001caa8       _af_dsrt_dflt_style_class  0000000010156aa8     freetype:autofit.obj
 0002:0001cabc       _af_ethi_dflt_style_class  0000000010156abc     freetype:autofit.obj
 0002:0001cad0       _af_geor_dflt_style_class  0000000010156ad0     freetype:autofit.obj
 0002:0001cae4       _af_geok_dflt_style_class  0000000010156ae4     freetype:autofit.obj
 0002:0001caf8       _af_glag_dflt_style_class  0000000010156af8     freetype:autofit.obj
 0002:0001cb0c       _af_goth_dflt_style_class  0000000010156b0c     freetype:autofit.obj
 0002:0001cb20       _af_grek_c2cp_style_class  0000000010156b20     freetype:autofit.obj
 0002:0001cb34       _af_grek_c2sc_style_class  0000000010156b34     freetype:autofit.obj
 0002:0001cb48       _af_grek_ordn_style_class  0000000010156b48     freetype:autofit.obj
 0002:0001cb5c       _af_grek_pcap_style_class  0000000010156b5c     freetype:autofit.obj
 0002:0001cb70       _af_grek_sinf_style_class  0000000010156b70     freetype:autofit.obj
 0002:0001cb84       _af_grek_smcp_style_class  0000000010156b84     freetype:autofit.obj
 0002:0001cb98       _af_grek_subs_style_class  0000000010156b98     freetype:autofit.obj
 0002:0001cbac       _af_grek_sups_style_class  0000000010156bac     freetype:autofit.obj
 0002:0001cbc0       _af_grek_titl_style_class  0000000010156bc0     freetype:autofit.obj
 0002:0001cbd4       _af_grek_dflt_style_class  0000000010156bd4     freetype:autofit.obj
 0002:0001cbe8       _af_gujr_dflt_style_class  0000000010156be8     freetype:autofit.obj
 0002:0001cbfc       _af_guru_dflt_style_class  0000000010156bfc     freetype:autofit.obj
 0002:0001cc10       _af_hebr_dflt_style_class  0000000010156c10     freetype:autofit.obj
 0002:0001cc24       _af_kali_dflt_style_class  0000000010156c24     freetype:autofit.obj
 0002:0001cc38       _af_khmr_dflt_style_class  0000000010156c38     freetype:autofit.obj
 0002:0001cc4c       _af_khms_dflt_style_class  0000000010156c4c     freetype:autofit.obj
 0002:0001cc60       _af_knda_dflt_style_class  0000000010156c60     freetype:autofit.obj
 0002:0001cc74       _af_lao_dflt_style_class   0000000010156c74     freetype:autofit.obj
 0002:0001cc88       _af_latn_c2cp_style_class  0000000010156c88     freetype:autofit.obj
 0002:0001cc9c       _af_latn_c2sc_style_class  0000000010156c9c     freetype:autofit.obj
 0002:0001ccb0       _af_latn_ordn_style_class  0000000010156cb0     freetype:autofit.obj
 0002:0001ccc4       _af_latn_pcap_style_class  0000000010156cc4     freetype:autofit.obj
 0002:0001ccd8       _af_latn_sinf_style_class  0000000010156cd8     freetype:autofit.obj
 0002:0001ccec       _af_latn_smcp_style_class  0000000010156cec     freetype:autofit.obj
 0002:0001cd00       _af_latn_subs_style_class  0000000010156d00     freetype:autofit.obj
 0002:0001cd14       _af_latn_sups_style_class  0000000010156d14     freetype:autofit.obj
 0002:0001cd28       _af_latn_titl_style_class  0000000010156d28     freetype:autofit.obj
 0002:0001cd3c       _af_latn_dflt_style_class  0000000010156d3c     freetype:autofit.obj
 0002:0001cd50       _af_latb_dflt_style_class  0000000010156d50     freetype:autofit.obj
 0002:0001cd64       _af_latp_dflt_style_class  0000000010156d64     freetype:autofit.obj
 0002:0001cd78       _af_lisu_dflt_style_class  0000000010156d78     freetype:autofit.obj
 0002:0001cd8c       _af_mlym_dflt_style_class  0000000010156d8c     freetype:autofit.obj
 0002:0001cda0       _af_mymr_dflt_style_class  0000000010156da0     freetype:autofit.obj
 0002:0001cdb4       _af_nkoo_dflt_style_class  0000000010156db4     freetype:autofit.obj
 0002:0001cdc8       _af_none_dflt_style_class  0000000010156dc8     freetype:autofit.obj
 0002:0001cddc       _af_olck_dflt_style_class  0000000010156ddc     freetype:autofit.obj
 0002:0001cdf0       _af_orkh_dflt_style_class  0000000010156df0     freetype:autofit.obj
 0002:0001ce04       _af_osge_dflt_style_class  0000000010156e04     freetype:autofit.obj
 0002:0001ce18       _af_osma_dflt_style_class  0000000010156e18     freetype:autofit.obj
 0002:0001ce2c       _af_saur_dflt_style_class  0000000010156e2c     freetype:autofit.obj
 0002:0001ce40       _af_shaw_dflt_style_class  0000000010156e40     freetype:autofit.obj
 0002:0001ce54       _af_sinh_dflt_style_class  0000000010156e54     freetype:autofit.obj
 0002:0001ce68       _af_sund_dflt_style_class  0000000010156e68     freetype:autofit.obj
 0002:0001ce7c       _af_taml_dflt_style_class  0000000010156e7c     freetype:autofit.obj
 0002:0001ce90       _af_tavt_dflt_style_class  0000000010156e90     freetype:autofit.obj
 0002:0001cea4       _af_telu_dflt_style_class  0000000010156ea4     freetype:autofit.obj
 0002:0001ceb8       _af_tfng_dflt_style_class  0000000010156eb8     freetype:autofit.obj
 0002:0001cecc       _af_thai_dflt_style_class  0000000010156ecc     freetype:autofit.obj
 0002:0001cee0       _af_vaii_dflt_style_class  0000000010156ee0     freetype:autofit.obj
 0002:0001cef4       _af_limb_dflt_style_class  0000000010156ef4     freetype:autofit.obj
 0002:0001cf08       _af_orya_dflt_style_class  0000000010156f08     freetype:autofit.obj
 0002:0001cf1c       _af_sylo_dflt_style_class  0000000010156f1c     freetype:autofit.obj
 0002:0001cf30       _af_tibt_dflt_style_class  0000000010156f30     freetype:autofit.obj
 0002:0001cf44       _af_hani_dflt_style_class  0000000010156f44     freetype:autofit.obj
 0002:0001cf58       _af_style_classes          0000000010156f58     freetype:autofit.obj
 0002:0001d0ac       _af_latin_writing_system_class 00000000101570ac     freetype:autofit.obj
 0002:0001d0cc       _af_cjk_writing_system_class 00000000101570cc     freetype:autofit.obj
 0002:0001d0ec       _af_dummy_writing_system_class 00000000101570ec     freetype:autofit.obj
 0002:0001d10c       _af_adlm_uniranges         000000001015710c     freetype:autofit.obj
 0002:0001d11c       _af_arab_uniranges         000000001015711c     freetype:autofit.obj
 0002:0001d154       _af_armn_uniranges         0000000010157154     freetype:autofit.obj
 0002:0001d16c       _af_avst_uniranges         000000001015716c     freetype:autofit.obj
 0002:0001d17c       _af_bamu_uniranges         000000001015717c     freetype:autofit.obj
 0002:0001d18c       _af_beng_uniranges         000000001015718c     freetype:autofit.obj
 0002:0001d19c       _af_buhd_uniranges         000000001015719c     freetype:autofit.obj
 0002:0001d1ac       _af_cakm_uniranges         00000000101571ac     freetype:autofit.obj
 0002:0001d1bc       _af_cans_uniranges         00000000101571bc     freetype:autofit.obj
 0002:0001d1d4       _af_cari_uniranges         00000000101571d4     freetype:autofit.obj
 0002:0001d1e4       _af_cher_uniranges         00000000101571e4     freetype:autofit.obj
 0002:0001d1fc       _af_copt_uniranges         00000000101571fc     freetype:autofit.obj
 0002:0001d20c       _af_cprt_uniranges         000000001015720c     freetype:autofit.obj
 0002:0001d21c       _af_cyrl_uniranges         000000001015721c     freetype:autofit.obj
 0002:0001d24c       _af_deva_uniranges         000000001015724c     freetype:autofit.obj
 0002:0001d284       _af_dsrt_uniranges         0000000010157284     freetype:autofit.obj
 0002:0001d294       _af_ethi_uniranges         0000000010157294     freetype:autofit.obj
 0002:0001d2bc       _af_geor_uniranges         00000000101572bc     freetype:autofit.obj
 0002:0001d2d4       _af_geok_uniranges         00000000101572d4     freetype:autofit.obj
 0002:0001d2ec       _af_glag_uniranges         00000000101572ec     freetype:autofit.obj
 0002:0001d304       _af_goth_uniranges         0000000010157304     freetype:autofit.obj
 0002:0001d314       _af_grek_uniranges         0000000010157314     freetype:autofit.obj
 0002:0001d32c       _af_gujr_uniranges         000000001015732c     freetype:autofit.obj
 0002:0001d33c       _af_guru_uniranges         000000001015733c     freetype:autofit.obj
 0002:0001d34c       _af_hebr_uniranges         000000001015734c     freetype:autofit.obj
 0002:0001d364       _af_kali_uniranges         0000000010157364     freetype:autofit.obj
 0002:0001d374       _af_khmr_uniranges         0000000010157374     freetype:autofit.obj
 0002:0001d384       _af_khms_uniranges         0000000010157384     freetype:autofit.obj
 0002:0001d394       _af_knda_uniranges         0000000010157394     freetype:autofit.obj
 0002:0001d3a4       _af_lao_uniranges          00000000101573a4     freetype:autofit.obj
 0002:0001d3b8       _af_latn_uniranges         00000000101573b8     freetype:autofit.obj
 0002:0001d4c0       _af_latb_uniranges         00000000101574c0     freetype:autofit.obj
 0002:0001d4e0       _af_latp_uniranges         00000000101574e0     freetype:autofit.obj
 0002:0001d550       _af_lisu_uniranges         0000000010157550     freetype:autofit.obj
 0002:0001d560       _af_mlym_uniranges         0000000010157560     freetype:autofit.obj
 0002:0001d570       _af_mymr_uniranges         0000000010157570     freetype:autofit.obj
 0002:0001d590       _af_nkoo_uniranges         0000000010157590     freetype:autofit.obj
 0002:0001d5a0       _af_none_uniranges         00000000101575a0     freetype:autofit.obj
 0002:0001d5a8       _af_olck_uniranges         00000000101575a8     freetype:autofit.obj
 0002:0001d5b8       _af_orkh_uniranges         00000000101575b8     freetype:autofit.obj
 0002:0001d5c8       _af_osge_uniranges         00000000101575c8     freetype:autofit.obj
 0002:0001d5d8       _af_osma_uniranges         00000000101575d8     freetype:autofit.obj
 0002:0001d5e8       _af_saur_uniranges         00000000101575e8     freetype:autofit.obj
 0002:0001d5f8       _af_shaw_uniranges         00000000101575f8     freetype:autofit.obj
 0002:0001d608       _af_sinh_uniranges         0000000010157608     freetype:autofit.obj
 0002:0001d618       _af_sund_uniranges         0000000010157618     freetype:autofit.obj
 0002:0001d630       _af_taml_uniranges         0000000010157630     freetype:autofit.obj
 0002:0001d640       _af_tavt_uniranges         0000000010157640     freetype:autofit.obj
 0002:0001d650       _af_telu_uniranges         0000000010157650     freetype:autofit.obj
 0002:0001d660       _af_tfng_uniranges         0000000010157660     freetype:autofit.obj
 0002:0001d670       _af_thai_uniranges         0000000010157670     freetype:autofit.obj
 0002:0001d680       _af_vaii_uniranges         0000000010157680     freetype:autofit.obj
 0002:0001d690       _af_limb_uniranges         0000000010157690     freetype:autofit.obj
 0002:0001d6a0       _af_orya_uniranges         00000000101576a0     freetype:autofit.obj
 0002:0001d6b0       _af_sylo_uniranges         00000000101576b0     freetype:autofit.obj
 0002:0001d6c0       _af_tibt_uniranges         00000000101576c0     freetype:autofit.obj
 0002:0001d6d0       _af_hani_uniranges         00000000101576d0     freetype:autofit.obj
 0002:0001d7e0       _af_adlm_nonbase_uniranges 00000000101577e0     freetype:autofit.obj
 0002:0001d7f0       _af_arab_nonbase_uniranges 00000000101577f0     freetype:autofit.obj
 0002:0001d890       _af_armn_nonbase_uniranges 0000000010157890     freetype:autofit.obj
 0002:0001d8a0       _af_avst_nonbase_uniranges 00000000101578a0     freetype:autofit.obj
 0002:0001d8b0       _af_bamu_nonbase_uniranges 00000000101578b0     freetype:autofit.obj
 0002:0001d8c0       _af_beng_nonbase_uniranges 00000000101578c0     freetype:autofit.obj
 0002:0001d8f8       _af_buhd_nonbase_uniranges 00000000101578f8     freetype:autofit.obj
 0002:0001d908       _af_cakm_nonbase_uniranges 0000000010157908     freetype:autofit.obj
 0002:0001d928       _af_cans_nonbase_uniranges 0000000010157928     freetype:autofit.obj
 0002:0001d930       _af_cari_nonbase_uniranges 0000000010157930     freetype:autofit.obj
 0002:0001d938       _af_cher_nonbase_uniranges 0000000010157938     freetype:autofit.obj
 0002:0001d940       _af_copt_nonbase_uniranges 0000000010157940     freetype:autofit.obj
 0002:0001d950       _af_cprt_nonbase_uniranges 0000000010157950     freetype:autofit.obj
 0002:0001d958       _af_cyrl_nonbase_uniranges 0000000010157958     freetype:autofit.obj
 0002:0001d980       _af_deva_nonbase_uniranges 0000000010157980     freetype:autofit.obj
 0002:0001d9c8       _af_dsrt_nonbase_uniranges 00000000101579c8     freetype:autofit.obj
 0002:0001d9d0       _af_ethi_nonbase_uniranges 00000000101579d0     freetype:autofit.obj
 0002:0001d9e0       _af_geor_nonbase_uniranges 00000000101579e0     freetype:autofit.obj
 0002:0001d9e8       _af_geok_nonbase_uniranges 00000000101579e8     freetype:autofit.obj
 0002:0001d9f0       _af_glag_nonbase_uniranges 00000000101579f0     freetype:autofit.obj
 0002:0001da00       _af_goth_nonbase_uniranges 0000000010157a00     freetype:autofit.obj
 0002:0001da08       _af_grek_nonbase_uniranges 0000000010157a08     freetype:autofit.obj
 0002:0001da48       _af_gujr_nonbase_uniranges 0000000010157a48     freetype:autofit.obj
 0002:0001da80       _af_guru_nonbase_uniranges 0000000010157a80     freetype:autofit.obj
 0002:0001dab0       _af_hebr_nonbase_uniranges 0000000010157ab0     freetype:autofit.obj
 0002:0001dae0       _af_kali_nonbase_uniranges 0000000010157ae0     freetype:autofit.obj
 0002:0001daf0       _af_khmr_nonbase_uniranges 0000000010157af0     freetype:autofit.obj
 0002:0001db18       _af_khms_nonbase_uniranges 0000000010157b18     freetype:autofit.obj
 0002:0001db20       _af_knda_nonbase_uniranges 0000000010157b20     freetype:autofit.obj
 0002:0001db58       _af_lao_nonbase_uniranges  0000000010157b58     freetype:autofit.obj
 0002:0001db78       _af_latn_nonbase_uniranges 0000000010157b78     freetype:autofit.obj
 0002:0001dc00       _af_latb_nonbase_uniranges 0000000010157c00     freetype:autofit.obj
 0002:0001dc08       _af_latp_nonbase_uniranges 0000000010157c08     freetype:autofit.obj
 0002:0001dc10       _af_lisu_nonbase_uniranges 0000000010157c10     freetype:autofit.obj
 0002:0001dc18       _af_mlym_nonbase_uniranges 0000000010157c18     freetype:autofit.obj
 0002:0001dc40       _af_mymr_nonbase_uniranges 0000000010157c40     freetype:autofit.obj
 0002:0001dca8       _af_nkoo_nonbase_uniranges 0000000010157ca8     freetype:autofit.obj
 0002:0001dcc0       _af_none_nonbase_uniranges 0000000010157cc0     freetype:autofit.obj
 0002:0001dcc8       _af_olck_nonbase_uniranges 0000000010157cc8     freetype:autofit.obj
 0002:0001dcd0       _af_orkh_nonbase_uniranges 0000000010157cd0     freetype:autofit.obj
 0002:0001dcd8       _af_osge_nonbase_uniranges 0000000010157cd8     freetype:autofit.obj
 0002:0001dce0       _af_osma_nonbase_uniranges 0000000010157ce0     freetype:autofit.obj
 0002:0001dce8       _af_saur_nonbase_uniranges 0000000010157ce8     freetype:autofit.obj
 0002:0001dd00       _af_shaw_nonbase_uniranges 0000000010157d00     freetype:autofit.obj
 0002:0001dd08       _af_sinh_nonbase_uniranges 0000000010157d08     freetype:autofit.obj
 0002:0001dd20       _af_sund_nonbase_uniranges 0000000010157d20     freetype:autofit.obj
 0002:0001dd38       _af_taml_nonbase_uniranges 0000000010157d38     freetype:autofit.obj
 0002:0001dd58       _af_tavt_nonbase_uniranges 0000000010157d58     freetype:autofit.obj
 0002:0001dd88       _af_telu_nonbase_uniranges 0000000010157d88     freetype:autofit.obj
 0002:0001ddb8       _af_tfng_nonbase_uniranges 0000000010157db8     freetype:autofit.obj
 0002:0001ddc0       _af_thai_nonbase_uniranges 0000000010157dc0     freetype:autofit.obj
 0002:0001dde0       _af_vaii_nonbase_uniranges 0000000010157de0     freetype:autofit.obj
 0002:0001dde8       _af_limb_nonbase_uniranges 0000000010157de8     freetype:autofit.obj
 0002:0001de08       _af_orya_nonbase_uniranges 0000000010157e08     freetype:autofit.obj
 0002:0001de40       _af_sylo_nonbase_uniranges 0000000010157e40     freetype:autofit.obj
 0002:0001de68       _af_tibt_nonbase_uniranges 0000000010157e68     freetype:autofit.obj
 0002:0001deb8       _af_hani_nonbase_uniranges 0000000010157eb8     freetype:autofit.obj
 0002:0001ded0       _af_indic_writing_system_class 0000000010157ed0     freetype:autofit.obj
 0002:0001def0       __xmm@00000000000000000001000000010000 0000000010157ef0     freetype:autofit.obj
 0002:0001df00       __xmm@00010000000000000000000000010000 0000000010157f00     freetype:autofit.obj
 0002:0001e418       _tt_driver_class           0000000010158418     freetype:truetype.obj
 0002:0001e478       _tt_default_graphics_state 0000000010158478     freetype:truetype.obj
 0002:0001e770       _t1_driver_class           0000000010158770     freetype:type1.obj
 0002:0001f6e8       _cff_cmap_encoding_class_rec 00000000101596e8     freetype:cff.obj
 0002:0001f710       _cff_cmap_unicode_class_rec 0000000010159710     freetype:cff.obj
 0002:0001f738       _cff_driver_class          0000000010159738     freetype:cff.obj
 0002:00020878       _t1cid_driver_class        000000001015a878     freetype:type1cid.obj
 0002:00020930       _pfr_cmap_class_rec        000000001015a930     freetype:pfr.obj
 0002:00020958       _pfr_driver_class          000000001015a958     freetype:pfr.obj
 0002:00020a80       _t42_driver_class          000000001015aa80     freetype:type42.obj
 0002:00020df8       _winfnt_driver_class       000000001015adf8     freetype:winfnt.obj
 0002:00021000       _pcf_driver_class          000000001015b000     freetype:pcf.obj
 0002:0002126c       _ps_parser_funcs           000000001015b26c     freetype:psaux.obj
 0002:000213c8       _cff_builder_funcs         000000001015b3c8     freetype:psaux.obj
 0002:000213e8       _ps_builder_funcs          000000001015b3e8     freetype:psaux.obj
 0002:000213f0       _ps_table_funcs            000000001015b3f0     freetype:psaux.obj
 0002:00021400       _t1_builder_funcs          000000001015b400     freetype:psaux.obj
 0002:00021420       _t1_decoder_funcs          000000001015b420     freetype:psaux.obj
 0002:00021430       _t1_cmap_standard_class_rec 000000001015b430     freetype:psaux.obj
 0002:00021458       _t1_cmap_expert_class_rec  000000001015b458     freetype:psaux.obj
 0002:00021480       _t1_cmap_custom_class_rec  000000001015b480     freetype:psaux.obj
 0002:000214a8       _t1_cmap_unicode_class_rec 000000001015b4a8     freetype:psaux.obj
 0002:000214d0       _afm_parser_funcs          000000001015b4d0     freetype:psaux.obj
 0002:000214dc       _t1_cmap_classes           000000001015b4dc     freetype:psaux.obj
 0002:000214ec       _cff_decoder_funcs         000000001015b4ec     freetype:psaux.obj
 0002:00021524       _psaux_module_class        000000001015b524     freetype:psaux.obj
 0002:000215d0       __xmm@000000000000000a0000000000000008 000000001015b5d0     freetype:psaux.obj
 0002:000215e0       _psnames_module_class      000000001015b5e0     freetype:psmodule.obj
 0002:00021608       _ft_standard_glyph_names   000000001015b608     freetype:psmodule.obj
 0002:00022478       _ft_mac_names              000000001015c478     freetype:psmodule.obj
 0002:00022680       _ft_sid_names              000000001015c680     freetype:psmodule.obj
 0002:00022990       _t1_standard_encoding      000000001015c990     freetype:psmodule.obj
 0002:00022b90       _t1_expert_encoding        000000001015cb90     freetype:psmodule.obj
 0002:00022d90       _ft_adobe_glyph_list       000000001015cd90     freetype:psmodule.obj
 0002:00030934       _pshinter_module_class     000000001016a934     freetype:pshinter.obj
 0002:00030958       _ft_standard_raster        000000001016a958     freetype:raster.obj
 0002:00030970       _ft_raster1_renderer_class 000000001016a970     freetype:raster.obj
 0002:000309b0       _tt_cmap6_class_rec        000000001016a9b0     freetype:sfnt.obj
 0002:000309e4       _tt_cmap8_class_rec        000000001016a9e4     freetype:sfnt.obj
 0002:00030a18       _tt_cmap10_class_rec       000000001016aa18     freetype:sfnt.obj
 0002:00030a4c       _tt_cmap12_class_rec       000000001016aa4c     freetype:sfnt.obj
 0002:00030a80       _tt_cmap13_class_rec       000000001016aa80     freetype:sfnt.obj
 0002:00030ab4       _tt_cmap14_class_rec       000000001016aab4     freetype:sfnt.obj
 0002:00030d34       _sfnt_module_class         000000001016ad34     freetype:sfnt.obj
 0002:00030d9c       _tt_cmap_unicode_class_rec 000000001016ad9c     freetype:sfnt.obj
 0002:00030fdc       _tt_cmap0_class_rec        000000001016afdc     freetype:sfnt.obj
 0002:00031010       _tt_cmap2_class_rec        000000001016b010     freetype:sfnt.obj
 0002:00031044       _tt_cmap4_class_rec        000000001016b044     freetype:sfnt.obj
 0002:00031078       _ft_grays_raster           000000001016b078     freetype:smooth.obj
 0002:000310a8       _ft_smooth_renderer_class  000000001016b0a8     freetype:smooth.obj
 0002:000310e4       _ft_smooth_lcd_renderer_class 000000001016b0e4     freetype:smooth.obj
 0002:00031120       _ft_smooth_lcdv_renderer_class 000000001016b120     freetype:smooth.obj
 0002:00031160       __xmm@00007fff00007fffffff8000ffff8000 000000001016b160     freetype:smooth.obj
 0002:00031780       _bdf_driver_class          000000001016b780     freetype:bdf.obj
 0002:00031830       __xmm@00000008000000000000000100000001 000000001016b830     freetype:bdf.obj
 0002:00032bf4       __pDefaultRawDllMain       000000001016cbf4     msvcrt:dll_dllmain.obj
 0002:00032bf4       __pDefaultRawDllMain       000000001016cbf4     msvcrt:dll_dllmain.obj
 0002:00032bf8       __load_config_used         000000001016cbf8     msvcrt:loadcfg.obj
 0002:00032cb8       __tls_used                 000000001016ccb8     msvcrt:tlssup.obj
 0002:00032cd0       ??_R4type_info@@6B@        000000001016ccd0     msvcrt:std_type_info_static.obj
 0002:00032ce4       ??_R3type_info@@8          000000001016cce4     msvcrt:std_type_info_static.obj
 0002:00032cf4       ??_R2type_info@@8          000000001016ccf4     msvcrt:std_type_info_static.obj
 0002:00032cfc       ??_R1A@?0A@EA@type_info@@8 000000001016ccfc     msvcrt:std_type_info_static.obj
 0002:00032d18       ??_C@_03MPMOBIFF@?o?$LP?$LN?$AA@ 000000001016cd18     cfg.obj
 0002:00032d1c       ??_C@_02MCILKGOH@?$HL?$HN?$AA@ 000000001016cd1c     cfg.obj
 0002:00032d1f       ??_C@_05OHFNCCIN@null?$HN?$AA@ 000000001016cd1f     cfg.obj
 0002:00032d25       ??_C@_02LLHJFGPH@?5?$HM?$AA@ 000000001016cd25     imgui_widgets.obj
 0002:00032d28       ??_C@_0O@NCHAACLD@anodized?5navy?$AA@ 000000001016cd28     menu.obj
 0002:00032d36       ??_C@_05DIOFHBOO@dusty?$AA@ 000000001016cd36     menu.obj
 0002:00032d3c       ??_C@_0M@NLCLIMKA@fog?5density?$AA@ 000000001016cd3c     menu.obj
 0002:00032d48       ??_C@_0BB@FIPAOBBI@create_directory?$AA@ 000000001016cd48     cfg.obj
 0002:00032d59       ??_C@_06FNFBAEBE@binary?$AA@ 000000001016cd59     ctx.obj
 0002:00032d60       ??_C@_07CJDBHDIN@primary?$AA@ 000000001016cd60     menu.obj
 0002:00032d68       ??_C@_09EADLKHON@secondary?$AA@ 000000001016cd68     menu.obj
 0002:00032d72       ??_C@_04OPMHGHMB@Copy?$AA@ 000000001016cd72     imgui_widgets.obj
 0002:00032d77       ??_C@_06KCFMJCPK@colony?$AA@ 000000001016cd77     menu.obj
 0002:00032d7e       ??_C@_05FGBPDAHH@rainy?$AA@ 000000001016cd7e     menu.obj
 0002:00032d84       ??_C@_05FBDOCGFM@italy?$AA@ 000000001016cd84     visuals.obj
 0002:00032d8a       ??_C@_05IKCNOJAA@money?$AA@ 000000001016cd8a     menu.obj
 0002:00032d90       ??_C@_0L@GEOKNAJI@object?5key?$AA@ 000000001016cd90     cfg.obj
 0002:00032d9b       ??_C@_0CA@MMOGIFNF@invalid?5unordered_map?$DMK?0?5T?$DO?5key?$AA@ 000000001016cd9b     ctx.obj
 0002:00032dbb       ??_C@_0L@GDHCAFNB@force?5body?$AA@ 000000001016cdbb     visuals.obj
 0002:00032dc6       ??_C@_05HIFJDKLD@array?$AA@ 000000001016cdc6     ctx.obj
 0002:00032dcc       ??_C@_0P@MGCHMNLN@contrast?5spray?$AA@ 000000001016cdcc     menu.obj
 0002:00032ddb       ??_C@_04GEBBKIAA@gray?$AA@ 000000001016cddb     menu.obj
 0002:00032de0       ??_C@_0BG@NGGGNBCF@dev?1scope_bluroverlay?$AA@ 000000001016cde0     hooks.obj
 0002:00032df6       ??_C@_0N@GAFLGLBN@glow?5overlay?$AA@ 000000001016cdf6     menu.obj
 0002:00032e03       ??_C@_03KHGEEAPN@mrx?$AA@  000000001016ce03     menu.obj
 0002:00032e07       ??_C@_0L@EPCGLJHG@?$CFs?0?5?$CF?40fpx?$AA@ 000000001016ce07     imgui_draw.obj
 0002:00032e12       ??_C@_0BG@CONABPA@ProggyClean?4ttf?0?5?$CFdpx?$AA@ 000000001016ce12     imgui_draw.obj
 0002:00032e28       ??_C@_0BB@EBDMLGOJ@cs_baggageskybox?$AA@ 000000001016ce28     visuals.obj
 0002:00032e39       ??_C@_03CJOBKKAE@Hex?$AA@  000000001016ce39     imgui_widgets.obj
 0002:00032e3d       ??_C@_0N@PIPFDMLM@?$CD?$CDPopup_?$CF08x?$AA@ 000000001016ce3d     imgui.obj
 0002:00032e4a       ??_C@_0N@MOBGICJD@?2u?$CF04x?2u?$CF04x?$AA@ 000000001016ce4a     cfg.obj
 0002:00032e50       ??_C@_06OAIHNJFH@?2u?$CF04x?$AA@ 000000001016ce50     cfg.obj
 0002:00032e57       ??_C@_0CH@OBGEFBNA@incomplete?5UTF?98?5string?$DL?5last?5by@ 000000001016ce57     cfg.obj
 0002:00032e79       ??_C@_04LBPDBBJF@?3?50x?$AA@ 000000001016ce79     cfg.obj
 0002:00032e7e       ??_C@_04EAMKIICI@glow?$AA@ 000000001016ce7e     menu.obj
 0002:00032e83       ??_C@_06BKKJGDHO@Window?$AA@ 000000001016ce83     imgui.obj
 0002:00032e8a       ??_C@_0N@DECGFAEC@BorderShadow?$AA@ 000000001016ce8a     imgui.obj
 0002:00032e97       ??_C@_09JCCDBEFL@?$CD?$CDpreview?$AA@ 000000001016ce97     imgui_widgets.obj
 0002:00032ea1       ??_C@_02CPGMCOJE@sv?$AA@   000000001016cea1     imgui_widgets.obj
 0002:00032ea4       ??_C@_07BGCKODOL@molotov?$AA@ 000000001016cea4     visuals.obj
 0002:00032eac       ??_C@_05LMJJNAEK@negev?$AA@ 000000001016ceac     menu.obj
 0002:00032eb2       ??_C@_03JFAAHAIK@Nav?$AA@  000000001016ceb2     imgui.obj
 0002:00032eb6       ??_C@_05OINFJHGD@?$CFI64u?$AA@ 000000001016ceb6     imgui_widgets.obj
 0002:00032ebc       ??_C@_02GMHACPFF@?$CFu?$AA@ 000000001016cebc     imgui_widgets.obj
 0002:00032ebf       ??_C@_0O@HCOAADPE@imgui_log?4txt?$AA@ 000000001016cebf     imgui.obj
 0002:00032ecd       ??_C@_07JKKCBBMM@context?$AA@ 000000001016cecd     imgui_widgets.obj
 0002:00032ed5       ??_C@_0BA@PJJKDFOF@con_filter_text?$AA@ 000000001016ced5     local_player.obj
 0002:00032ee5       ??_C@_06MNCEJPDI@?$CD?$CDText?$AA@ 000000001016cee5     imgui_widgets.obj
 0002:00032ee7       ??_C@_04OJAHODMC@Text?$AA@ 000000001016cee7     imgui.obj
 0002:00032eec       ??_C@_02BKFDOEMK@wt?$AA@   000000001016ceec     imgui.obj
 0002:00032eef       ??_C@_0N@KMCIHGPC@end?5of?5input?$AA@ 000000001016ceef     cfg.obj
 0002:00032efc       ??_C@_05GHDFNNLC@scout?$AA@ 000000001016cefc     menu.obj
 0002:00032f02       ??_C@_08PEMGGMKO@sky_dust?$AA@ 000000001016cf02     visuals.obj
 0002:00032f0b       ??_C@_0BE@EBHFKNCA@?$CD?$CD?$CDNavWindowingList?$AA@ 000000001016cf0b     imgui.obj
 0002:00032f1f       ??_C@_0M@HPMJKDCO@lower?5chest?$AA@ 000000001016cf1f     aim_bot.obj
 0002:00032f2b       ??_C@_0M@DBKKFPDH@upper?5chest?$AA@ 000000001016cf2b     aim_bot.obj
 0002:00032f31       ??_C@_05HIADHCOO@chest?$AA@ 000000001016cf31     aim_bot.obj
 0002:00032f37       ??_C@_08EPJLHIJG@bad?5cast?$AA@ 000000001016cf37     visuals.obj
 0002:00032f40       ??_C@_09EIJNJEDP@fog?5start?$AA@ 000000001016cf40     menu.obj
 0002:00032f4a       ??_C@_0BJ@DHFDPMIM@invalid?5vector?5subscript?$AA@ 000000001016cf4a     ctx.obj
 0002:00032f63       ??_C@_0BL@KOKKEGGO@invalid?5deque?$DMT?$DO?5subscript?$AA@ 000000001016cf63     aim_bot.obj
 0002:00032f7e       ??_C@_0BO@IMBPEJAE@invalid?5array?$DMT?0?5N?$DO?5subscript?$AA@ 000000001016cf7e     aim_bot.obj
 0002:00032f9c       ??_C@_07MCFIAELG@buy?5bot?$AA@ 000000001016cf9c     menu.obj
 0002:00032fa4       ??_C@_0BK@OGNNAFAB@invalid?5hash?5bucket?5count?$AA@ 000000001016cfa4     ctx.obj
 0002:00032fbe       ??_C@_07HLHPKMFI@Content?$AA@ 000000001016cfbe     imgui.obj
 0002:00032fc6       ??_C@_0DL@FABMJCCP@invalid?5number?$DL?5expected?5?8?$CL?8?0?5?8?9@ 000000001016cfc6     cfg.obj
 0002:00033001       ??_C@_07CEIHLFIP@assault?$AA@ 000000001016d001     menu.obj
 0002:00033009       ??_C@_0P@IMLDNMEK@Debug?$CD?$CDDefault?$AA@ 000000001016d009     imgui.obj
 0002:00033018       ??_C@_08JPAGIJNJ@karambit?$AA@ 000000001016d018     menu.obj
 0002:00033021       ??_C@_05EDIHMMJK@night?$AA@ 000000001016d021     menu.obj
 0002:00033027       ??_C@_08DNLKDNOJ@daylight?$AA@ 000000001016d027     menu.obj
 0002:00033030       ??_C@_0N@ENCIHEPH@NavHighlight?$AA@ 000000001016d030     imgui.obj
 0002:0003303d       ??_C@_0BG@MCGDEFOI@NavWindowingHighlight?$AA@ 000000001016d03d     imgui.obj
 0002:00033053       ??_C@_0L@EPNJNHHG@m9?5bayonet?$AA@ 000000001016d053     menu.obj
 0002:00033056       ??_C@_07MMCLEJJN@bayonet?$AA@ 000000001016d056     menu.obj
 0002:0003305e       ??_C@_0P@GDDMCLOI@DragDropTarget?$AA@ 000000001016d05e     imgui.obj
 0002:0003306d       ??_C@_05CENONFGH@skeet?$AA@ 000000001016d06d     menu.obj
 0002:00033073       ??_C@_08BLKLIJEH@cs_tibet?$AA@ 000000001016d073     visuals.obj
 0002:00033076       ??_C@_05NOMMIOAG@tibet?$AA@ 000000001016d076     menu.obj
 0002:0003307c       ??_C@_06IEOJBDIK@object?$AA@ 000000001016d07c     ctx.obj
 0002:00033083       ??_C@_09DBGHEPMN@OuterRect?$AA@ 000000001016d083     imgui.obj
 0002:0003308d       ??_C@_09PPJHMOMF@InnerRect?$AA@ 000000001016d08d     imgui.obj
 0002:00033097       ??_C@_0O@BNFMFEHO@InnerClipRect?$AA@ 000000001016d097     imgui.obj
 0002:000330a5       ??_C@_0BC@NDBPEMLC@ContentRegionRect?$AA@ 000000001016d0a5     imgui.obj
 0002:000330b7       ??_C@_08FACDBJHD@WorkRect?$AA@ 000000001016d0b7     imgui.obj
 0002:000330c0       ??_C@_0N@CNPMBDNP@forest?5ddpat?$AA@ 000000001016d0c0     menu.obj
 0002:000330cd       ??_C@_0M@JMPFMPEB@urban?5ddpat?$AA@ 000000001016d0cd     menu.obj
 0002:000330d9       ??_C@_0P@DBHKHEEE@metallic?5ddpat?$AA@ 000000001016d0d9     menu.obj
 0002:000330e8       ??_C@_0BE@PBHHAKHI@sky_csgo_night_flat?$AA@ 000000001016d0e8     visuals.obj
 0002:000330fc       ??_C@_0L@PKGLKNEJ@night?5flat?$AA@ 000000001016d0fc     menu.obj
 0002:00033102       ??_C@_04FMBJNPFB@flat?$AA@ 000000001016d102     menu.obj
 0002:00033107       ??_C@_0EO@GMAPOODH@invalid?5string?3?5control?5characte@ 000000001016d107     cfg.obj
 0002:00033155       ??_C@_05JAHKENCF@virus?$AA@ 000000001016d155     menu.obj
 0002:0003315b       ??_C@_0DG@LMKKCLLH@invalid?5string?3?5?8?2u?8?5must?5be?5fol@ 000000001016d15b     cfg.obj
 0002:00033191       ??_C@_07IPNMCAN@success?$AA@ 000000001016d191     cfg.obj
 0002:00033199       ??_C@_0BE@LMOOKEAD@Bad?5optional?5access?$AA@ 000000001016d199     aim_bot.obj
 0002:000331ad       ??_C@_0L@KKJOIDFM@spectators?$AA@ 000000001016d1ad     misc.obj
 0002:000331b8       ??_C@_07OLBIDKLK@Players?$AA@ 000000001016d1b8     menu.obj
 0002:000331c0       ??_C@_0DB@MMKEGCHK@cannot?5compare?5iterators?5of?5diff@ 000000001016d1c0     cfg.obj
 0002:000331f1       ??_C@_04BIKEEMEO@arms?$AA@ 000000001016d1f1     menu.obj
 0002:000331f6       ??_C@_0O@LKNBLEKO@heavy?5pistols?$AA@ 000000001016d1f6     menu.obj
 0002:000331fc       ??_C@_07IPNNHOHE@pistols?$AA@ 000000001016d1fc     menu.obj
 0002:00033204       ??_C@_06NIDNCKNL@skulls?$AA@ 000000001016d204     menu.obj
 0002:0003320b       ??_C@_07GNHLELCG@Visuals?$AA@ 000000001016d20b     menu.obj
 0002:00033213       ??_C@_06PLCCOLDN@canals?$AA@ 000000001016d213     menu.obj
 0002:0003321a       ??_C@_06IHEANBNF@pelvis?$AA@ 000000001016d21a     aim_bot.obj
 0002:00033221       ??_C@_05HCPIHCDG@bepis?$AA@ 000000001016d221     menu.obj
 0002:00033227       ??_C@_0L@LCIALFOP@hands?1legs?$AA@ 000000001016d227     aim_bot.obj
 0002:0003322d       ??_C@_04CAGNGCAP@legs?$AA@ 000000001016d22d     menu.obj
 0002:00033232       ??_C@_09BLIFCKK@Fake?5lags?$AA@ 000000001016d232     menu.obj
 0002:0003323c       ??_C@_07EDJEAHKE@anti?9fs?$AA@ 000000001016d23c     aim_bot.obj
 0002:00033244       ??_C@_0O@GHEKJMPC@forest?5leaves?$AA@ 000000001016d244     menu.obj
 0002:00033252       ??_C@_0P@IIPEELKE@Other?5textures?$AA@ 000000001016d252     visuals.obj
 0002:00033261       ??_C@_09HDJFFJLL@PlotLines?$AA@ 000000001016d261     imgui.obj
 0002:0003326b       ??_C@_0BJ@COACFKBJ@mp_teammates_are_enemies?$AA@ 000000001016d26b     ctx.obj
 0002:00033284       ??_C@_08HOOJIBOO@grenades?$AA@ 000000001016d284     menu.obj
 0002:0003328d       ??_C@_06KLLEEACD@clouds?$AA@ 000000001016d28d     menu.obj
 0002:00033294       ??_C@_09GNCFCLDO@backwards?$AA@ 000000001016d294     aim_bot.obj
 0002:0003329e       ??_C@_08GHBALNJL@keybinds?$AA@ 000000001016d29e     visuals.obj
 0002:000332a7       ??_C@_0O@NGNCMMCF@dual?5berettas?$AA@ 000000001016d2a7     menu.obj
 0002:000332b5       ??_C@_05LAIJEIBK@famas?$AA@ 000000001016d2b5     menu.obj
 0002:000332bb       ??_C@_05PEBIAHCL@usp?9s?$AA@ 000000001016d2bb     menu.obj
 0002:000332c1       ??_C@_06MPFLHGKA@m4a1?9s?$AA@ 000000001016d2c1     menu.obj
 0002:000332c8       ??_C@_09FDEMHCFC@?$AN?6?$CF?$CKs?$CF?4?$CKs?$AA@ 000000001016d2c8     imgui.obj
 0002:000332ca       ??_C@_07LFDEMEGD@?$CF?$CKs?$CF?4?$CKs?$AA@ 000000001016d2ca     imgui.obj
 0002:000332d2       ??_C@_05DBJFMKBA@?5?$CF?4?$CKs?$AA@ 000000001016d2d2     imgui.obj
 0002:000332d8       ??_C@_09JKJEEIJP@?$CF?4?$CKs?$CF?$CFd?$CFs?$AA@ 000000001016d2d8     imgui_widgets.obj
 0002:000332e2       ??_C@_0L@BNALJEEJ@contractor?$AA@ 000000001016d2e2     menu.obj
 0002:000332ed       ??_C@_0BB@NIGHFCLN@invalid_iterator?$AA@ 000000001016d2ed     ctx.obj
 0002:000332fe       ??_C@_0BB@NAEMOGCE@object?5separator?$AA@ 000000001016d2fe     cfg.obj
 0002:0003330f       ??_C@_09IBFEOKHN@Separator?$AA@ 000000001016d30f     imgui.obj
 0002:00033319       ??_C@_0M@DKBLOJA@parse_error?$AA@ 000000001016d319     cfg.obj
 0002:00033325       ??_C@_0L@CJHFOHFM@type_error?$AA@ 000000001016d325     ctx.obj
 0002:00033330       ??_C@_0M@BJIBBOFC@parse?5error?$AA@ 000000001016d330     cfg.obj
 0002:0003333c       ??_C@_05JJEJIJLL@armor?$AA@ 000000001016d33c     menu.obj
 0002:00033342       ??_C@_05PDOBBJNA@Color?$AA@ 000000001016d342     imgui_widgets.obj
 0002:00033348       ??_C@_05MLAONEHA@z?5dir?$AA@ 000000001016d348     menu.obj
 0002:0003334e       ??_C@_05ENJKKGNO@y?5dir?$AA@ 000000001016d34e     menu.obj
 0002:00033354       ??_C@_05IGMGHFHL@x?5dir?$AA@ 000000001016d354     menu.obj
 0002:0003335a       ??_C@_06FGBHBDCE@in?5air?$AA@ 000000001016d35a     aim_bot.obj
 0002:00033361       ??_C@_09GHJBKJKM@bulldozer?$AA@ 000000001016d361     menu.obj
 0002:0003336b       ??_C@_08GIDBIBPA@revolver?$AA@ 000000001016d36b     menu.obj
 0002:00033374       ??_C@_06NBGLMDBG@silver?$AA@ 000000001016d374     menu.obj
 0002:0003337b       ??_C@_0M@FLNDBCMN@groundwater?$AA@ 000000001016d37b     menu.obj
 0002:00033387       ??_C@_07NCPCHDKA@defuser?$AA@ 000000001016d387     menu.obj
 0002:0003338f       ??_C@_05FAEDFCLL@taser?$AA@ 000000001016d38f     menu.obj
 0002:00033395       ??_C@_06OAJHJJJK@copper?$AA@ 000000001016d395     menu.obj
 0002:0003339c       ??_C@_0BE@ENPGBMIC@?$CD?$CDpreviewing_picker?$AA@ 000000001016d39c     imgui_widgets.obj
 0002:000333b0       ??_C@_08HHEANBBL@?$CD?$CDpicker?$AA@ 000000001016d3b0     imgui_widgets.obj
 0002:000333b2       ??_C@_06MAKAMBBI@picker?$AA@ 000000001016d3b2     imgui_widgets.obj
 0002:000333b9       ??_C@_05BGEKGIIP@other?$AA@ 000000001016d3b9     menu.obj
 0002:000333bf       ??_C@_0N@ONNIPBCG@bengal?5tiger?$AA@ 000000001016d3bf     menu.obj
 0002:000333cc       ??_C@_0N@FFMDDDML@jungle?5tiger?$AA@ 000000001016d3cc     menu.obj
 0002:000333d9       ??_C@_06CMOGDIBK@Border?$AA@ 000000001016d3d9     imgui.obj
 0002:000333e0       ??_C@_06OENKJGA@Header?$AA@ 000000001016d3e0     imgui.obj
 0002:000333e7       ??_C@_06EBGNBFIA@number?$AA@ 000000001016d3e7     ctx.obj
 0002:000333ee       ??_C@_0BG@BCELDGBP@dev?1blurfiltery_nohdr?$AA@ 000000001016d3ee     hooks.obj
 0002:00033404       ??_C@_0BG@NOOBDGIB@dev?1blurfilterx_nohdr?$AA@ 000000001016d404     hooks.obj
 0002:0003341a       ??_C@_0BA@HGAAPMNH@vertigoblue_hdr?$AA@ 000000001016d41a     visuals.obj
 0002:0003342a       ??_C@_0BB@JFCHDEMK@sky_day02_05_hdr?$AA@ 000000001016d42a     visuals.obj
 0002:0003343b       ??_C@_0BI@BHCGMMBL@sky_cs15_daylight04_hdr?$AA@ 000000001016d43b     visuals.obj
 0002:00033453       ??_C@_0BI@KCDPMKD@sky_cs15_daylight03_hdr?$AA@ 000000001016d453     visuals.obj
 0002:0003346b       ??_C@_0BI@MBHPCPAG@sky_cs15_daylight02_hdr?$AA@ 000000001016d46b     visuals.obj
 0002:00033483       ??_C@_0BI@EHOLFNKI@sky_cs15_daylight01_hdr?$AA@ 000000001016d483     visuals.obj
 0002:0003349b       ??_C@_07KMAJHHLM@regular?$AA@ 000000001016d49b     menu.obj
 0002:000334a3       ??_C@_05MEHLAELG@clear?$AA@ 000000001016d4a3     menu.obj
 0002:000334a9       ??_C@_04PKCAHAHD@scar?$AA@ 000000001016d4a9     menu.obj
 0002:000334ae       ??_C@_0O@BKOLOJFE@?$CD?$CDMainMenuBar?$AA@ 000000001016d4ae     imgui.obj
 0002:000334bc       ??_C@_09KEDLMDJL@Alpha?5Bar?$AA@ 000000001016d4bc     imgui_widgets.obj
 0002:000334c6       ??_C@_0EO@PJJBEEPG@invalid?5string?3?5control?5characte@ 000000001016d4c6     cfg.obj
 0002:00033514       ??_C@_03CDKALHKG@awp?$AA@  000000001016d514     menu.obj
 0002:00033518       ??_C@_0L@EELGACDO@cl_pitchup?$AA@ 000000001016d518     ctx.obj
 0002:00033520       ??_C@_02HNLLPFKA@up?$AA@   000000001016d520     menu.obj
 0002:00033523       ??_C@_09IAFLEJBL@fast?5stop?$AA@ 000000001016d523     menu.obj
 0002:0003352d       ??_C@_04EIAJAGMI@bhop?$AA@ 000000001016d52d     menu.obj
 0002:00033532       ??_C@_0L@NGBDNFNJ@ResizeGrip?$AA@ 000000001016d532     imgui.obj
 0002:0003353d       ??_C@_0L@NDGKGJOP@double?9tap?$AA@ 000000001016d53d     visuals.obj
 0002:00033548       ??_C@_04HAPDLBFF@auto?$AA@ 000000001016d548     menu.obj
 0002:0003354d       ??_C@_0O@HENACJPC@dragon?5tattoo?$AA@ 000000001016d54d     menu.obj
 0002:0003355b       ??_C@_0L@NLEPLDLM@snake?5camo?$AA@ 000000001016d55b     menu.obj
 0002:00033566       ??_C@_0M@ILDIIFFB@arctic?5camo?$AA@ 000000001016d566     menu.obj
 0002:00033572       ??_C@_07IKAHCDEC@vertigo?$AA@ 000000001016d572     visuals.obj
 0002:0003357a       ??_C@_0N@FAPBPPOA@cl_pitchdown?$AA@ 000000001016d57a     ctx.obj
 0002:00033582       ??_C@_04JMOKAGMG@down?$AA@ 000000001016d582     menu.obj
 0002:00033587       ??_C@_0O@KMAIKFAM@?$CDSourceExtern?$AA@ 000000001016d587     imgui.obj
 0002:00033595       ??_C@_05CDFEGPPN@bizon?$AA@ 000000001016d595     menu.obj
 0002:0003359b       ??_C@_0O@GLNBIEEK@?$CD?$CDColorButton?$AA@ 000000001016d59b     imgui_widgets.obj
 0002:000335a2       ??_C@_06LKBCGDFD@Button?$AA@ 000000001016d5a2     imgui.obj
 0002:000335a9       ??_C@_0P@LLIAGCCB@current?5weapon?$AA@ 000000001016d5a9     menu.obj
 0002:000335b8       ??_C@_0BC@EOODALEL@Unknown?5exception?$AA@ 000000001016d5b8     ctx.obj
 0002:000335ca       ??_C@_0BI@CFPLBAOH@invalid?5string?5position?$AA@ 000000001016d5ca     shots.obj
 0002:000335e2       ??_C@_0P@PKBMFANP@sky?5modulation?$AA@ 000000001016d5e2     menu.obj
 0002:000335f1       ??_C@_0BB@MKBAKNIA@props?5modulation?$AA@ 000000001016d5f1     menu.obj
 0002:00033602       ??_C@_0BB@DILAENIM@world?5modulation?$AA@ 000000001016d602     menu.obj
 0002:00033613       ??_C@_09JJMLPGLD@always?5on?$AA@ 000000001016d613     ctx.obj
 0002:0003361d       ??_C@_05JEBDMKHG@admin?$AA@ 000000001016d61d     menu.obj
 0002:00033623       ??_C@_0BA@GHHGAKGP@1?5bullet?5remain?$AA@ 000000001016d623     menu.obj
 0002:00033633       ??_C@_04KGFMLCPK@Main?$AA@ 000000001016d633     menu.obj
 0002:00033638       ??_C@_0DD@LINOMLFL@invalid?5number?$DL?5expected?5digit?5a@ 000000001016d638     cfg.obj
 0002:0003366b       ??_C@_0CN@IONLHPJF@invalid?5BOM?$DL?5must?5be?50xEF?50xBB?50@ 000000001016d66b     cfg.obj
 0002:00033698       ??_C@_0L@JDGBEGPO@five?9seven?$AA@ 000000001016d698     menu.obj
 0002:000336a3       ??_C@_0O@IDJJBCJJ@unknown?5token?$AA@ 000000001016d6a3     cfg.obj
 0002:000336b1       ??_C@_08JEJCHNIJ@huntsman?$AA@ 000000001016d6b1     menu.obj
 0002:000336ba       ??_C@_07GOBOHMJA@boolean?$AA@ 000000001016d6ba     ctx.obj
 0002:000336c2       ??_C@_0EO@BDKKLBCN@invalid?5string?3?5control?5characte@ 000000001016d6c2     cfg.obj
 0002:0003370e       ??_C@_01EFFIKLCJ@n?$AA@    000000001016d70e     visuals.obj
 0002:00033710       ??_C@_0N@ICELNDCP@desert?5storm?$AA@ 000000001016d710     menu.obj
 0002:0003371d       ??_C@_09CJLAAHJC@right?5arm?$AA@ 000000001016d71d     shots.obj
 0002:00033727       ??_C@_08IGACBHIA@left?5arm?$AA@ 000000001016d727     shots.obj
 0002:00033730       ??_C@_06FHFOAHML@system?$AA@ 000000001016d730     cfg.obj
 0002:00033737       ??_C@_0O@EEKOCENA@PlotHistogram?$AA@ 000000001016d737     imgui.obj
 0002:00033745       ??_C@_07PIBIFNJM@vietnam?$AA@ 000000001016d745     visuals.obj
 0002:0003374d       ??_C@_0N@MIIOILHC@heavy?5pistol?$AA@ 000000001016d74d     menu.obj
 0002:0003375a       ??_C@_04MLLLIHIP@null?$AA@ 000000001016d75a     ctx.obj
 0002:0003375f       ??_C@_04PLMLMMEO@full?$AA@ 000000001016d75f     menu.obj
 0002:00033764       ??_C@_05CAKDPM@galil?$AA@  000000001016d764     menu.obj
 0002:0003376a       ??_C@_0L@LANBIHPM@blue?5steel?$AA@ 000000001016d76a     menu.obj
 0002:00033775       ??_C@_0CC@LCEHFECP@models?1weapons?1w_knife_m9_bay?4md@ 000000001016d775     misc.obj
 0002:00033797       ??_C@_0CC@GFKFNEHH@models?1weapons?1v_knife_m9_bay?4md@ 000000001016d797     misc.obj
 0002:000337b9       ??_C@_0BP@HCMMLCJF@models?1weapons?1w_knife_gut?4mdl?$AA@ 000000001016d7b9     misc.obj
 0002:000337d8       ??_C@_0BP@NMKECDAE@models?1weapons?1v_knife_gut?4mdl?$AA@ 000000001016d7d8     misc.obj
 0002:000337f7       ??_C@_0CD@NJMNJKFK@models?1weapons?1w_knife_bayonet?4m@ 000000001016d7f7     misc.obj
 0002:0003381a       ??_C@_0CD@LMKKKBBM@models?1weapons?1v_knife_bayonet?4m@ 000000001016d81a     misc.obj
 0002:0003383d       ??_C@_0CA@GBBFBJLD@models?1weapons?1w_knife_flip?4mdl?$AA@ 000000001016d83d     misc.obj
 0002:0003385d       ??_C@_0CA@OGLDNCPA@models?1weapons?1v_knife_flip?4mdl?$AA@ 000000001016d85d     misc.obj
 0002:0003387d       ??_C@_0CB@JKAMEBAN@models?1weapons?1w_knife_karam?4mdl@ 000000001016d87d     misc.obj
 0002:0003389e       ??_C@_0CB@HFFOPHOM@models?1weapons?1v_knife_karam?4mdl@ 000000001016d89e     misc.obj
 0002:000338bf       ??_C@_0CE@HMOKIOGH@models?1weapons?1w_knife_tactical?4@ 000000001016d8bf     misc.obj
 0002:000338e3       ??_C@_0CE@ODDAANPJ@models?1weapons?1v_knife_tactical?4@ 000000001016d8e3     misc.obj
 0002:00033907       ??_C@_0P@CMLFDPOO@number?5literal?$AA@ 000000001016d907     cfg.obj
 0002:00033916       ??_C@_0N@LCPDBNFG@null?5literal?$AA@ 000000001016d916     cfg.obj
 0002:00033923       ??_C@_0P@JJFCJNC@string?5literal?$AA@ 000000001016d923     cfg.obj
 0002:00033932       ??_C@_0N@GBJNOFKB@true?5literal?$AA@ 000000001016d932     cfg.obj
 0002:0003393f       ??_C@_0O@GPPJPPBD@false?5literal?$AA@ 000000001016d93f     cfg.obj
 0002:0003394d       ??_C@_0BA@NMKHNIFD@invalid?5literal?$AA@ 000000001016d94d     cfg.obj
 0002:0003395d       ??_C@_0BH@EOPOIFBB@?8?$FL?8?0?5?8?$HL?8?0?5or?5a?5literal?$AA@ 000000001016d95d     cfg.obj
 0002:00033974       ??_C@_0L@GEBPIHGD@additional?$AA@ 000000001016d974     menu.obj
 0002:0003397f       ??_C@_07CANAENLO@minimal?$AA@ 000000001016d97f     menu.obj
 0002:00033987       ??_C@_0L@LCBNLHKO@primordial?$AA@ 000000001016d987     menu.obj
 0002:00033992       ??_C@_06ECBIEKG@lethal?$AA@ 000000001016d992     menu.obj
 0002:00033997       ??_C@_01HHGOMJKL@l?$AA@    000000001016d997     visuals.obj
 0002:00033999       ??_C@_09GDHIJOLD@bone?5mask?$AA@ 000000001016d999     menu.obj
 0002:000339a3       ??_C@_0M@KLCJHEII@clouds?5dark?$AA@ 000000001016d9a3     menu.obj
 0002:000339af       ??_C@_09DMKAANGE@CheckMark?$AA@ 000000001016d9af     imgui.obj
 0002:000339b9       ??_C@_03EGBKCEAL@unk?$AA@  000000001016d9b9     aim_bot.obj
 0002:000339bd       ??_C@_05ELFINMAC@phonk?$AA@ 000000001016d9bd     menu.obj
 0002:000339c3       ??_C@_09GDEEAKEC@nukeblank?$AA@ 000000001016d9c3     visuals.obj
 0002:000339cd       ??_C@_0O@IBEPALEE@infinity?5duck?$AA@ 000000001016d9cd     menu.obj
 0002:000339db       ??_C@_09CEPMOKPG@fake?5duck?$AA@ 000000001016d9db     menu.obj
 0002:000339e5       ??_C@_05KINDNLLC@glock?$AA@ 000000001016d9e5     menu.obj
 0002:000339eb       ??_C@_04EIJCCFDP@cock?$AA@ 000000001016d9eb     menu.obj
 0002:000339f0       ??_C@_0L@JDGFPMIL@fake?5flick?$AA@ 000000001016d9f0     visuals.obj
 0002:000339f5       ??_C@_05EGOEFHML@flick?$AA@ 000000001016d9f5     aim_bot.obj
 0002:000339fb       ??_C@_04NPLPABOK@neck?$AA@ 000000001016d9fb     aim_bot.obj
 0002:00033a00       ??_C@_09JJBKHPGG@xetrahack?$AA@ 000000001016da00     misc.obj
 0002:00033a0a       ??_C@_09JKJBOHH@hehe_hack?$AA@ 000000001016da0a     menu.obj
 0002:00033a14       ??_C@_0M@OIKKAFBN@blue?5streak?$AA@ 000000001016da14     menu.obj
 0002:00033a20       ??_C@_01CBDEGOCN@j?$AA@    000000001016da20     visuals.obj
 0002:00033a22       ??_C@_09BJIHMJFE@imgui?4ini?$AA@ 000000001016da22     imgui.obj
 0002:00033a2c       ??_C@_09GOMOMIIP@Pos?$DN?$CFi?0?$CFi?$AA@ 000000001016da2c     imgui.obj
 0002:00033a36       ??_C@_0L@MPPKDMFA@Size?$DN?$CFi?0?$CFi?$AA@ 000000001016da36     imgui.obj
 0002:00033a41       ??_C@_0BF@KINCDENJ@bad?5array?5new?5length?$AA@ 000000001016da41     ctx.obj
 0002:00033a56       ??_C@_0DE@FDKDLPFL@invalid?5string?3?5forbidden?5charac@ 000000001016da56     cfg.obj
 0002:00033a8a       ??_C@_07FMAKEIBO@stomach?$AA@ 000000001016da8a     aim_bot.obj
 0002:00033a92       ??_C@_03CFKHOHFO@aug?$AA@  000000001016da92     menu.obj
 0002:00033a96       ??_C@_0BL@GOIGLPKN@unordered_map?1set?5too?5long?$AA@ 000000001016da96     ctx.obj
 0002:00033aa0       ??_C@_0BB@GCADKGJO@map?1set?5too?5long?$AA@ 000000001016daa0     ctx.obj
 0002:00033ab1       ??_C@_0BA@FOIKENOD@vector?5too?5long?$AA@ 000000001016dab1     ctx.obj
 0002:00033ac1       ??_C@_0BA@JFNIOLAK@string?5too?5long?$AA@ 000000001016dac1     ctx.obj
 0002:00033ad1       ??_C@_0BG@EOMJEIFA@vector?$DMbool?$DO?5too?5long?$AA@ 000000001016dad1     cfg.obj
 0002:00033ae7       ??_C@_0BC@KBDMBKEH@deque?$DMT?$DO?5too?5long?$AA@ 000000001016dae7     aim_bot.obj
 0002:00033af9       ??_C@_06ICGJLFIM@string?$AA@ 000000001016daf9     ctx.obj
 0002:00033b00       ??_C@_09PDOOPMM@fake?5ping?$AA@ 000000001016db00     visuals.obj
 0002:00033b05       ??_C@_04OONEELOO@ping?$AA@ 000000001016db05     menu.obj
 0002:00033b0a       ??_C@_07PANPENDC@running?$AA@ 000000001016db0a     menu.obj
 0002:00033b12       ??_C@_0N@DMMDGNJE@freestanding?$AA@ 000000001016db12     visuals.obj
 0002:00033b1f       ??_C@_09FHCANJKL@flashbang?$AA@ 000000001016db1f     visuals.obj
 0002:00033b29       ??_C@_09DIFMICDA@right?5leg?$AA@ 000000001016db29     shots.obj
 0002:00033b33       ??_C@_08JHOOJCCC@left?5leg?$AA@ 000000001016db33     shots.obj
 0002:00033b3c       ??_C@_08KCFGIOAH@clan?5tag?$AA@ 000000001016db3c     menu.obj
 0002:00033b45       ??_C@_08DMKFNKPN@WindowBg?$AA@ 000000001016db45     imgui.obj
 0002:00033b4e       ??_C@_0M@MFDHPFJF@ScrollbarBg?$AA@ 000000001016db4e     imgui.obj
 0002:00033b5a       ??_C@_09GEKCKLDE@MenuBarBg?$AA@ 000000001016db5a     imgui.obj
 0002:00033b64       ??_C@_07LKIIIJHA@PopupBg?$AA@ 000000001016db64     imgui.obj
 0002:00033b6c       ??_C@_0BB@JOEAHKNC@ModalWindowDimBg?$AA@ 000000001016db6c     imgui.obj
 0002:00033b7d       ??_C@_0BC@JHKONDGH@NavWindowingDimBg?$AA@ 000000001016db7d     imgui.obj
 0002:00033b8f       ??_C@_07PJIIOGAC@FrameBg?$AA@ 000000001016db8f     imgui.obj
 0002:00033b97       ??_C@_07MMLEKCPI@TitleBg?$AA@ 000000001016db97     imgui.obj
 0002:00033b9f       ??_C@_07BLEJOHFO@ChildBg?$AA@ 000000001016db9f     imgui.obj
 0002:00033ba7       ??_C@_0P@IBBLAEBJ@TextSelectedBg?$AA@ 000000001016dba7     imgui.obj
 0002:00033bb6       ??_C@_03DLDNIBIK@?$CFlf?$AA@ 000000001016dbb6     imgui_widgets.obj
 0002:00033bba       ??_C@_09IDIEPNCB@sawed?9off?$AA@ 000000001016dbba     menu.obj
 0002:00033bc4       ??_C@_0L@GPEFLEFJ@always?5off?$AA@ 000000001016dbc4     ctx.obj
 0002:00033bcf       ??_C@_0EO@IFHEDFEP@invalid?5string?3?5control?5characte@ 000000001016dbcf     cfg.obj
 0002:00033c1d       ??_C@_07KGKAEDCN@V?3?$CF0?43f?$AA@ 000000001016dc1d     imgui_widgets.obj
 0002:00033c25       ??_C@_07OOEAENEJ@S?3?$CF0?43f?$AA@ 000000001016dc25     imgui_widgets.obj
 0002:00033c2d       ??_C@_07CCOKENNH@R?3?$CF0?43f?$AA@ 000000001016dc2d     imgui_widgets.obj
 0002:00033c35       ??_C@_07MPJBGADE@H?3?$CF0?43f?$AA@ 000000001016dc35     imgui_widgets.obj
 0002:00033c3d       ??_C@_07BGLBHCJI@G?3?$CF0?43f?$AA@ 000000001016dc3d     imgui_widgets.obj
 0002:00033c45       ??_C@_07FOFBHMPM@B?3?$CF0?43f?$AA@ 000000001016dc45     imgui_widgets.obj
 0002:00033c4d       ??_C@_07NANOHLBP@A?3?$CF0?43f?$AA@ 000000001016dc4d     imgui_widgets.obj
 0002:00033c4f       ??_C@_05ONBKDNLK@?$CF0?43f?$AA@ 000000001016dc4f     imgui_widgets.obj
 0002:00033c55       ??_C@_0BK@HKNBICJE@H?3?5?$CF?43f?0?5S?3?5?$CF?43f?0?5V?3?5?$CF?43f?$AA@ 000000001016dc55     imgui_widgets.obj
 0002:00033c6f       ??_C@_0CD@EEDEAEPG@H?3?5?$CF?43f?0?5S?3?5?$CF?43f?0?5V?3?5?$CF?43f?0?5A?3?5?$CF?4@ 000000001016dc6f     imgui_widgets.obj
 0002:00033c92       ??_C@_04GGBPDDBN@?$CF?41f?$AA@ 000000001016dc92     menu.obj
 0002:00033c97       ??_C@_02NJPGOMH@?$CFf?$AA@ 000000001016dc97     hooks.obj
 0002:00033c9a       ??_C@_05JFLFIIED@blaze?$AA@ 000000001016dc9a     menu.obj
 0002:00033ca0       ??_C@_09OLPDFOEE@last?5move?$AA@ 000000001016dca0     aim_bot.obj
 0002:00033ca5       ??_C@_04HDMMNHEL@move?$AA@ 000000001016dca5     aim_bot.obj
 0002:00033caa       ??_C@_0BA@BPNGFOJM@SeparatorActive?$AA@ 000000001016dcaa     imgui.obj
 0002:00033cba       ??_C@_0N@HILFCJOI@HeaderActive?$AA@ 000000001016dcba     imgui.obj
 0002:00033cc7       ??_C@_0BB@NBBKHKIC@ResizeGripActive?$AA@ 000000001016dcc7     imgui.obj
 0002:00033cd8       ??_C@_0N@IMHOFKJ@ButtonActive?$AA@ 000000001016dcd8     imgui.obj
 0002:00033ce5       ??_C@_0O@BGDCDDEA@FrameBgActive?$AA@ 000000001016dce5     imgui.obj
 0002:00033cf3       ??_C@_0O@JHBFJHNE@TitleBgActive?$AA@ 000000001016dcf3     imgui.obj
 0002:00033d01       ??_C@_0BD@JMEALEPP@TabUnfocusedActive?$AA@ 000000001016dd01     imgui.obj
 0002:00033d14       ??_C@_0BB@HBOBMOMP@SliderGrabActive?$AA@ 000000001016dd14     imgui.obj
 0002:00033d25       ??_C@_0BE@GODMFNCF@ScrollbarGrabActive?$AA@ 000000001016dd25     imgui.obj
 0002:00033d39       ??_C@_09BLMKPFCF@TabActive?$AA@ 000000001016dd39     imgui.obj
 0002:00033d43       ??_C@_04EMMDIJJL@save?$AA@ 000000001016dd43     menu.obj
 0002:00033d48       ??_C@_04LOAJBDKD@true?$AA@ 000000001016dd48     cfg.obj
 0002:00033d4d       ??_C@_0CE@BGJPELCC@iterator?5does?5not?5fit?5current?5va@ 000000001016dd4d     cfg.obj
 0002:00033d71       ??_C@_0BB@GBBPBDAB@cannot?5get?5value?$AA@ 000000001016dd71     ctx.obj
 0002:00033d82       ??_C@_0M@GAJHAAOE@blend?5value?$AA@ 000000001016dd82     menu.obj
 0002:00033d88       ??_C@_05MFEJDJP@value?$AA@ 000000001016dd88     cfg.obj
 0002:00033d8e       ??_C@_03GKJJMKFG@hue?$AA@  000000001016dd8e     imgui_widgets.obj
 0002:00033d92       ??_C@_0CG@DBODJMKB@invalid?5string?3?5ill?9formed?5UTF?98@ 000000001016dd92     cfg.obj
 0002:00033db8       ??_C@_05JPIAEMGC@brute?$AA@ 000000001016ddb8     aim_bot.obj
 0002:00033dbe       ??_C@_0CG@MLGKFPBE@invalid?5string?3?5missing?5closing?5@ 000000001016ddbe     cfg.obj
 0002:00033de4       ??_C@_05EHJKLNBO@elite?$AA@ 000000001016dde4     menu.obj
 0002:00033dea       ??_C@_08CCNMMIE@no?5state?$AA@ 000000001016ddea     aim_bot.obj
 0002:00033df3       ??_C@_0N@LIOECKMG@red?5laminate?$AA@ 000000001016ddf3     menu.obj
 0002:00033e00       ??_C@_0L@KPPKGFLB@lby?5update?$AA@ 000000001016de00     menu.obj
 0002:00033e0b       ??_C@_05PEEFLODH@Mouse?$AA@ 000000001016de0b     imgui.obj
 0002:00033e11       ??_C@_09EBEOAEMM@neverlose?$AA@ 000000001016de11     menu.obj
 0002:00033e1b       ??_C@_05LAPONLG@false?$AA@ 000000001016de1b     cfg.obj
 0002:00033e21       ??_C@_0P@JCDOJLHG@broken?5promise?$AA@ 000000001016de21     aim_bot.obj
 0002:00033e30       ??_C@_06MOFGPAFB@future?$AA@ 000000001016de30     aim_bot.obj
 0002:00033e37       ??_C@_0M@FJOFOJLC@cobblestone?$AA@ 000000001016de37     menu.obj
 0002:00033e43       ??_C@_04CGFJFPFD@none?$AA@ 000000001016de43     menu.obj
 0002:00033e48       ??_C@_04OHJIHAFH@None?$AA@ 000000001016de48     imgui.obj
 0002:00033e4d       ??_C@_0M@PALNKING@candy?5apple?$AA@ 000000001016de4d     menu.obj
 0002:00033e59       ??_C@_06MPAOAEGI@jungle?$AA@ 000000001016de59     visuals.obj
 0002:00033e60       ??_C@_06FHLCKAHH@toggle?$AA@ 000000001016de60     ctx.obj
 0002:00033e67       ??_C@_06BOLHOKHP@deagle?$AA@ 000000001016de67     menu.obj
 0002:00033e6e       ??_C@_0N@KFBFGFJL@?$CD?$CDselectable?$AA@ 000000001016de6e     imgui_widgets.obj
 0002:00033e7b       ??_C@_0BC@JPBBANLP@con_filter_enable?$AA@ 000000001016de7b     local_player.obj
 0002:00033e8d       ??_C@_0L@OCEPJLDA@con_enable?$AA@ 000000001016de8d     local_player.obj
 0002:00033e98       ??_C@_08MNJEDPJF@gunsmoke?$AA@ 000000001016de98     menu.obj
 0002:00033ea1       ??_C@_0BA@NCADAJBJ@lighting?5strike?$AA@ 000000001016dea1     menu.obj
 0002:00033eb1       ??_C@_07OMAOACIN@no?5fake?$AA@ 000000001016deb1     aim_bot.obj
 0002:00033eb4       ??_C@_04PADNKBEK@fake?$AA@ 000000001016deb4     menu.obj
 0002:00033eb9       ??_C@_0N@EPJFPCBB@out_of_range?$AA@ 000000001016deb9     ctx.obj
 0002:00033ec6       ??_C@_0BB@IELAECFH@?5is?5out?5of?5range?$AA@ 000000001016dec6     ctx.obj
 0002:00033ed7       ??_C@_0BG@OAOABPIO@iterator?5out?5of?5range?$AA@ 000000001016ded7     cfg.obj
 0002:00033eed       ??_C@_0BA@INICBIHH@override?5damage?$AA@ 000000001016deed     visuals.obj
 0002:00033efd       ??_C@_07MNLJIGJP@baggage?$AA@ 000000001016defd     menu.obj
 0002:00033f05       ??_C@_04KNIGEGGI@Rage?$AA@ 000000001016df05     menu.obj
 0002:00033f0a       ??_C@_09CEBCAOKA@gut?5knife?$AA@ 000000001016df0a     menu.obj
 0002:00033f14       ??_C@_0L@CCCAMPCJ@flip?5knife?$AA@ 000000001016df14     menu.obj
 0002:00033f19       ??_C@_05BIPCPIBA@knife?$AA@ 000000001016df19     menu.obj
 0002:00033f1f       ??_C@_06HLPIKOFJ@strafe?$AA@ 000000001016df1f     menu.obj
 0002:00033f26       ??_C@_0N@FKGHAKOK@dmg?5override?$AA@ 000000001016df26     menu.obj
 0002:00033f33       ??_C@_0BC@NMOAILLM@incendiarygrenade?$AA@ 000000001016df33     visuals.obj
 0002:00033f45       ??_C@_0M@OIAAMLHE@fraggrenade?$AA@ 000000001016df45     visuals.obj
 0002:00033f51       ??_C@_0N@LGLLMOFO@smokegrenade?$AA@ 000000001016df51     visuals.obj
 0002:00033f5e       ??_C@_04PLGBOGHH@fade?$AA@ 000000001016df5e     menu.obj
 0002:00033f63       ??_C@_07JKODCMP@advance?$AA@ 000000001016df63     cfg.obj
 0002:00033f6b       ??_C@_0BA@KOMDCBEO@peek?5assistance?$AA@ 000000001016df6b     visuals.obj
 0002:00033f7b       ??_C@_0BG@KEPJGIMM@third?5person?5distance?$AA@ 000000001016df7b     menu.obj
 0002:00033f91       ??_C@_0L@OPAPPBEE@sky_venice?$AA@ 000000001016df91     visuals.obj
 0002:00033f9c       ??_C@_06MDIHCADF@office?$AA@ 000000001016df9c     visuals.obj
 0002:00033fa3       ??_C@_0N@OCNOBDDN@xetrahack?5xd?$AA@ 000000001016dfa3     misc.obj
 0002:00033fb0       ??_C@_0M@BGJILJC@NavKeyboard?$AA@ 000000001016dfb0     imgui.obj
 0002:00033fbc       ??_C@_07DGHDINOO@hot?5rod?$AA@ 000000001016dfbc     menu.obj
 0002:00033fc4       ??_C@_08DMFHGKMF@r?5method?$AA@ 000000001016dfc4     menu.obj
 0002:00033fcd       ??_C@_0N@MFFOHPLI@?$CD?$CDBackground?$AA@ 000000001016dfcd     imgui.obj
 0002:00033fda       ??_C@_0N@MFHPHIIJ@?$CD?$CDForeground?$AA@ 000000001016dfda     imgui.obj
 0002:00033fe7       ??_C@_07GKLHOKPI@fog?5end?$AA@ 000000001016dfe7     menu.obj
 0002:00033fef       ??_C@_05MFLOHCHP@World?$AA@ 000000001016dfef     menu.obj
 0002:00033ff5       ??_C@_04LDIGEPNM@hold?$AA@ 000000001016dff5     ctx.obj
 0002:00033ffa       ??_C@_06JIPNAMDD@?2ufffd?$AA@ 000000001016dffa     cfg.obj
 0002:00034001       ??_C@_0BD@MLOHFBBK@granite?5marbleized?$AA@ 000000001016e001     menu.obj
 0002:00034014       ??_C@_0M@CGCLKIPK@is?5resolved?$AA@ 000000001016e014     menu.obj
 0002:00034017       ??_C@_08CGJBBLIA@resolved?$AA@ 000000001016e017     menu.obj
 0002:00034020       ??_C@_0BJ@JOKOCMFN@future?5already?5retrieved?$AA@ 000000001016e020     aim_bot.obj
 0002:00034039       ??_C@_0N@KLEENDFP@TabUnfocused?$AA@ 000000001016e039     imgui.obj
 0002:00034046       ??_C@_0BB@EGCOMBJG@TitleBgCollapsed?$AA@ 000000001016e046     imgui.obj
 0002:00034057       ??_C@_0BB@OMALNJLN@PlotLinesHovered?$AA@ 000000001016e057     imgui.obj
 0002:00034068       ??_C@_0BB@CHICANJA@SeparatorHovered?$AA@ 000000001016e068     imgui.obj
 0002:00034079       ??_C@_0O@HAINNLMC@HeaderHovered?$AA@ 000000001016e079     imgui.obj
 0002:00034087       ??_C@_0BC@NNEDPMNH@ResizeGripHovered?$AA@ 000000001016e087     imgui.obj
 0002:00034099       ??_C@_0O@HBCGNIAI@ButtonHovered?$AA@ 000000001016e099     imgui.obj
 0002:000340a7       ??_C@_0BF@GJALJGDC@PlotHistogramHovered?$AA@ 000000001016e0a7     imgui.obj
 0002:000340bc       ??_C@_0P@KIOOHHAC@FrameBgHovered?$AA@ 000000001016e0bc     imgui.obj
 0002:000340cb       ??_C@_0BF@JFEOOMLL@ScrollbarGrabHovered?$AA@ 000000001016e0cb     imgui.obj
 0002:000340e0       ??_C@_0L@JFDLBKBD@TabHovered?$AA@ 000000001016e0e0     imgui.obj
 0002:000340eb       ??_C@_0N@HMGHFIKN@just?5stopped?$AA@ 000000001016e0eb     shots.obj
 0002:000340f8       ??_C@_0BB@CJNOCIFN@OuterRectClipped?$AA@ 000000001016e0f8     imgui.obj
 0002:00034109       ??_C@_06OKDHAKL@scoped?$AA@ 000000001016e109     menu.obj
 0002:00034110       ??_C@_07GDNLKMEG@stained?$AA@ 000000001016e110     menu.obj
 0002:00034118       ??_C@_0O@OGFJJFAN@case?5hardened?$AA@ 000000001016e118     menu.obj
 0002:00034126       ??_C@_0N@LNHHFNPK@TextDisabled?$AA@ 000000001016e126     imgui.obj
 0002:00034133       ??_C@_0BK@JNDAEPJA@promise?5already?5satisfied?$AA@ 000000001016e133     aim_bot.obj
 0002:0003414d       ??_C@_08FFFJDKHP@ossified?$AA@ 000000001016e14d     menu.obj
 0002:00034156       ??_C@_0O@FNPECAMJ@lichen?5dashed?$AA@ 000000001016e156     menu.obj
 0002:00034164       ??_C@_0L@ELHKEFF@cl_upspeed?$AA@ 000000001016e164     ctx.obj
 0002:0003416f       ??_C@_0N@NCCMPMBI@cl_sidespeed?$AA@ 000000001016e16f     ctx.obj
 0002:0003417c       ??_C@_0BA@NOBHMJJP@cl_forwardspeed?$AA@ 000000001016e17c     ctx.obj
 0002:0003418c       ??_C@_09BHELGMBL@discarded?$AA@ 000000001016e18c     ctx.obj
 0002:00034196       ??_C@_0L@GFEAGONP@NavGamepad?$AA@ 000000001016e196     imgui.obj
 0002:000341a1       ??_C@_04EONOHKEP@load?$AA@ 000000001016e1a1     menu.obj
 0002:000341a6       ??_C@_0L@FDALEIBD@copperhead?$AA@ 000000001016e1a6     menu.obj
 0002:000341ac       ??_C@_04NEODDMOL@head?$AA@ 000000001016e1ac     aim_bot.obj
 0002:000341b1       ??_C@_0BI@FBPJGCPP@third?5person?5while?5dead?$AA@ 000000001016e1b1     menu.obj
 0002:000341c9       ??_C@_05LLAMLEHD@?$CFI64d?$AA@ 000000001016e1c9     imgui_widgets.obj
 0002:000341cf       ??_C@_05MPCLLPPH@V?3?$CF3d?$AA@ 000000001016e1cf     imgui_widgets.obj
 0002:000341d5       ??_C@_05JPOGCOEE@S?3?$CF3d?$AA@ 000000001016e1d5     imgui_widgets.obj
 0002:000341db       ??_C@_05FELKPNOB@R?3?$CF3d?$AA@ 000000001016e1db     imgui_widgets.obj
 0002:000341e1       ??_C@_05PGPHNMBM@H?3?$CF3d?$AA@ 000000001016e1e1     imgui_widgets.obj
 0002:000341e7       ??_C@_05HKBGOMJ@G?3?$CF3d?$AA@ 000000001016e1e7     imgui_widgets.obj
 0002:000341ed       ??_C@_05FHGMPPHK@B?3?$CF3d?$AA@ 000000001016e1ed     imgui_widgets.obj
 0002:000341f3       ??_C@_05NBPIINNE@A?3?$CF3d?$AA@ 000000001016e1f3     imgui_widgets.obj
 0002:000341f5       ??_C@_03GOOLIKIF@?$CF3d?$AA@ 000000001016e1f5     imgui_widgets.obj
 0002:000341f9       ??_C@_0M@NANGKBBK@?$CD?$CDMenu_?$CF02d?$AA@ 000000001016e1f9     imgui.obj
 0002:00034205       ??_C@_0P@DHLMFJKK@?$CD?$CDTooltip_?$CF02d?$AA@ 000000001016e205     imgui.obj
 0002:00034214       ??_C@_0N@JOGGDHMO@?$CD?$CDCombo_?$CF02d?$AA@ 000000001016e214     imgui_widgets.obj
 0002:00034221       ??_C@_0N@IAKNMBB@Collapsed?$DN?$CFd?$AA@ 000000001016e221     imgui.obj
 0002:0003422b       ??_C@_02DPKJAMEF@?$CFd?$AA@ 000000001016e22b     menu.obj
 0002:0003422e       ??_C@_04MHPHMCPO@Misc?$AA@ 000000001016e22e     menu.obj
 0002:00034233       ??_C@_02PKDCMMN@lc?$AA@    000000001016e233     menu.obj
 0002:00034236       ??_C@_07DCLBNMLN@generic?$AA@ 000000001016e236     shots.obj
 0002:0003423e       ??_C@_0O@HEJNNLNC@anti?9fs?5logic?$AA@ 000000001016e23e     aim_bot.obj
 0002:0003424c       ??_C@_0BA@CGEAKOII@last?5move?5logic?$AA@ 000000001016e24c     aim_bot.obj
 0002:0003425c       ??_C@_05NKGGHMKJ@aztec?$AA@ 000000001016e25c     menu.obj
 0002:00034262       ??_C@_02JDPG@rb?$AA@       000000001016e262     imgui.obj
 0002:00034265       ??_C@_0M@LOFHFGIJ@crimson?5web?$AA@ 000000001016e265     menu.obj
 0002:00034271       ??_C@_0L@LAMBADIC@SliderGrab?$AA@ 000000001016e271     imgui.obj
 0002:0003427c       ??_C@_0O@HABIDNBE@ScrollbarGrab?$AA@ 000000001016e27c     imgui.obj
 0002:0003428a       ??_C@_03IEAKBACE@Tab?$AA@  000000001016e28a     imgui.obj
 0002:0003428e       ??_C@_0EO@HAMNCDCJ@invalid?5string?3?5control?5characte@ 000000001016e28e     cfg.obj
 0002:000342dc       ??_C@_0BC@PIPMLIGP@sky_csgo_night02b?$AA@ 000000001016e2dc     visuals.obj
 0002:000342ee       ??_C@_04FAAAGIJP@nova?$AA@ 000000001016e2ee     menu.obj
 0002:000342f3       ??_C@_09EFMAAONC@lby?5delta?$AA@ 000000001016e2f3     aim_bot.obj
 0002:000342fd       ??_C@_0N@LCMPHGK@no?5move?5data?$AA@ 000000001016e2fd     menu.obj
 0002:0003430a       ??_C@_05BAGILKKI@extra?$AA@ 000000001016e30a     menu.obj
 0002:00034310       ??_C@_05BHMELPJO@Extra?$AA@ 000000001016e310     menu.obj
 0002:00034316       ??_C@_05DHFAPINO@xetra?$AA@ 000000001016e316     misc.obj
 0002:0003431c       ??_C@_05IAEKHIAN@alpha?$AA@ 000000001016e31c     imgui_widgets.obj
 0002:00034322       ??_C@_05EAIFGGED@cz75a?$AA@ 000000001016e322     menu.obj
 0002:00034328       ??_C@_0P@LGNBDIJN@?$FLcsgo_project?$FN?$AA@ 000000001016e328     local_player.obj
 0002:00034337       ??_C@_02GPECMEKF@?$FL?$FN?$AA@ 000000001016e337     cfg.obj
 0002:0003433a       ??_C@_03KMIJCADP@?$FLZ?$FN?$AA@ 000000001016e33a     ctx.obj
 0002:0003433e       ??_C@_03KOMPJOGG@?$FLY?$FN?$AA@ 000000001016e33e     ctx.obj
 0002:00034342       ??_C@_05EKOILBCO@?$FLTOY?$FN?$AA@ 000000001016e342     ctx.obj
 0002:00034348       ??_C@_03KPANPEFB@?$FLX?$FN?$AA@ 000000001016e348     ctx.obj
 0002:0003434c       ??_C@_03KEFBLDGM@?$FLW?$FN?$AA@ 000000001016e34c     ctx.obj
 0002:00034350       ??_C@_05CAJGALKG@?$FLDOW?$FN?$AA@ 000000001016e350     ctx.obj
 0002:00034356       ??_C@_03KFJDNJFL@?$FLV?$FN?$AA@ 000000001016e356     ctx.obj
 0002:0003435a       ??_C@_05EDPDOEN@?$FLDIV?$FN?$AA@ 000000001016e35a     ctx.obj
 0002:00034360       ??_C@_03KHNFGHAC@?$FLU?$FN?$AA@ 000000001016e360     ctx.obj
 0002:00034364       ??_C@_05KOLENGNE@?$FLEQU?$FN?$AA@ 000000001016e364     ctx.obj
 0002:0003436a       ??_C@_05HDMGMGGF@?$FLPGU?$FN?$AA@ 000000001016e36a     ctx.obj
 0002:00034370       ??_C@_05FGKNJJLJ@?$FLPAU?$FN?$AA@ 000000001016e370     ctx.obj
 0002:00034376       ??_C@_03KGBHANDF@?$FLT?$FN?$AA@ 000000001016e376     ctx.obj
 0002:0003437a       ??_C@_05PIIFJFGB@?$FLALT?$FN?$AA@ 000000001016e37a     ctx.obj
 0002:00034380       ??_C@_05KCMNDHLJ@?$FLRET?$FN?$AA@ 000000001016e380     ctx.obj
 0002:00034386       ??_C@_03KDFIBLLA@?$FLS?$FN?$AA@ 000000001016e386     ctx.obj
 0002:0003438a       ??_C@_05GHLDAAKO@?$FLINS?$FN?$AA@ 000000001016e38a     ctx.obj
 0002:00034390       ??_C@_05MKFALGDI@?$FLMAS?$FN?$AA@ 000000001016e390     ctx.obj
 0002:00034396       ??_C@_03KCJKHBIH@?$FLR?$FN?$AA@ 000000001016e396     ctx.obj
 0002:0003439a       ??_C@_05BDGFMFMD@?$FLCTR?$FN?$AA@ 000000001016e39a     ctx.obj
 0002:000343a0       ??_C@_05IGMILKLD@?$FLCLR?$FN?$AA@ 000000001016e3a0     ctx.obj
 0002:000343a6       ??_C@_05LOELDNGH@?$FLSCR?$FN?$AA@ 000000001016e3a6     ctx.obj
 0002:000343ac       ??_C@_03KANMMPNO@?$FLQ?$FN?$AA@ 000000001016e3ac     ctx.obj
 0002:000343b0       ??_C@_03KBBOKFOJ@?$FLP?$FN?$AA@ 000000001016e3b0     ctx.obj
 0002:000343b4       ??_C@_04OJGEAEAB@?$FLUP?$FN?$AA@ 000000001016e3b4     ctx.obj
 0002:000343b9       ??_C@_05OFEDNFJK@?$FLAPP?$FN?$AA@ 000000001016e3b9     ctx.obj
 0002:000343bf       ??_C@_05JIKELGNF@?$FLSEP?$FN?$AA@ 000000001016e3bf     ctx.obj
 0002:000343c5       ??_C@_05HHCGLGAA@?$FLCAP?$FN?$AA@ 000000001016e3c5     ctx.obj
 0002:000343cb       ??_C@_03LGGEEBKE@?$FLO?$FN?$AA@ 000000001016e3cb     ctx.obj
 0002:000343cf       ??_C@_05DCMFFOHH@?$FLNCO?$FN?$AA@ 000000001016e3cf     ctx.obj
 0002:000343d5       ??_C@_03LHKGCLJD@?$FLN?$FN?$AA@ 000000001016e3d5     ctx.obj
 0002:000343d9       ??_C@_05LDPFJKMD@?$FLJUN?$FN?$AA@ 000000001016e3d9     ctx.obj
 0002:000343df       ??_C@_05IBEBEPEJ@?$FLCON?$FN?$AA@ 000000001016e3df     ctx.obj
 0002:000343e5       ??_C@_05DBEKCBNH@?$FLWIN?$FN?$AA@ 000000001016e3e5     ctx.obj
 0002:000343eb       ??_C@_05BLBKKOPE@?$FLMIN?$FN?$AA@ 000000001016e3eb     ctx.obj
 0002:000343f1       ??_C@_05GMMKJPOF@?$FLFIN?$FN?$AA@ 000000001016e3f1     ctx.obj
 0002:000343f7       ??_C@_04IKKOICDI@?$FLCN?$FN?$AA@ 000000001016e3f7     ctx.obj
 0002:000343fc       ??_C@_05FBOOHDLL@?$FLKAN?$FN?$AA@ 000000001016e3fc     ctx.obj
 0002:00034402       ??_C@_03LFOAJFMK@?$FLM?$FN?$AA@ 000000001016e402     ctx.obj
 0002:00034406       ??_C@_05EEDDICFK@?$FLNUM?$FN?$AA@ 000000001016e406     ctx.obj
 0002:0003440c       ??_C@_05PENHMAAB@?$FLHOM?$FN?$AA@ 000000001016e40c     ctx.obj
 0002:00034412       ??_C@_03LECCPPPN@?$FLL?$FN?$AA@ 000000001016e412     ctx.obj
 0002:00034416       ??_C@_05CFBJCLN@?$FLMUL?$FN?$AA@ 000000001016e416     ctx.obj
 0002:0003441c       ??_C@_05FNNELLJ@?$FLCTL?$FN?$AA@ 000000001016e41c     ctx.obj
 0002:00034422       ??_C@_05INJIOMMB@?$FLSEL?$FN?$AA@ 000000001016e422     ctx.obj
 0002:00034428       ??_C@_05JKKIEKFC@?$FLHEL?$FN?$AA@ 000000001016e428     ctx.obj
 0002:0003442e       ??_C@_05FPFIKHFD@?$FLDEL?$FN?$AA@ 000000001016e42e     ctx.obj
 0002:00034434       ??_C@_03LBGNOJHI@?$FLK?$FN?$AA@ 000000001016e434     ctx.obj
 0002:00034438       ??_C@_03LAKPIDEP@?$FLJ?$FN?$AA@ 000000001016e438     ctx.obj
 0002:0003443c       ??_C@_03LCOJDNBG@?$FLI?$FN?$AA@ 000000001016e43c     ctx.obj
 0002:00034440       ??_C@_05BDNDLNM@?$FLPRI?$FN?$AA@ 000000001016e440     ctx.obj
 0002:00034446       ??_C@_05HJDJPGPH@?$FLSHI?$FN?$AA@ 000000001016e446     ctx.obj
 0002:0003444c       ??_C@_03LDCLFHCB@?$FLH?$FN?$AA@ 000000001016e44c     ctx.obj
 0002:00034450       ??_C@_03LIHHBABM@?$FLG?$FN?$AA@ 000000001016e450     ctx.obj
 0002:00034454       ??_C@_05PGHLJFCI@?$FLRIG?$FN?$AA@ 000000001016e454     ctx.obj
 0002:0003445a       ??_C@_03LJLFHKCL@?$FLF?$FN?$AA@ 000000001016e45a     ctx.obj
 0002:0003445e       ??_C@_05GCLPGJEE@?$FLLEF?$FN?$AA@ 000000001016e45e     ctx.obj
 0002:00034464       ??_C@_03LLPDMEHC@?$FLE?$FN?$AA@ 000000001016e464     ctx.obj
 0002:00034468       ??_C@_05MPJKDKCO@?$FLEXE?$FN?$AA@ 000000001016e468     ctx.obj
 0002:0003446e       ??_C@_05PPEBJIME@?$FLSLE?$FN?$AA@ 000000001016e46e     ctx.obj
 0002:00034474       ??_C@_03LKDBKOEF@?$FLD?$FN?$AA@ 000000001016e474     ctx.obj
 0002:00034478       ??_C@_05LLCKFIFK@?$FLEND?$FN?$AA@ 000000001016e478     ctx.obj
 0002:0003447e       ??_C@_05GOCCAPCC@?$FLPGD?$FN?$AA@ 000000001016e47e     ctx.obj
 0002:00034484       ??_C@_05CBBHBOPO@?$FLADD?$FN?$AA@ 000000001016e484     ctx.obj
 0002:0003448a       ??_C@_05NDDJADMN@?$FLMAD?$FN?$AA@ 000000001016e48a     ctx.obj
 0002:00034490       ??_C@_03LPHOLIMA@?$FLC?$FN?$AA@ 000000001016e490     ctx.obj
 0002:00034494       ??_C@_05BMBGMBJN@?$FLESC?$FN?$AA@ 000000001016e494     ctx.obj
 0002:0003449a       ??_C@_05FEAEOAGO@?$FLDEC?$FN?$AA@ 000000001016e49a     ctx.obj
 0002:000344a0       ??_C@_05LJIPDAMC@?$FLACC?$FN?$AA@ 000000001016e4a0     ctx.obj
 0002:000344a6       ??_C@_05FECGICJJ@?$FLBAC?$FN?$AA@ 000000001016e4a6     ctx.obj
 0002:000344ac       ??_C@_03LOLMNCPH@?$FLB?$FN?$AA@ 000000001016e4ac     ctx.obj
 0002:000344b0       ??_C@_05LKEEIKIM@?$FLTAB?$FN?$AA@ 000000001016e4b0     ctx.obj
 0002:000344b6       ??_C@_03LMPKGMKO@?$FLA?$FN?$AA@ 000000001016e4b6     ctx.obj
 0002:000344ba       ??_C@_05DKJPONDG@?$FLOYA?$FN?$AA@ 000000001016e4ba     ctx.obj
 0002:000344c0       ??_C@_05OCIHNIDP@?$FLSPA?$FN?$AA@ 000000001016e4c0     ctx.obj
 0002:000344c6       ??_C@_03OGBIFFEG@?$FL9?$FN?$AA@ 000000001016e4c6     ctx.obj
 0002:000344ca       ??_C@_04OMMOAMNP@?$FLF9?$FN?$AA@ 000000001016e4ca     ctx.obj
 0002:000344cf       ??_C@_05JDPPGJED@?$FLF19?$FN?$AA@ 000000001016e4cf     ctx.obj
 0002:000344d5       ??_C@_03OHNKDPHB@?$FL8?$FN?$AA@ 000000001016e4d5     ctx.obj
 0002:000344d9       ??_C@_04ONAMGGOI@?$FLF8?$FN?$AA@ 000000001016e4d9     ctx.obj
 0002:000344de       ??_C@_05JCDNADHE@?$FLF18?$FN?$AA@ 000000001016e4de     ctx.obj
 0002:000344e4       ??_C@_03OMIGHIEM@?$FL7?$FN?$AA@ 000000001016e4e4     ctx.obj
 0002:000344e8       ??_C@_04OGFACBNF@?$FLF7?$FN?$AA@ 000000001016e4e8     ctx.obj
 0002:000344ed       ??_C@_05JJGBEEEJ@?$FLF17?$FN?$AA@ 000000001016e4ed     ctx.obj
 0002:000344f3       ??_C@_03ONEEBCHL@?$FL6?$FN?$AA@ 000000001016e4f3     ctx.obj
 0002:000344f7       ??_C@_04OHJCELOC@?$FLF6?$FN?$AA@ 000000001016e4f7     ctx.obj
 0002:000344fc       ??_C@_05JIKDCOHO@?$FLF16?$FN?$AA@ 000000001016e4fc     ctx.obj
 0002:00034502       ??_C@_03OPACKMCC@?$FL5?$FN?$AA@ 000000001016e502     ctx.obj
 0002:00034506       ??_C@_04DCNFHCLK@?$FLM5?$FN?$AA@ 000000001016e506     ctx.obj
 0002:0003450b       ??_C@_04OFNEPFLL@?$FLF5?$FN?$AA@ 000000001016e50b     ctx.obj
 0002:00034510       ??_C@_05JKOFJACH@?$FLF15?$FN?$AA@ 000000001016e510     ctx.obj
 0002:00034516       ??_C@_03OOMAMGBF@?$FL4?$FN?$AA@ 000000001016e516     ctx.obj
 0002:0003451a       ??_C@_04DDBHBIIN@?$FLM4?$FN?$AA@ 000000001016e51a     ctx.obj
 0002:0003451f       ??_C@_04OEBGJPIM@?$FLF4?$FN?$AA@ 000000001016e51f     ctx.obj
 0002:00034524       ??_C@_05IJJCFFPO@?$FLF24?$FN?$AA@ 000000001016e524     ctx.obj
 0002:0003452a       ??_C@_05JLCHPKBA@?$FLF14?$FN?$AA@ 000000001016e52a     ctx.obj
 0002:00034530       ??_C@_03OLIPNAJA@?$FL3?$FN?$AA@ 000000001016e530     ctx.obj
 0002:00034534       ??_C@_04DGFIAOAI@?$FLM3?$FN?$AA@ 000000001016e534     ctx.obj
 0002:00034539       ??_C@_04OBFJIJAJ@?$FLF3?$FN?$AA@ 000000001016e539     ctx.obj
 0002:0003453e       ??_C@_05IMNNEDHL@?$FLF23?$FN?$AA@ 000000001016e53e     ctx.obj
 0002:00034544       ??_C@_05JOGIOMJF@?$FLF13?$FN?$AA@ 000000001016e544     ctx.obj
 0002:0003454a       ??_C@_03OKENLKKH@?$FL2?$FN?$AA@ 000000001016e54a     ctx.obj
 0002:0003454e       ??_C@_04DHJKGEDP@?$FLM2?$FN?$AA@ 000000001016e54e     ctx.obj
 0002:00034553       ??_C@_04OAJLODDO@?$FLF2?$FN?$AA@ 000000001016e553     ctx.obj
 0002:00034558       ??_C@_05INBPCJEM@?$FLF22?$FN?$AA@ 000000001016e558     ctx.obj
 0002:0003455e       ??_C@_05JPKKIGKC@?$FLF12?$FN?$AA@ 000000001016e55e     ctx.obj
 0002:00034564       ??_C@_03OIALAEPO@?$FL1?$FN?$AA@ 000000001016e564     ctx.obj
 0002:00034568       ??_C@_04DFNMNKGG@?$FLM1?$FN?$AA@ 000000001016e568     ctx.obj
 0002:0003456d       ??_C@_04OCNNFNGH@?$FLF1?$FN?$AA@ 000000001016e56d     ctx.obj
 0002:00034572       ??_C@_05IPFJJHBF@?$FLF21?$FN?$AA@ 000000001016e572     ctx.obj
 0002:00034578       ??_C@_05JNOMDIPL@?$FLF11?$FN?$AA@ 000000001016e578     ctx.obj
 0002:0003457e       ??_C@_03OJMJGOMJ@?$FL0?$FN?$AA@ 000000001016e57e     ctx.obj
 0002:00034582       ??_C@_05IOJLPNCC@?$FLF20?$FN?$AA@ 000000001016e582     ctx.obj
 0002:00034588       ??_C@_05JMCOFCMM@?$FLF10?$FN?$AA@ 000000001016e588     ctx.obj
 0002:0003458e       ??_C@_03PNDHFOOK@?$FL?9?$FN?$AA@ 000000001016e58e     ctx.obj
 0002:00034592       ??_C@_0BJ@LBMEKDJE@anti?9fs?5?$FL?5no?5move?5data?5?$FN?$AA@ 000000001016e592     aim_bot.obj
 0002:000345ab       ??_C@_0BH@MFAMCILJ@brute?5?$FL?5no?5move?5data?5?$FN?$AA@ 000000001016e5ab     aim_bot.obj
 0002:000345c2       ??_C@_0L@EHLNBIHC@?$HL?$CCbytes?$CC?3?$FL?$AA@ 000000001016e5c2     cfg.obj
 0002:000345cd       ??_C@_0L@PKCNPMFP@?$CCbytes?$CC?3?5?$FL?$AA@ 000000001016e5cd     cfg.obj
 0002:000345d8       ??_C@_03BGGDGNFE@?$CD?$CDZ?$AA@ 000000001016e5d8     imgui_widgets.obj
 0002:000345dc       ??_C@_0L@MNJLPCNM@INCENDIARY?$AA@ 000000001016e5dc     visuals.obj
 0002:000345e7       ??_C@_08FEBONNKO@?$CDSCROLLY?$AA@ 000000001016e5e7     imgui_widgets.obj
 0002:000345f0       ??_C@_03BHBOHINF@LBY?$AA@  000000001016e5f0     visuals.obj
 0002:000345f4       ??_C@_03DNEODOJH@?$CD?$CDY?$AA@ 000000001016e5f4     imgui_widgets.obj
 0002:000345f8       ??_C@_0BC@JHPKFIGH@HoveredId?3?50x?$CF08X?$AA@ 000000001016e5f8     imgui.obj
 0002:0003460a       ??_C@_0L@BDFLDJGI@?$CFs?1?$CFs_?$CF08X?$AA@ 000000001016e60a     imgui.obj
 0002:00034615       ??_C@_07KBCBAKFA@?$CFs?1?$CF08X?$AA@ 000000001016e615     imgui.obj
 0002:0003461d       ??_C@_0BC@CKPCOFBK@?$CD?$CF02X?$CF02X?$CF02X?$CF02X?$AA@ 000000001016e61d     imgui_widgets.obj
 0002:0003461e       ??_C@_0BB@DDMGLOLI@?$CF02X?$CF02X?$CF02X?$CF02X?$AA@ 000000001016e61e     imgui_widgets.obj
 0002:0003462f       ??_C@_0O@MBPBDFLP@?$CD?$CF02X?$CF02X?$CF02X?$AA@ 000000001016e62f     imgui_widgets.obj
 0002:00034630       ??_C@_0N@KODLFHPJ@?$CF02X?$CF02X?$CF02X?$AA@ 000000001016e630     imgui_widgets.obj
 0002:0003463d       ??_C@_04CFJMJGDJ@?$CF?42X?$AA@ 000000001016e63d     cfg.obj
 0002:00034642       ??_C@_03CEFFAPNG@?$CD?$CDX?$AA@ 000000001016e642     imgui_widgets.obj
 0002:00034646       ??_C@_03KDMNBDBJ@?$CD?$CDW?$AA@ 000000001016e646     imgui_widgets.obj
 0002:0003464a       ??_C@_03CAADKAK@HSV?$AA@   000000001016e64a     imgui_widgets.obj
 0002:0003464e       ??_C@_07OLHHFPGP@MOLOTOV?$AA@ 000000001016e64e     visuals.obj
 0002:00034656       ??_C@_04DHFLIKEL@LAST?$AA@ 000000001016e656     visuals.obj
 0002:0003465b       ??_C@_0BI@HDILIFIJ@MH_ERROR_MEMORY_PROTECT?$AA@ 000000001016e65b     minhook_x86_v143_md:hook.obj
 0002:00034673       ??_C@_02OJGKDGOJ@MS?$AA@   000000001016e673     visuals.obj
 0002:00034676       ??_C@_07BOPLBEBO@ANTI?9FS?$AA@ 000000001016e676     visuals.obj
 0002:0003467e       ??_C@_03KNFJGCC@AIR?$AA@   000000001016e67e     visuals.obj
 0002:00034682       ??_C@_0L@OGPCCONM@MH_UNKNOWN?$AA@ 000000001016e682     minhook_x86_v143_md:hook.obj
 0002:0003468d       ??_C@_0BO@JGLOGLHI@MH_ERROR_UNSUPPORTED_FUNCTION?$AA@ 000000001016e68d     minhook_x86_v143_md:hook.obj
 0002:000346ab       ??_C@_05GOFNBHKB@MH_OK?$AA@ 000000001016e6ab     minhook_x86_v143_md:hook.obj
 0002:000346b1       ??_C@_03ELOBOJHH@UNK?$AA@  000000001016e6b1     visuals.obj
 0002:000346b5       ??_C@_05INHCLAIF@FLICK?$AA@ 000000001016e6b5     visuals.obj
 0002:000346bb       ??_C@_0EM@NBBIGKDA@invalid?5string?3?5surrogate?5U?$CLD800@ 000000001016e6bb     cfg.obj
 0002:00034707       ??_C@_0EE@JEFCKMMK@invalid?5string?3?5surrogate?5U?$CLDC00@ 000000001016e707     cfg.obj
 0002:00034748       ??_C@_02NCIKDPBM@FF?$AA@   000000001016e748     visuals.obj
 0002:0003474b       ??_C@_06LAOCEMMP@_COL4F?$AA@ 000000001016e74b     imgui_widgets.obj
 0002:00034752       ??_C@_06LFKNFKEK@_COL3F?$AA@ 000000001016e752     imgui_widgets.obj
 0002:00034759       ??_C@_0EI@BDNODKJO@invalid?5string?3?5control?5characte@ 000000001016e759     cfg.obj
 0002:000347a1       ??_C@_0EI@FBMHLBEA@invalid?5string?3?5control?5characte@ 000000001016e7a1     cfg.obj
 0002:000347e9       ??_C@_07HDHBJEOI@?$CDRESIZE?$AA@ 000000001016e7e9     imgui.obj
 0002:000347f1       ??_C@_05EJCOBEBF@?$CDMOVE?$AA@ 000000001016e7f1     imgui.obj
 0002:000347f2       ??_C@_04LPPGDFDD@MOVE?$AA@ 000000001016e7f2     visuals.obj
 0002:000347f7       ??_C@_05FEBGKLCM@BRUTE?$AA@ 000000001016e7f7     visuals.obj
 0002:000347fd       ??_C@_09BJOGEADB@?$CDCOLLAPSE?$AA@ 000000001016e7fd     imgui.obj
 0002:00034807       ??_C@_06KIIKKNMI@?$CDCLOSE?$AA@ 000000001016e807     imgui.obj
 0002:0003480e       ??_C@_0BI@ONHKLIEE@MH_ERROR_NOT_EXECUTABLE?$AA@ 000000001016e80e     minhook_x86_v143_md:hook.obj
 0002:00034826       ??_C@_0L@PEOABHGH@HE?5GRENADE?$AA@ 000000001016e826     visuals.obj
 0002:00034831       ??_C@_0EI@NGMGHBHA@invalid?5string?3?5control?5characte@ 000000001016e831     cfg.obj
 0002:00034879       ??_C@_0EI@LAJMIDAP@invalid?5string?3?5control?5characte@ 000000001016e879     cfg.obj
 0002:000348c1       ??_C@_0BM@JPINPKML@MH_ERROR_FUNCTION_NOT_FOUND?$AA@ 000000001016e8c1     minhook_x86_v143_md:hook.obj
 0002:000348dd       ??_C@_0BK@FENDNJHO@MH_ERROR_MODULE_NOT_FOUND?$AA@ 000000001016e8dd     minhook_x86_v143_md:hook.obj
 0002:000348f7       ??_C@_0BN@NKPDILDH@MH_ERROR_ALREADY_INITIALIZED?$AA@ 000000001016e8f7     minhook_x86_v143_md:hook.obj
 0002:00034914       ??_C@_0BJ@NEFDEEIO@MH_ERROR_NOT_INITIALIZED?$AA@ 000000001016e914     minhook_x86_v143_md:hook.obj
 0002:0003492d       ??_C@_0BJ@EMFAAEGJ@MH_ERROR_ALREADY_CREATED?$AA@ 000000001016e92d     minhook_x86_v143_md:hook.obj
 0002:00034946       ??_C@_0BF@KAPHKAPP@MH_ERROR_NOT_CREATED?$AA@ 000000001016e946     minhook_x86_v143_md:hook.obj
 0002:0003495b       ??_C@_07HJLKKEON@STOPPED?$AA@ 000000001016e95b     visuals.obj
 0002:00034963       ??_C@_0BC@CCPCFLPI@MH_ERROR_DISABLED?$AA@ 000000001016e963     minhook_x86_v143_md:hook.obj
 0002:00034975       ??_C@_0BB@HHFKFOJC@MH_ERROR_ENABLED?$AA@ 000000001016e975     minhook_x86_v143_md:hook.obj
 0002:00034986       ??_C@_0EI@EECAIDOI@invalid?5string?3?5control?5characte@ 000000001016e986     cfg.obj
 0002:000349ce       ??_C@_0BG@FHKMAOCO@MH_ERROR_MEMORY_ALLOC?$AA@ 000000001016e9ce     minhook_x86_v143_md:hook.obj
 0002:000349e4       ??_C@_0EI@LHNMAEPO@invalid?5string?3?5control?5characte@ 000000001016e9e4     cfg.obj
 0002:00034a2c       ??_C@_03ICFFBAI@RGB?$AA@   000000001016ea2c     imgui_widgets.obj
 0002:00034a30       ??_C@_0EJ@DKHNKOP@invalid?5string?3?5control?5characte@ 000000001016ea30     cfg.obj
 0002:00034a79       ??_C@_0EI@DPPPKLPC@invalid?5string?3?5control?5characte@ 000000001016ea79     cfg.obj
 0002:00034ac1       ??_C@_05BJPCNOLC@DELTA?$AA@ 000000001016eac1     visuals.obj
 0002:00034ac7       ??_C@_02JIIELPFO@AA?$AA@   000000001016eac7     menu.obj
 0002:00034aca       ??_C@_0EJ@GHGHBGJE@invalid?5string?3?5control?5characte@ 000000001016eaca     cfg.obj
 0002:00034b13       ??_C@_0O@JLFFEAGH@?$DMparse?5error?$DO?$AA@ 000000001016eb13     cfg.obj
 0002:00034b21       ??_C@_0BA@JFDABGPH@?$DMuninitialized?$DO?$AA@ 000000001016eb21     cfg.obj
 0002:00034b31       ??_C@_0M@MKMGJFPL@?$DMdiscarded?$DO?$AA@ 000000001016eb31     cfg.obj
 0002:00034b3d       ??_C@_08HEDMEGDA@?$DMU?$CL?$CF?44X?$DO?$AA@ 000000001016eb3d     cfg.obj
 0002:00034b46       ??_C@_02HBOOOICD@?9?$DO?$AA@ 000000001016eb46     ctx.obj
 0002:00034b47       ??_C@_01PPODPGHN@?$DO?$AA@ 000000001016eb47     visuals.obj
 0002:00034b49       ??_C@_01MNNFJEPP@?$DM?$AA@ 000000001016eb49     visuals.obj
 0002:00034b4b       ??_C@_0N@JHCCFCOC@?$FN?0?$CCsubtype?$CC?3?$AA@ 000000001016eb4b     cfg.obj
 0002:00034b55       ??_C@_02BONOGKBK@?$CC?3?$AA@ 000000001016eb55     cfg.obj
 0002:00034b58       ??_C@_0P@PJLJBPPP@imgui_impl_dx9?$AA@ 000000001016eb58     imgui_impl_dx9.obj
 0002:00034b67       ??_C@_04CPLLELMC@m249?$AA@ 000000001016eb67     menu.obj
 0002:00034b6c       ??_C@_0EI@PODKIIEG@invalid?5string?3?5control?5characte@ 000000001016eb6c     cfg.obj
 0002:00034bb4       ??_C@_04NFBEDIL@mp?99?$AA@ 000000001016ebb4     menu.obj
 0002:00034bb9       ??_C@_05JINOOJFC@tec?99?$AA@ 000000001016ebb9     menu.obj
 0002:00034bbf       ??_C@_0EJ@CMNKNMME@invalid?5string?3?5control?5characte@ 000000001016ebbf     cfg.obj
 0002:00034c08       ??_C@_06HIBLBAIN@ssg?908?$AA@ 000000001016ec08     menu.obj
 0002:00034c0f       ??_C@_06IKHBMIFA@ssg?508?$AA@ 000000001016ec0f     menu.obj
 0002:00034c16       ??_C@_05ICEKFOGE@ak?947?$AA@ 000000001016ec16     menu.obj
 0002:00034c1c       ??_C@_0EJ@MJEDHOMH@invalid?5string?3?5control?5characte@ 000000001016ec1c     cfg.obj
 0002:00034c65       ??_C@_0EJ@FMJJFDDO@invalid?5string?3?5control?5characte@ 000000001016ec65     cfg.obj
 0002:00034cae       ??_C@_04JDNCGOAF@mp?97?$AA@ 000000001016ecae     menu.obj
 0002:00034cb3       ??_C@_05FIGGKGBI@mag?97?$AA@ 000000001016ecb3     menu.obj
 0002:00034cb9       ??_C@_0EJ@DANDDHBM@invalid?5string?3?5control?5characte@ 000000001016ecb9     cfg.obj
 0002:00034d02       ??_C@_0EJ@JAMEJLH@invalid?5string?3?5control?5characte@ 000000001016ed02     cfg.obj
 0002:00034d4b       ??_C@_06FDBEKFBH@0?4?4255?$AA@ 000000001016ed4b     imgui_widgets.obj
 0002:00034d52       ??_C@_06ECHANLFP@ump?945?$AA@ 000000001016ed52     menu.obj
 0002:00034d59       ??_C@_0EJ@KGLCIOHO@invalid?5string?3?5control?5characte@ 000000001016ed59     cfg.obj
 0002:00034da2       ??_C@_0EJ@GPLGMBKM@invalid?5string?3?5control?5characte@ 000000001016eda2     cfg.obj
 0002:00034deb       ??_C@_04NFAJIGAI@m4a4?$AA@ 000000001016edeb     menu.obj
 0002:00034df0       ??_C@_07EGNCIELJ@xm?91014?$AA@ 000000001016edf0     menu.obj
 0002:00034df8       ??_C@_0EJ@PDDJNMLF@invalid?5string?3?5control?5characte@ 000000001016edf8     cfg.obj
 0002:00034e41       ??_C@_0EJ@FKCGPJCG@invalid?5string?3?5control?5characte@ 000000001016ee41     cfg.obj
 0002:00034e8a       ??_C@_0N@KOIHEGEF@additional_3?$AA@ 000000001016ee8a     menu.obj
 0002:00034e97       ??_C@_06ICINHELI@sg?9553?$AA@ 000000001016ee97     menu.obj
 0002:00034e9e       ??_C@_0EJ@LBJBPEEN@invalid?5string?3?5control?5characte@ 000000001016ee9e     cfg.obj
 0002:00034ee7       ??_C@_0EJ@BPGBHIAL@invalid?5string?3?5control?5characte@ 000000001016eee7     cfg.obj
 0002:00034f30       ??_C@_0N@LHJMHHAE@additional_2?$AA@ 000000001016ef30     menu.obj
 0002:00034f3d       ??_C@_0BB@FLGJPPJK@imgui_impl_win32?$AA@ 000000001016ef3d     imgui_impl_win32.obj
 0002:00034f4e       ??_C@_0EJ@OPAPENBO@invalid?5string?3?5control?5characte@ 000000001016ef4e     cfg.obj
 0002:00034f97       ??_C@_0BB@DNKKAGKJ@sky_csgo_night02?$AA@ 000000001016ef97     visuals.obj
 0002:00034fa8       ??_C@_0EJ@OKNGOHIK@invalid?5string?3?5control?5characte@ 000000001016efa8     cfg.obj
 0002:00034ff1       ??_C@_07MMEBLNBN@night?52?$AA@ 000000001016eff1     menu.obj
 0002:00034ff9       ??_C@_0L@COJCLJP@daylight?52?$AA@ 000000001016eff9     menu.obj
 0002:00035004       ??_C@_08BNEIIPNE@clouds?52?$AA@ 000000001016f004     menu.obj
 0002:0003500d       ??_C@_05EPACHGIN@g3sg1?$AA@ 000000001016f00d     menu.obj
 0002:00035013       ??_C@_0EJ@MKMIGOL@invalid?5string?3?5control?5characte@ 000000001016f013     cfg.obj
 0002:0003505c       ??_C@_0BC@NJBKFELC@sky_csgo_cloudy01?$AA@ 000000001016f05c     visuals.obj
 0002:0003506e       ??_C@_0EJ@CGIOMNAN@invalid?5string?3?5control?5characte@ 000000001016f06e     cfg.obj
 0002:000350b7       ??_C@_03EBHIGIJD@p90?$AA@  000000001016f0b7     menu.obj
 0002:000350bb       ??_C@_04GHMLMJIP@p250?$AA@ 000000001016f0bb     menu.obj
 0002:000350c0       ??_C@_0EJ@MNJGJMON@invalid?5string?3?5control?5characte@ 000000001016f0c0     cfg.obj
 0002:00035109       ??_C@_06DNHPBCHB@mac?910?$AA@ 000000001016f109     menu.obj
 0002:00035110       ??_C@_05BNGMMMAL@M?3000?$AA@ 000000001016f110     imgui_widgets.obj
 0002:00035116       ??_C@_05JFPIJDLJ@p2000?$AA@ 000000001016f116     menu.obj
 0002:0003511c       ??_C@_0EJ@NABLKLLF@invalid?5string?3?5control?5characte@ 000000001016f11c     cfg.obj
 0002:00035165       ??_C@_07FFNLLALM@M?30?4000?$AA@ 000000001016f165     imgui_widgets.obj
 0002:0003516d       ??_C@_0L@MDNPBJBM@0?400?4?41?400?$AA@ 000000001016f16d     imgui_widgets.obj
 0002:00035178       ??_C@_0CF@MEOACMEM@can?8t?5hook?5hooks?3?3create_move_pr@ 000000001016f178     ctx.obj
 0002:0003519d       ??_C@_0CG@EKBOJIGI@can?8t?5hook?5hooks?3?3frame_stage_no@ 000000001016f19d     ctx.obj
 0002:000351c3       ??_C@_0CG@NGJIELNG@can?8t?5hook?5hooks?3?3list_leaves_in@ 000000001016f1c3     ctx.obj
 0002:000351e9       ??_C@_0CB@FMKOKFDN@can?8t?5hook?5hooks?3?3override_view?4@ 000000001016f1e9     ctx.obj
 0002:0003520a       ??_C@_0BN@KFGDAEPL@can?8t?5hook?5hooks?3?3calc_view?4?$AA@ 000000001016f20a     ctx.obj
 0002:00035227       ??_C@_0BL@GJLALGLI@can?8t?5hook?5hooks?3?3is_hltv?4?$AA@ 000000001016f227     ctx.obj
 0002:00035242       ??_C@_0CN@LFFGNMDD@can?8t?5hook?5hooks?3?3process_interp@ 000000001016f242     ctx.obj
 0002:0003526f       ??_C@_0BM@MNFIBLDD@can?8t?5find?5interfaces?5list?4?$AA@ 000000001016f26f     ctx.obj
 0002:0003528b       ??_C@_0CD@OPOPGDLA@can?8t?5find?5CreateInterface?5expor@ 000000001016f28b     ctx.obj
 0002:000352ae       ??_C@_0CA@ILHNLAJ@can?8t?5hook?5hooks?3?3packet_start?4?$AA@ 000000001016f2ae     ctx.obj
 0002:000352ce       ??_C@_0BP@HFCHAGOM@can?8t?5hook?5hooks?3?3dx9_present?4?$AA@ 000000001016f2ce     ctx.obj
 0002:000352ed       ??_C@_0CE@JEKHFEMO@can?8t?5hook?5hooks?3?3process_moveme@ 000000001016f2ed     ctx.obj
 0002:00035311       ??_C@_0BN@LOHKOAEC@can?8t?5hook?5hooks?3?3dx9_reset?4?$AA@ 000000001016f311     ctx.obj
 0002:0003532e       ??_C@_0CC@EHCPEBLF@can?8t?5hook?5hooks?3?3process_packet@ 000000001016f32e     ctx.obj
 0002:00035350       ??_C@_0BI@LMDIEOJH@can?8t?5find?5ent?5offsets?4?$AA@ 000000001016f350     ctx.obj
 0002:00035368       ??_C@_0DA@CCJKFLDI@can?8t?5hook?5hooks?3?3do_post_screen@ 000000001016f368     ctx.obj
 0002:00035398       ??_C@_0CF@HNHLAAGF@can?8t?5hook?5hooks?3?3accumulate_lay@ 000000001016f398     ctx.obj
 0002:000353bd       ??_C@_0BB@OBIDACKC@invalid?5nt?5hdrs?4?$AA@ 000000001016f3bd     ctx.obj
 0002:000353ce       ??_C@_0CC@PLHMAGAA@can?8t?5hook?5hooks?3?3modify_eye_pos@ 000000001016f3ce     ctx.obj
 0002:000353f0       ??_C@_0CJ@GHIDIOPC@can?8t?5hook?5hooks?3?3build_transfor@ 000000001016f3f0     ctx.obj
 0002:00035419       ??_C@_0BL@IFCINKPA@can?8t?5get?5creation?5params?4?$AA@ 000000001016f419     ctx.obj
 0002:00035434       ??_C@_0BI@IDJLMAJJ@can?8t?5enable?5all?5hooks?4?$AA@ 000000001016f434     ctx.obj
 0002:0003544c       ??_C@_0BP@BNBJKGPB@can?8t?5hook?5hooks?3?3setup_bones?4?$AA@ 000000001016f44c     ctx.obj
 0002:0003546b       ??_C@_0CL@KGOHCCKJ@can?8t?5hook?5hooks?3?3standard_blend@ 000000001016f46b     ctx.obj
 0002:00035496       ??_C@_0CJ@FIHBCAEP@can?8t?5hook?5hooks?3?3process_temp_e@ 000000001016f496     ctx.obj
 0002:000354bf       ??_C@_0BH@IDBFDNOL@can?8t?5find?5interfaces?4?$AA@ 000000001016f4bf     ctx.obj
 0002:000354d6       ??_C@_0BP@LOOHDMEJ@can?8t?5hook?5hooks?3?3lock_cursor?4?$AA@ 000000001016f4d6     ctx.obj
 0002:000354f5       ??_C@_0DC@JODCBIG@can?8t?5hook?5hooks?3?3write_user_cmd@ 000000001016f4f5     ctx.obj
 0002:00035527       ??_C@_0BB@BFAKFBBP@invalid?5dos?5hdr?4?$AA@ 000000001016f527     ctx.obj
 0002:00035538       ??_C@_0CA@MJLIGNKO@can?8t?5hook?5hooks?3?3aspect_ratio?4?$AA@ 000000001016f538     ctx.obj
 0002:00035558       ??_C@_0BB@DHAIOKED@?$FLjson?4exception?4?$AA@ 000000001016f558     ctx.obj
 0002:00035569       ??_C@_0CI@LGJKMFPF@can?8t?5hook?5hooks?3?3get_color_modu@ 000000001016f569     ctx.obj
 0002:00035591       ??_C@_0CI@CAADAOAJ@can?8t?5hook?5hooks?3?3get_alpha_modu@ 000000001016f591     ctx.obj
 0002:000355b9       ??_C@_0CL@GHJLLNFC@can?8t?5hook?5hooks?3?3update_client_@ 000000001016f5b9     ctx.obj
 0002:000355e4       ??_C@_0CB@LIEDFIFH@can?8t?5hook?5hooks?3?3send_datagram?4@ 000000001016f5e4     ctx.obj
 0002:00035605       ??_C@_0CK@GDJJHHBF@can?8t?5hook?5hooks?3?3should_draw_vi@ 000000001016f605     ctx.obj
 0002:0003562f       ??_C@_0BK@HDMBOLFD@can?8t?5initialize?5minhook?4?$AA@ 000000001016f62f     ctx.obj
 0002:00035649       ??_C@_0CN@JDFOFDPL@can?8t?5hook?5hooks?3?3do_extra_bones@ 000000001016f649     ctx.obj
 0002:00035676       ??_C@_0BM@IIPBLKLJ@Press?5ESC?5to?5abort?5picking?4?$AA@ 000000001016f676     imgui.obj
 0002:00035692       ??_C@_0BO@BJIOHGGD@can?8t?5hook?5hooks?3?3setup_move?4?$AA@ 000000001016f692     ctx.obj
 0002:000356b0       ??_C@_0BL@PKABCBGA@can?8t?5hook?5hooks?3?3cl_move?4?$AA@ 000000001016f6b0     ctx.obj
 0002:000356cb       ??_C@_0CE@MOBCJPJD@can?8t?5hook?5hooks?3?3physics_simula@ 000000001016f6cb     ctx.obj
 0002:000356ef       ??_C@_0CC@OGNABJFK@can?8t?5hook?5hooks?3?3paint_traverse@ 000000001016f6ef     ctx.obj
 0002:00035711       ??_C@_0CC@NCKJEHJ@can?8t?5hook?5hooks?3?3exposure_range@ 000000001016f711     ctx.obj
 0002:00035733       ??_C@_0BO@BBDFCNAK@can?8t?5hook?5hooks?3?3packet_end?4?$AA@ 000000001016f733     ctx.obj
 0002:00035751       ??_C@_0BL@CGMCACLK@can?8t?5hook?5hooks?3?3run_cmd?4?$AA@ 000000001016f751     ctx.obj
 0002:0003576c       ??_C@_0BN@MLOHPJNO@can?8t?5hook?5hooks?3?3is_paused?4?$AA@ 000000001016f76c     ctx.obj
 0002:00035789       ??_C@_0BM@LBFIHDGI@can?8t?5hook?5hooks?3?3wnd_proc?4?$AA@ 000000001016f789     ctx.obj
 0002:000357a5       ??_C@_0CB@FLKNCNHE@can?8t?5hook?5hooks?3?3draw_mdl_exec?4@ 000000001016f7a5     ctx.obj
 0002:000357c6       ??_C@_0CG@OEIJJCFF@can?8t?5hook?5hooks?3?3calc_viewmodel@ 000000001016f7c6     ctx.obj
 0002:000357ec       ??_C@_0CG@CLFKFKJL@can?8t?5hook?5hooks?3?3svc_msg_voice_@ 000000001016f7ec     ctx.obj
 0002:00035812       ??_C@_09NMCCFHEI@Copy?5as?4?4?$AA@ 000000001016f812     imgui_widgets.obj
 0002:0003581c       ??_C@_03KHICJKCI@?4?4?4?$AA@ 000000001016f81c     imgui.obj
 0002:0003581e       ??_C@_01LFCBOECM@?4?$AA@   000000001016f81e     ctx.obj
 0002:00035820       ??_C@_0CB@GNHPAIID@?9?9?9?9?9?9?9?9?9?9?9?9?9?9?9?9?9?9?9?9?9?9?9?9?9?9?9?9?9?9?9?9@ 000000001016f820     imgui_widgets.obj
 0002:00035841       ??_C@_0L@MJODCFJE@?$CK?$CKstudio?$CK?$CK?$AA@ 000000001016f841     visuals.obj
 0002:0003584a       ??_C@_01NBENCBCI@?$CK?$AA@ 000000001016f84a     imgui.obj
 0002:0003584c       ??_C@_03KFJJABDB@?$CIx?$CJ?$AA@ 000000001016f84c     imgui_widgets.obj
 0002:00035850       ??_C@_0BA@KDPNEDEH@?$CIMain?5menu?5bar?$CJ?$AA@ 000000001016f850     imgui.obj
 0002:00035860       ??_C@_07NPLNEKJH@?$CIPopup?$CJ?$AA@ 000000001016f860     imgui.obj
 0002:00035868       ??_C@_0BN@GKCJMPCH@?$CI?$CF?43ff?0?5?$CF?43ff?0?5?$CF?43ff?0?5?$CF?43ff?$CJ?$AA@ 000000001016f868     imgui_widgets.obj
 0002:00035885       ??_C@_0DF@FAPNKOHO@?$CD?$CF02X?$CF02X?$CF02X?6R?3?5?$CFd?0?5G?3?5?$CFd?0?5B?3?5?$CF@ 000000001016f885     imgui_widgets.obj
 0002:000358ba       ??_C@_0EC@EBPMGCGK@?$CD?$CF02X?$CF02X?$CF02X?$CF02X?6R?3?$CFd?0?5G?3?$CFd?0?5B?3@ 000000001016f8ba     imgui_widgets.obj
 0002:000358fc       ??_C@_0L@JOJOIPFK@?$CIUntitled?$CJ?$AA@ 000000001016f8fc     imgui.obj
 0002:00035907       ??_C@_0O@EJHNAHBL@?$CI?$CFd?0?$CFd?0?$CFd?0?$CFd?$CJ?$AA@ 000000001016f907     imgui_widgets.obj
 0002:00035915       ??_C@_03MHDGHODJ@?$CI?5?$CJ?$AA@ 000000001016f915     imgui_widgets.obj
 0002:00035919       ??_C@_03GFLCPOAC@?8?$HN?8?$AA@ 000000001016f919     cfg.obj
 0002:0003591d       ??_C@_03GBDPICLA@?8?$HL?8?$AA@ 000000001016f91d     cfg.obj
 0002:00035921       ??_C@_03FNPPLIOC@?8?$FN?8?$AA@ 000000001016f921     cfg.obj
 0002:00035925       ??_C@_03FJHCMEFA@?8?$FL?8?$AA@ 000000001016f925     cfg.obj
 0002:00035929       ??_C@_03BAGHGFEH@?8?3?8?$AA@ 000000001016f929     cfg.obj
 0002:0003592d       ??_C@_0CG@NNDMIEDH@invalid?5comment?$DL?5missing?5closing@ 000000001016f92d     cfg.obj
 0002:00035953       ??_C@_0DA@PAGCIHNF@invalid?5comment?$DL?5expecting?5?8?1?8?5o@ 000000001016f953     cfg.obj
 0002:00035983       ??_C@_0CJ@CBPMDKID@invalid?5number?$DL?5expected?5digit?5a@ 000000001016f983     cfg.obj
 0002:000359ac       ??_C@_0CJ@CDLKIENK@invalid?5number?$DL?5expected?5digit?5a@ 000000001016f9ac     cfg.obj
 0002:000359d5       ??_C@_03IMMLKIF@?8?0?8?$AA@ 000000001016f9d5     cfg.obj
 0002:000359d9       ??_C@_0BK@GBHGKIGD@number?5overflow?5parsing?5?8?$AA@ 000000001016f9d9     cfg.obj
 0002:000359f3       ??_C@_0P@CPMJEHAD@?$DL?5last?5read?3?5?8?$AA@ 000000001016f9f3     cfg.obj
 0002:00035a00       ??_C@_01GEODFPGF@?8?$AA@   000000001016fa00     cfg.obj
 0002:00035a02       ??_C@_01EPMOAMKG@$?$AA@    000000001016fa02     visuals.obj
 0002:00035a04       ??_C@_03OIJOKPOL@?$CD?$CD?$CD?$AA@ 000000001016fa04     imgui.obj
 0002:00035a08       ??_C@_03NONCDIOG@?3?5?$CC?$AA@ 000000001016fa08     cfg.obj
 0002:00035a0c       ??_C@_04PHMHGEMA@?$CC?0?5?$CC?$AA@ 000000001016fa0c     cfg.obj
 0002:00035a11       ??_C@_0BM@OPIPEIJO@Click?5to?5break?5in?5debugger?$CB?$AA@ 000000001016fa11     imgui.obj
 0002:00035a2d       ??_C@_0O@GEHPLBPJ@Hello?0?5world?$CB?$AA@ 000000001016fa2d     menu.obj
 0002:00035a3b       ??_C@_0BC@IMLFPKKJ@Hello?0?5world?$CB?$CB?$CB?$CB?$CB?$AA@ 000000001016fa3b     visuals.obj
 0002:00035a4d       ??_C@_0BM@DEOLOPOL@Hello?0?5world?$CB?$CB?$CB?$CB?$CB?$CB?$CB?$CB?$CB?$CB?$CB?$CB?$CB?$CB?$CB?$AA@ 000000001016fa4d     misc.obj
 0002:00035a69       ??_C@_03LGOGDKEL@?5?$HM?5?$AA@ 000000001016fa69     misc.obj
 0002:00035a6d       ??_C@_0N@FFHOJKID@array?5index?5?$AA@ 000000001016fa6d     ctx.obj
 0002:00035a7a       ??_C@_0BN@FGKMDFDN@invalid?5UTF?98?5byte?5at?5index?5?$AA@ 000000001016fa7a     cfg.obj
 0002:00035a97       ??_C@_0BN@EAGLCAOD@type?5must?5be?5number?0?5but?5is?5?$AA@ 000000001016fa97     ctx.obj
 0002:00035ab4       ??_C@_0O@DLFJJHJG@syntax?5error?5?$AA@ 000000001016fab4     cfg.obj
 0002:00035ac2       ??_C@_09LIPKCAOI@?0?5column?5?$AA@ 000000001016fac2     cfg.obj
 0002:00035acc       ??_C@_0DD@MKOBOCJE@cannot?5use?5operator?$FL?$FN?5with?5a?5str@ 000000001016facc     ctx.obj
 0002:00035aff       ??_C@_0BG@GLMDJNDN@cannot?5use?5at?$CI?$CJ?5with?5?$AA@ 000000001016faff     ctx.obj
 0002:00035b15       ??_C@_0CA@CDBCAIPG@cannot?5use?5emplace_back?$CI?$CJ?5with?5?$AA@ 000000001016fb15     ctx.obj
 0002:00035b35       ??_C@_0BJ@NPKCAHHP@cannot?5use?5erase?$CI?$CJ?5with?5?$AA@ 000000001016fb35     cfg.obj
 0002:00035b4e       ??_C@_09BEOCNAAM@?5at?5line?5?$AA@ 000000001016fb4e     cfg.obj
 0002:00035b58       ??_C@_0M@GHJKFFPF@unexpected?5?$AA@ 000000001016fb58     cfg.obj
 0002:00035b64       ??_C@_0M@DKPGADPC@?$DL?5expected?5?$AA@ 000000001016fb64     cfg.obj
 0002:00035b70       ??_C@_02PBFOLPKM@?$FN?5?$AA@ 000000001016fb70     ctx.obj
 0002:00035b73       ??_C@_05ONMBKDAA@?5ms?3?5?$AA@ 000000001016fb73     misc.obj
 0002:00035b79       ??_C@_06HNOJHEKM@user?3?5?$AA@ 000000001016fb79     menu.obj
 0002:00035b80       ??_C@_0BH@FCBMNGHJ@excessive?5array?5size?3?5?$AA@ 000000001016fb80     cfg.obj
 0002:00035b97       ??_C@_0BI@JLEGJFPM@excessive?5object?5size?3?5?$AA@ 000000001016fb97     cfg.obj
 0002:00035baf       ??_C@_0M@MIEMHDME@?$CCsubtype?$CC?3?5?$AA@ 000000001016fbaf     cfg.obj
 0002:00035bb7       ??_C@_03GIPIADLC@?$CC?3?5?$AA@ 000000001016fbb7     cfg.obj
 0002:00035bb8       ??_C@_02LMMGGCAJ@?3?5?$AA@ 000000001016fbb8     cfg.obj
 0002:00035bbb       ??_C@_02KFKPNHPM@?9?5?$AA@ 000000001016fbbb     cfg.obj
 0002:00035bbe       ??_C@_02KEGNLNML@?0?5?$AA@ 000000001016fbbe     cfg.obj
 0002:00035bbf       ??_C@_01CLKCMJKC@?5?$AA@   000000001016fbbf     visuals.obj
 0002:00035bc1       ??_C@_02KCPFEJNG@?$HL?6?$AA@ 000000001016fbc1     cfg.obj
 0002:00035bc4       ??_C@_0O@JAFHMCKE@Collapsed?$DN?$CFd?6?$AA@ 000000001016fbc4     imgui.obj
 0002:00035bd2       ??_C@_0L@DDMADIHO@Pos?$DN?$CFd?0?$CFd?6?$AA@ 000000001016fbd2     imgui.obj
 0002:00035bdd       ??_C@_0M@CFANMDMP@Size?$DN?$CFd?0?$CFd?6?$AA@ 000000001016fbdd     imgui.obj
 0002:00035be9       ??_C@_09HNFDDBIF@?$FL?$CFs?$FN?$FL?$CFs?$FN?6?$AA@ 000000001016fbe9     imgui.obj
 0002:00035bf3       ??_C@_02JKLIAPDG@?$FL?6?$AA@ 000000001016fbf3     cfg.obj
 0002:00035bf6       ??_C@_03CMGEKAJC@?$FN?0?6?$AA@ 000000001016fbf6     cfg.obj
 0002:00035bf7       ??_C@_02MLAGHBOD@?0?6?$AA@ 000000001016fbf7     cfg.obj
 0002:00035bfa       ??_C@_02PCIJFNDE@?$AN?6?$AA@ 000000001016fbfa     imgui.obj
 0002:00035bfb       ??_C@_01EEMJAFIK@?6?$AA@   000000001016fbfb     imgui.obj
 0002:00035bfc       ??_C@_00CNPNBAHC@?$AA@     000000001016fbfc     aim_bot.obj
 0002:00035bfc       ??_C@_00CNPNBAHC@@         000000001016fbfc     freetype:autofit.obj
 0002:00035c00       ??_C@_0BA@HEGJLNGN@?a?$ID?$JI?5?a?$ID?$JE?5?a?$ID?$JA?5?a?$LC?$LP@ 000000001016fc00     freetype:autofit.obj
 0002:00035c10       ??_C@_0M@BIKJPOHA@?j?$JI?$JD?5?j?$JG?$JM?5?j?$JG?$LE@ 000000001016fc10     freetype:autofit.obj
 0002:00035c1c       ??_C@_04LANBAAGA@?p?$JA?$JB?$LE@ 000000001016fc1c     freetype:autofit.obj
 0002:00035c24       ??_C@_03FHMEHKGN@?j?$JD?$LD@ 000000001016fc24     freetype:autofit.obj
 0002:00035c28       ??_C@_07PMBMNIKD@?$OA?$LE?$KA?5?$OA?$LE?$LB@ 000000001016fc28     freetype:autofit.obj
 0002:00035c30       ??_C@_03IHFLNIGM@?a?$KO?$LA@ 000000001016fc30     freetype:autofit.obj
 0002:00035c34       ??_C@_0M@HBKEJKFL@?a?$LF?$JC?5?a?$LE?$LM?5?b?$IB?$LA@ 000000001016fc34     freetype:autofit.obj
 0002:00035c40       ??_C@_07BADEIFOL@?j?$JL?$IB?5?j?$JL?$KP@ 000000001016fc40     freetype:autofit.obj
 0002:00035c48       ??_C@_09JDCNEMGL@?p?$JO?$KE?$IM?5?p?$JO?$KE?$KO@ 000000001016fc48     freetype:autofit.obj
 0002:00035c54       ??_C@_07BEADBFJO@?$OA?$LD?$KG?5?$OA?$LC?$KM@ 000000001016fc54     freetype:autofit.obj
 0002:00035c5c       ??_C@_09JIAMNMOE@?p?$JA?$JA?$IE?5?p?$JA?$JA?$KM@ 000000001016fc5c     freetype:autofit.obj
 0002:00035c68       ??_C@_07NKKHBBJL@?j?$KK?$JC?5?j?$KK?$KL@ 000000001016fc68     freetype:autofit.obj
 0002:00035c70       ??_C@_07KCDGDMBN@?a?$KH?$KB?5?a?$KH?$KK@ 000000001016fc70     freetype:autofit.obj
 0002:00035c78       ??_C@_07MLCFGLFO@?$OA?$KH?$KG?5?$OA?$KH?$KK@ 000000001016fc78     freetype:autofit.obj
 0002:00035c80       ??_C@_09CBEPPHOC@?p?$JA?$JD?$IC?5?p?$JA?$JD?$KK@ 000000001016fc80     freetype:autofit.obj
 0002:00035c8c       ??_C@_03CIFBMJFH@?$OA?$LG?$KH@ 000000001016fc8c     freetype:autofit.obj
 0002:00035c90       ??_C@_07GCCOGDCF@?$OA?$LB?$KG?5?$OA?$LB?$KH@ 000000001016fc90     freetype:autofit.obj
 0002:00035c98       ??_C@_03CCLNGAOJ@?$OA?$KP?$KG@ 000000001016fc98     freetype:autofit.obj
 0002:00035c9c       ??_C@_07CMCIOKJD@?$OA?$KK?$JP?5?$OA?$KL?$KG@ 000000001016fc9c     freetype:autofit.obj
 0002:00035ca4       ??_C@_0M@HILMFBKG@?$OA?$KI?$KA?5?$OA?$KI?$LA?5?$OA?$KJ?$KG@ 000000001016fca4     freetype:autofit.obj
 0002:00035cb0       ??_C@_09BIEFHNHC@?p?$JA?$KA?$IF?5?p?$JA?$KA?$KD@ 000000001016fcb0     freetype:autofit.obj
 0002:00035cbc       ??_C@_03OIDAEFJK@?a?$JP?$KA@ 000000001016fcbc     freetype:autofit.obj
 0002:00035cc0       ??_C@_09OCIHFBNC@?p?$JA?$JC?$IG?5?p?$JA?$JC?$KA@ 000000001016fcc0     freetype:autofit.obj
 0002:00035ccc       ??_C@_05DKJCDMPM@?N?$LP?5?N?$JP@ 000000001016fccc     freetype:autofit.obj
 0002:00035cd4       ??_C@_07EGBKDBCM@?b?$LC?$JO?5?b?$LC?$JP@ 000000001016fcd4     freetype:autofit.obj
 0002:00035cdc       ??_C@_0M@ODJHCGEP@?$OA?$KE?$KA?5?$OA?$KE?$LF?5?$OA?$KE?$JP@ 000000001016fcdc     freetype:autofit.obj
 0002:00035ce8       ??_C@_05DBINMJJM@?P?$LO?5?P?$JO@ 000000001016fce8     freetype:autofit.obj
 0002:00035cf0       ??_C@_02EMJHPBAP@?W?$JN@   000000001016fcf0     freetype:autofit.obj
 0002:00035cf4       ??_C@_03OGFBMBEI@?a?$LB?$JL@ 000000001016fcf4     freetype:autofit.obj
 0002:00035cf8       ??_C@_0P@LMDGGGAE@?p?$JB?$IE?$KE?5?p?$JB?$IE?$IJ?5?p?$JB?$IE?$JL@ 000000001016fcf8     freetype:autofit.obj
 0002:00035d08       ??_C@_04JHGFHPIP@?p?$JA?$KM?$JK@ 000000001016fd08     freetype:autofit.obj
 0002:00035d10       ??_C@_07COJDMBCC@?a?$JB?$IM?5?a?$JD?$JK@ 000000001016fd10     freetype:autofit.obj
 0002:00035d18       ??_C@_0M@CHIIFMEI@?a?$IC?$LG?5?a?$IC?$LB?5?b?$LE?$JJ@ 000000001016fd18     freetype:autofit.obj
 0002:00035d24       ??_C@_04DHPHFLNG@?p?$JA?$LA?$JH@ 000000001016fd24     freetype:autofit.obj
 0002:00035d2c       ??_C@_07PNKDJIHG@?g?$JE?$LA?5?e?$JL?$JH@ 000000001016fd2c     freetype:autofit.obj
 0002:00035d34       ??_C@_0M@IIEFPKGE@?a?$IO?$KE?5?a?$IP?$IF?5?j?$KO?$JF@ 000000001016fd34     freetype:autofit.obj
 0002:00035d40       ??_C@_03HEHFNKLF@?b?$LF?$JE@ 000000001016fd40     freetype:autofit.obj
 0002:00035d44       ??_C@_03LAIOPKDA@?$OA?$LL?$JA@ 000000001016fd44     freetype:autofit.obj
 0002:00035d48       ??_C@_0M@PFDFPHNJ@?$OA?$LI?$LC?5?$OA?$LJ?$IF?5?$OA?$LJ?$JA@ 000000001016fd48     freetype:autofit.obj
 0002:00035d54       ??_C@_07CLHNDJJO@?j?$KC?$JN?5?j?$KD?$JA@ 000000001016fd54     freetype:autofit.obj
 0002:00035d5c       ??_C@_03CMFJHIMF@?a?$IL?$JA@ 000000001016fd5c     freetype:autofit.obj
 0002:00035d60       ??_C@_07MJBNFAPA@?a?$JN?$IL?5?a?$JN?$IP@ 000000001016fd60     freetype:autofit.obj
 0002:00035d68       ??_C@_05EBMEKBIG@?U?$LN?5?U?$IN@ 000000001016fd68     freetype:autofit.obj
 0002:00035d70       ??_C@_09LEACCEAE@?p?$JA?$IK?$KL?5?p?$JA?$IL?$IJ@ 000000001016fd70     freetype:autofit.obj
 0002:00035d7c       ??_C@_07JCJJEEE@?b?$LA?$JF?5?b?$LB?$IF@ 000000001016fd7c     freetype:autofit.obj
 0002:00035d84       ??_C@_0P@OLAOOJHK@?p?$JA?$IM?$LE?5?p?$JA?$IM?$LO?5?p?$JA?$IN?$ID@ 000000001016fd84     freetype:autofit.obj
 0002:00035d94       ??_C@_0M@JDJALDKB@?a?$IA?$JN?5?a?$IA?$IE?5?a?$IA?$IC@ 000000001016fd94     freetype:autofit.obj
 0002:00035da0       ??_C@_05HGAHDEFN@?$NP?$IL?5?$NP?$IA@ 000000001016fda0     freetype:autofit.obj
 0002:00035da8       ??_C@_08NGKNFCCA@?Y?$IE?5?X?$KN?5?Y?$IA@ 000000001016fda8     freetype:autofit.obj
 0002:00035db4       ??_C@_07EPGAKOL@?j?$KE?$IN?5?j?$KE?$IA@ 000000001016fdb4     freetype:autofit.obj
 0002:00035dbc       ??_C@_07HAIKLPAL@?b?$IC?$JC?5?b?$IC?$IA@ 000000001016fdbc     freetype:autofit.obj
 0002:00035dc4       ??_C@_08IPFLJFPM@BlueFuzz@ 000000001016fdc4     freetype:type1.obj
 0002:00035dd0       ??_C@_08EPBENDNC@Registry@ 000000001016fdd0     freetype:type1cid.obj
 0002:00035ddc       ??_C@_0O@CJLBGMNG@FontDirectory@ 000000001016fddc     freetype:type1.obj
 0002:00035dec       ??_C@_0BA@MOKMMFOD@need?5dictionary@ 000000001016fdec     freetype:ftgzip.obj
 0002:00035dfc       ??_C@_0BC@HBJENNOG@lenBuildCharArray@ 000000001016fdfc     freetype:type1cid.obj
 0002:00035e10       ??_C@_0P@KEOGGALI@BuildCharArray@ 000000001016fe10     freetype:type1.obj
 0002:00035e20       ??_C@_07PEKDNLEP@FDArray@  000000001016fe20     freetype:type1cid.obj
 0002:00035e28       ??_C@_05MNCLAAKB@psaux@    000000001016fe28     freetype:type1.obj
 0002:00035e30       ??_C@_08EBMMLPNI@FontBBox@ 000000001016fe30     freetype:type1.obj
 0002:00035e3c       ??_C@_0L@LNCCOCBB@FontMatrix@ 000000001016fe3c     freetype:type1.obj
 0002:00035e48       ??_C@_0M@IHBDFEAO@smooth?9lcdv@ 000000001016fe48     freetype:smooth.obj
 0002:00035e54       ??_C@_03KMONJGDG@put@      000000001016fe54     freetype:type1.obj
 0002:00035e58       ??_C@_0P@PHBNIPOP@default?9script@ 000000001016fe58     freetype:autofit.obj
 0002:00035e68       ??_C@_0BA@OKOILHEH@fallback?9script@ 000000001016fe68     freetype:autofit.obj
 0002:00035e78       ??_C@_09NKAONILE@SubrCount@ 000000001016fe78     freetype:type1cid.obj
 0002:00035e84       ??_C@_08LPCKMOBH@CIDCount@ 000000001016fe84     freetype:type1cid.obj
 0002:00035e90       ??_C@_0L@PAHDJIHN@IsBaseFont@ 000000001016fe90     freetype:psaux.obj
 0002:00035e9c       ??_C@_0BC@IJJLOJBO@?$CF?$CBPS?9TrueTypeFont@ 000000001016fe9c     freetype:type42.obj
 0002:00035eb0       ??_C@_0P@EMKCEFJO@?$CF?$CBPS?9AdobeFont@ 000000001016feb0     freetype:type1.obj
 0002:00035ec0       ??_C@_09OIFAOJEJ@IsCIDFont@ 000000001016fec0     freetype:psaux.obj
 0002:00035ecc       ??_C@_0CA@JGHPJJJF@?$CF?$CBPS?9Adobe?93?40?5Resource?9CIDFont@ 000000001016fecc     freetype:type1cid.obj
 0002:00035eec       ??_C@_04JAPIGAPK@sfnt@     000000001016feec     freetype:truetype.obj
 0002:00035ef4       ??_C@_0L@EJNILPMC@Supplement@ 000000001016fef4     freetype:type1cid.obj
 0002:00035f00       ??_C@_05BCGFHEPH@Slant@    000000001016ff00     freetype:truetype.obj
 0002:00035f08       ??_C@_0BC@OOHNGIJD@increase?9x?9height@ 000000001016ff08     freetype:autofit.obj
 0002:00035f1c       ??_C@_06ODJMJFLN@Weight@   000000001016ff1c     freetype:truetype.obj
 0002:00035f24       ??_C@_09JOCJHGEG@CapHeight@ 000000001016ff24     freetype:psaux.obj
 0002:00035f30       ??_C@_07MIHJBPO@XHeight@   000000001016ff30     freetype:psaux.obj
 0002:00035f38       ??_C@_09GDCMDLCO@BlueShift@ 000000001016ff38     freetype:type1.obj
 0002:00035f44       ??_C@_0O@DKIHOHFK@SubrMapOffset@ 000000001016ff44     freetype:type1cid.obj
 0002:00035f54       ??_C@_0N@LBMCPKAC@CIDMapOffset@ 000000001016ff54     freetype:type1cid.obj
 0002:00035f64       ??_C@_0N@LHPDLMAH@CharacterSet@ 000000001016ff64     freetype:psaux.obj
 0002:00035f74       ??_C@_0L@POCJHJKN@glyph?9dict@ 000000001016ff74     freetype:ftbase.obj
 0002:00035f80       ??_C@_0BC@JBBEDJNJ@?$CFADOBeginFontDict@ 000000001016ff80     freetype:type1cid.obj
 0002:00035f94       ??_C@_0M@NJKHAGNP@font?9format@ 000000001016ff94     freetype:ftbase.obj
 0002:00035fa0       ??_C@_0BK@BMMPFBBH@invalid?5bit?5length?5repeat@ 000000001016ffa0     freetype:ftgzip.obj
 0002:00035fbc       ??_C@_08NAMFKPDH@winfonts@ 000000001016ffbc     freetype:winfnt.obj
 0002:00035fc8       ??_C@_06EMLBPOPP@?1sfnts@  000000001016ffc8     freetype:type1cid.obj
 0002:00035fd0       ??_C@_05FJOKMJFH@sfnts@    000000001016ffd0     freetype:type42.obj
 0002:00035fd8       ??_C@_0M@PGHPLBFB@MetricsSets@ 000000001016ffd8     freetype:psaux.obj
 0002:00035fe4       ??_C@_0BD@KBICJDLM@UnderlineThickness@ 000000001016ffe4     freetype:type1.obj
 0002:00035ff8       ??_C@_0P@OJCDJCKN@StartKernPairs@ 000000001016fff8     freetype:psaux.obj
 0002:00036008       ??_C@_0N@IJIACAAI@EndKernPairs@ 0000000010170008     freetype:psaux.obj
 0002:00036018       ??_C@_0O@DHADKGAK@multi?9masters@ 0000000010170018     freetype:truetype.obj
 0002:00036028       ??_C@_0BF@GIDENNON@darkening?9parameters@ 0000000010170028     freetype:ftbase.obj
 0002:00036040       ??_C@_0L@EMODJLOD@Characters@ 0000000010170040     freetype:psaux.obj
 0002:0003604c       ??_C@_05DHFNOCDJ@Subrs@    000000001017004c     freetype:type1.obj
 0002:00036054       ??_C@_08OHCKCLF@tt?9cmaps@ 0000000010170054     freetype:ftbase.obj
 0002:00036060       ??_C@_0BB@JIMLNENF@postscript?9cmaps@ 0000000010170060     freetype:type1.obj
 0002:00036074       ??_C@_0BF@BEKHBPMN@BlendDesignPositions@ 0000000010170074     freetype:type1.obj
 0002:0003608c       ??_C@_0BD@EFEGEJAN@metrics?9variations@ 000000001017008c     freetype:truetype.obj
 0002:000360a0       ??_C@_0CE@GMIGFPBB@too?5many?5length?5or?5distance?5sym@ 00000000101700a0     freetype:ftgzip.obj
 0002:000360c4       ??_C@_09JMBADFPL@StartAxis@ 00000000101700c4     freetype:psaux.obj
 0002:000360d0       ??_C@_07DLEALFPL@EndAxis@  00000000101700d0     freetype:psaux.obj
 0002:000360d8       ??_C@_0BN@LGAADGOK@invalid?5stored?5block?5lengths@ 00000000101700d8     freetype:ftgzip.obj
 0002:000360f8       ??_C@_0CB@KPKKKLFO@empty?5distance?5tree?5with?5length@ 00000000101700f8     freetype:ftgzip.obj
 0002:0003611c       ??_C@_0M@EKIFGBLL@CharStrings@ 000000001017011c     freetype:type1.obj
 0002:00036128       ??_C@_0L@DKDIMLOI@BlueValues@ 0000000010170128     freetype:type1.obj
 0002:00036134       ??_C@_0M@OIPOLIDA@FamilyBlues@ 0000000010170134     freetype:type1.obj
 0002:00036140       ??_C@_0BB@FMLCJJDP@FamilyOtherBlues@ 0000000010170140     freetype:type1.obj
 0002:00036154       ??_C@_0L@CCJAIIMC@OtherBlues@ 0000000010170154     freetype:type1.obj
 0002:00036160       ??_C@_07OJDBLIDF@SDBytes@  0000000010170160     freetype:type1cid.obj
 0002:00036168       ??_C@_07BBMAIHOE@GDBytes@  0000000010170168     freetype:type1cid.obj
 0002:00036170       ??_C@_07NNGKIHHK@FDBytes@  0000000010170170     freetype:type1cid.obj
 0002:00036178       ??_C@_0BA@DGMAPPPC@StartComposites@ 0000000010170178     freetype:psaux.obj
 0002:00036188       ??_C@_0O@JABMALCH@EndComposites@ 0000000010170188     freetype:psaux.obj
 0002:00036198       ??_C@_0P@LEAACMFJ@BlendAxisTypes@ 0000000010170198     freetype:type1.obj
 0002:000361a8       ??_C@_07POODEHEH@psnames@  00000000101701a8     freetype:psmodule.obj
 0002:000361b0       ??_C@_0L@CIHKIEFA@properties@ 00000000101701b0     freetype:ftbase.obj
 0002:000361bc       ??_C@_0M@BAGPBJNL@pfr?9metrics@ 00000000101701bc     freetype:pfr.obj
 0002:000361c8       ??_C@_0BB@KAEKNABH@StartFontMetrics@ 00000000101701c8     freetype:psaux.obj
 0002:000361dc       ??_C@_0P@FGFFCKLI@EndFontMetrics@ 00000000101701dc     freetype:psaux.obj
 0002:000361ec       ??_C@_0BB@JDMDJAID@StartCharMetrics@ 00000000101701ec     freetype:psaux.obj
 0002:00036200       ??_C@_0P@GFNMGKCM@EndCharMetrics@ 0000000010170200     freetype:psaux.obj
 0002:00036210       ??_C@_0N@JPPBHHHF@WeightVector@ 0000000010170210     freetype:type1.obj
 0002:00036220       ??_C@_0N@PGGOPDKP@DesignVector@ 0000000010170220     freetype:type1.obj
 0002:00036230       ??_C@_07HFOFDFIM@VVector@  0000000010170230     freetype:psaux.obj
 0002:00036238       ??_C@_0BA@PKGIFANC@ExpansionFactor@ 0000000010170238     freetype:type1.obj
 0002:00036248       ??_C@_03OENHCMJJ@pfr@      0000000010170248     freetype:pfr.obj
 0002:0003624c       ??_C@_0L@MNEBCNMP@autofitter@ 000000001017024c     freetype:autofit.obj
 0002:00036258       ??_C@_08MNGCAOLP@pshinter@ 0000000010170258     freetype:type1.obj
 0002:00036264       ??_C@_09JMDLBBJN@Descender@ 0000000010170264     freetype:psaux.obj
 0002:00036270       ??_C@_08NBPEBJDA@Ascender@ 0000000010170270     freetype:psaux.obj
 0002:0003627c       ??_C@_07FFHPBFOK@Regular@  000000001017027c     freetype:type1.obj
 0002:00036284       ??_C@_07BNJNBMEL@EscChar@  0000000010170284     freetype:psaux.obj
 0002:0003628c       ??_C@_0O@PJDGHDCK@LanguageGroup@ 000000001017028c     freetype:type1.obj
 0002:0003629c       ??_C@_03BHPKJDPK@dup@      000000001017029c     freetype:type1.obj
 0002:000362a0       ??_C@_0BE@CELKBFDM@glyph?9to?9script?9map@ 00000000101702a0     freetype:autofit.obj
 0002:000362b4       ??_C@_0P@FPDIEJKK@BlendDesignMap@ 00000000101702b4     freetype:type1.obj
 0002:000362c4       ??_C@_0BA@EAOIOGJA@postscript?9info@ 00000000101702c4     freetype:type1.obj
 0002:000362d4       ??_C@_01FMEDJKGI@o@        00000000101702d4     freetype:autofit.obj
 0002:000362d8       ??_C@_05MDIJLHEA@known@    00000000101702d8     freetype:type42.obj
 0002:000362e0       ??_C@_0P@DELCCDBH@StartTrackKern@ 00000000101702e0     freetype:psaux.obj
 0002:000362f0       ??_C@_0N@FEBBJBLC@EndTrackKern@ 00000000101702f0     freetype:psaux.obj
 0002:00036300       ??_C@_09DJCDMHFC@TrackKern@ 0000000010170300     freetype:psaux.obj
 0002:0003630c       ??_C@_0BC@CCIMILPE@UnderlinePosition@ 000000001017030c     freetype:type1.obj
 0002:00036320       ??_C@_0P@DNGHFPAA@StartDirection@ 0000000010170320     freetype:psaux.obj
 0002:00036330       ??_C@_0N@FNMEONKF@EndDirection@ 0000000010170330     freetype:psaux.obj
 0002:00036340       ??_C@_0P@GHFPNOJB@bad?5allocation@ 0000000010170340     msvcrt:throw_bad_alloc.obj
 0002:00036350       ??_C@_0BE@OJJAFABD@interpreter?9version@ 0000000010170350     freetype:truetype.obj
 0002:0003635c       ??_C@_07CPCPJPKL@version@  000000001017035c     freetype:type1.obj
 0002:00036364       ??_C@_0P@FDOGBFAP@CIDFontVersion@ 0000000010170364     freetype:type1cid.obj
 0002:00036374       ??_C@_07NGFJPNPN@Version@  0000000010170374     freetype:psaux.obj
 0002:0003637c       ??_C@_09POOBGNPO@AxisLabel@ 000000001017037c     freetype:psaux.obj
 0002:00036388       ??_C@_0BH@LIBMMIGA@incorrect?5header?5check@ 0000000010170388     freetype:ftgzip.obj
 0002:000363a0       ??_C@_0BF@MEIGEHBE@incorrect?5data?5check@ 00000000101703a0     freetype:ftgzip.obj
 0002:000363b8       ??_C@_05BPGNDIAE@Black@    00000000101703b8     freetype:type1.obj
 0002:000363c0       ??_C@_06INICNAFJ@smooth@   00000000101703c0     freetype:smooth.obj
 0002:000363c8       ??_C@_0BF@KINCDENJ@bad?5array?5new?5length@ 00000000101703c8     msvcrt:throw_bad_alloc.obj
 0002:000363e0       ??_C@_09CGMEAFLF@CharWidth@ 00000000101703e0     freetype:psaux.obj
 0002:000363ec       ??_C@_0M@GLGMDIGG@StrokeWidth@ 00000000101703ec     freetype:type1.obj
 0002:000363f8       ??_C@_05IBAMDCFI@Width@    00000000101703f8     freetype:truetype.obj
 0002:00036400       ??_C@_0N@OPLNPOL@isFixedPitch@ 0000000010170400     freetype:type1.obj
 0002:00036410       ??_C@_0N@LNIFJEBO@IsFixedPitch@ 0000000010170410     freetype:psaux.obj
 0002:00036420       ??_C@_08HMKBFHBJ@Ordering@ 0000000010170420     freetype:type1cid.obj
 0002:0003642c       ??_C@_07IAGKBAII@warping@  000000001017042c     freetype:autofit.obj
 0002:00036434       ??_C@_07IAOBDJBM@kerning@  0000000010170434     freetype:ftbase.obj
 0002:0003643c       ??_C@_0BC@GFOLLGHN@no?9stem?9darkening@ 000000001017043c     freetype:ftbase.obj
 0002:00036450       ??_C@_0P@LHOFAKJ@ExpertEncoding@ 0000000010170450     freetype:type1.obj
 0002:00036460       ??_C@_0BB@MLEHKAJM@StandardEncoding@ 0000000010170460     freetype:type1.obj
 0002:00036474       ??_C@_0BC@OHHLKLPP@ISOLatin1Encoding@ 0000000010170474     freetype:type1.obj
 0002:00036488       ??_C@_08EJAHIGCJ@Encoding@ 0000000010170488     freetype:type1.obj
 0002:00036494       ??_C@_07CDLHCBDE@tt?9glyf@ 0000000010170494     freetype:truetype.obj
 0002:0003649c       ??_C@_03IINFADLN@cff@      000000001017049c     freetype:ftbase.obj
 0002:000364a0       ??_C@_07JBKHDJHE@?4notdef@ 00000000101704a0     freetype:truetype.obj
 0002:000364a4       ??_C@_03BHEEIFFN@def@      00000000101704a4     freetype:cff.obj
 0002:000364a8       ??_C@_03DDONLALG@bdf@      00000000101704a8     freetype:pcf.obj
 0002:000364ac       ??_C@_03MMLCDJCH@pcf@      00000000101704ac     freetype:pcf.obj
 0002:000364b0       ??_C@_0BE@EMOGCLGO@invalid?5window?5size@ 00000000101704b0     freetype:ftgzip.obj
 0002:000364c4       ??_C@_0M@EDHPABCB@OpticalSize@ 00000000101704c4     freetype:truetype.obj
 0002:000364d0       ??_C@_04LOAJBDKD@true@     00000000101704d0     freetype:psaux.obj
 0002:000364d8       ??_C@_07EGOIFKG@Oblique@   00000000101704d8     freetype:pcf.obj
 0002:000364e0       ??_C@_07CFINJGKH@Private@  00000000101704e0     freetype:type1.obj
 0002:000364e8       ??_C@_07CNNFHHEA@UIDBase@  00000000101704e8     freetype:type1cid.obj
 0002:000364f0       ??_C@_0L@NKGPCONN@MinFeature@ 00000000101704f0     freetype:type1.obj
 0002:000364fc       ??_C@_08OKLLNAKL@truetype@ 00000000101704fc     freetype:ftbase.obj
 0002:00036508       ??_C@_0BD@PJCBIDD@invalid?5block?5type@ 0000000010170508     freetype:ftgzip.obj
 0002:0003651c       ??_C@_0M@IBCFBNHK@CIDFontType@ 000000001017051c     freetype:type1cid.obj
 0002:00036528       ??_C@_0L@LLIKMEDC@?$CF?$CBFontType@ 0000000010170528     freetype:type1.obj
 0002:00036534       ??_C@_08GBFACKAL@FontType@ 0000000010170534     freetype:type1.obj
 0002:00036540       ??_C@_09PNDIDGHG@PaintType@ 0000000010170540     freetype:type1.obj
 0002:0003654c       ??_C@_08KLONHBMG@AxisType@ 000000001017054c     freetype:psaux.obj
 0002:00036558       ??_C@_08KJILHNAM@TrueType@ 0000000010170558     freetype:truetype.obj
 0002:00036564       ??_C@_07IAJFBLNJ@?1FSType@ 0000000010170564     freetype:cff.obj
 0002:0003656c       ??_C@_06FIINGLDE@FSType@   000000001017056c     freetype:type1.obj
 0002:00036574       ??_C@_0P@DGAAAJJA@hinting?9engine@ 0000000010170574     freetype:ftbase.obj
 0002:00036584       ??_C@_0BA@DHLLBDBB@truetype?9engine@ 0000000010170584     freetype:ftbase.obj
 0002:00036594       ??_C@_0O@NDBFHPJC@MappingScheme@ 0000000010170594     freetype:psaux.obj
 0002:000365a4       ??_C@_0P@JNPLONMI@EncodingScheme@ 00000000101705a4     freetype:psaux.obj
 0002:000365b4       ??_C@_0BF@GDPJODJF@postscript?9font?9name@ 00000000101705b4     freetype:ftbase.obj
 0002:000365cc       ??_C@_0L@KKMPOENF@FamilyName@ 00000000101705cc     freetype:type1.obj
 0002:000365d8       ??_C@_0M@CKCGNNAK@CIDFontName@ 00000000101705d8     freetype:type1cid.obj
 0002:000365e4       ??_C@_08MKFDOKHL@FontName@ 00000000101705e4     freetype:type1.obj
 0002:000365f0       ??_C@_08FPDCFGEH@FullName@ 00000000101705f0     freetype:type1.obj
 0002:000365fc       ??_C@_09BJJLCLMA@closefile@ 00000000101705fc     freetype:type1.obj
 0002:00036608       ??_C@_0M@ILCDBHGP@ItalicAngle@ 0000000010170608     freetype:type1.obj
 0002:00036614       ??_C@_0L@MBBJBANC@sfnt?9table@ 0000000010170614     freetype:ftbase.obj
 0002:00036620       ??_C@_09IPAGIEBG@BlueScale@ 0000000010170620     freetype:type1.obj
 0002:0003662c       ??_C@_0CE@LOHAHEGK@incomplete?5dynamic?5bit?5lengths?5@ 000000001017062c     freetype:ftgzip.obj
 0002:00036650       ??_C@_0CI@CGMOPDPD@oversubscribed?5dynamic?5bit?5leng@ 0000000010170650     freetype:ftgzip.obj
 0002:00036678       ??_C@_0BP@NEEEJJNA@incomplete?5literal?1length?5tree@ 0000000010170678     freetype:ftgzip.obj
 0002:00036698       ??_C@_0CD@GJIDGCKE@oversubscribed?5literal?1length?5t@ 0000000010170698     freetype:ftgzip.obj
 0002:000366bc       ??_C@_0BJ@CBCPDPJF@incomplete?5distance?5tree@ 00000000101706bc     freetype:ftgzip.obj
 0002:000366d8       ??_C@_0BN@KBLCDIAI@oversubscribed?5distance?5tree@ 00000000101706d8     freetype:ftgzip.obj
 0002:000366f8       ??_C@_0BM@FFFLPBBC@invalid?5literal?1length?5code@ 00000000101706f8     freetype:ftgzip.obj
 0002:00036714       ??_C@_0BG@LBKINIKP@invalid?5distance?5code@ 0000000010170714     freetype:ftgzip.obj
 0002:0003672c       ??_C@_06JHGCIHDH@Notice@   000000001017072c     freetype:type1.obj
 0002:00036734       ??_C@_05NBLLDENH@adobe@    0000000010170734     freetype:ftbase.obj
 0002:0003673c       ??_C@_08NLHBPEGP@password@ 000000001017073c     freetype:type1.obj
 0002:00036748       ??_C@_0BL@IHKGDAEE@unknown?5compression?5method@ 0000000010170748     freetype:ftgzip.obj
 0002:00036764       ??_C@_0BD@BGHMBBEO@ForceBoldThreshold@ 0000000010170764     freetype:type1cid.obj
 0002:00036778       ??_C@_09BDDIAPM@ForceBold@ 0000000010170778     freetype:type1.obj
 0002:00036784       ??_C@_04DIPHHIHJ@Bold@     0000000010170784     freetype:type1.obj
 0002:0003678c       ??_C@_05CNMLIGFM@t1cid@    000000001017078c     freetype:type1cid.obj
 0002:00036794       ??_C@_03LBLPCGAC@cid@      0000000010170794     freetype:ftbase.obj
 0002:00036798       ??_C@_03OACELNE@?$CFhd@    0000000010170798     freetype:bdf.obj
 0002:0003679c       ??_C@_0M@LGDPDIPE@random?9seed@ 000000001017079c     freetype:ftbase.obj
 0002:000367a8       ??_C@_0L@KCJBAIJI@smooth?9lcd@ 00000000101707a8     freetype:smooth.obj
 0002:000367b4       ??_C@_08EOMLOCJG@cff?9load@ 00000000101707b4     freetype:cff.obj
 0002:000367c0       ??_C@_0BC@OBHLCHMP@?1?4?4namedfork?1rsrc@ 00000000101707c0     freetype:ftbase.obj
 0002:000367cc       ??_C@_05FLPKNBDI@?1rsrc@   00000000101707cc     freetype:ftbase.obj
 0002:000367d4       ??_C@_0M@DFCIIFPB@Bold?5Italic@ 00000000101707d4     freetype:winfnt.obj
 0002:000367e0       ??_C@_06PPMHIBHB@Italic@   00000000101707e0     freetype:winfnt.obj
 0002:000367e8       ??_C@_05OJJBIBFE@eexec@    00000000101707e8     freetype:type1.obj
 0002:000367f0       ??_C@_02JDPG@rb@           00000000101707f0     freetype:ftsystem.obj
 0002:000367f4       ??_C@_09BFOLOCGO@StartData@ 00000000101707f4     freetype:type1cid.obj
 0002:00036800       ??_C@_0O@GJEKPIHD@StartKernData@ 0000000010170800     freetype:psaux.obj
 0002:00036810       ??_C@_0M@HKHGIIOM@EndKernData@ 0000000010170810     freetype:psaux.obj
 0002:0003681c       ??_C@_02PEOAMJM@?4_@       000000001017081c     freetype:ftbase.obj
 0002:00036820       ??_C@_0BC@FFDANOJJ@RAW_SUPERSCRIPT_Y@ 0000000010170820     freetype:bdf.obj
 0002:00036824       ??_C@_0O@EHDLJGOB@SUPERSCRIPT_Y@ 0000000010170824     freetype:bdf.obj
 0002:00036834       ??_C@_0BA@JLPHJHAP@RAW_SUBSCRIPT_Y@ 0000000010170834     freetype:bdf.obj
 0002:00036838       ??_C@_0M@FMFMNELO@SUBSCRIPT_Y@ 0000000010170838     freetype:bdf.obj
 0002:00036844       ??_C@_0N@MICMOIBI@RESOLUTION_Y@ 0000000010170844     freetype:pcf.obj
 0002:00036854       ??_C@_02CDEPIMF@WY@        0000000010170854     freetype:psaux.obj
 0002:00036858       ??_C@_0BB@OHIDJKBJ@CHARSET_REGISTRY@ 0000000010170858     freetype:pcf.obj
 0002:0003686c       ??_C@_0BC@LNICJLFI@FONTNAME_REGISTRY@ 000000001017086c     freetype:bdf.obj
 0002:00036880       ??_C@_07GMNLECKJ@FOUNDRY@  0000000010170880     freetype:bdf.obj
 0002:00036888       ??_C@_03JFGLDHHC@KPY@      0000000010170888     freetype:psaux.obj
 0002:0003688c       ??_C@_03MGLBHOEC@W1Y@      000000001017088c     freetype:psaux.obj
 0002:00036890       ??_C@_03MHHDBEHF@W0Y@      0000000010170890     freetype:psaux.obj
 0002:00036894       ??_C@_0BC@EMCLOPNI@RAW_SUPERSCRIPT_X@ 0000000010170894     freetype:bdf.obj
 0002:00036898       ??_C@_0O@FOCAKHKA@SUPERSCRIPT_X@ 0000000010170898     freetype:bdf.obj
 0002:000368a8       ??_C@_0BA@ICOMKGEO@RAW_SUBSCRIPT_X@ 00000000101708a8     freetype:bdf.obj
 0002:000368ac       ??_C@_0M@EFEHOFPP@SUBSCRIPT_X@ 00000000101708ac     freetype:bdf.obj
 0002:000368b8       ??_C@_0N@NBDHNJFJ@RESOLUTION_X@ 00000000101708b8     freetype:pcf.obj
 0002:000368c8       ??_C@_02BLCPMJIE@WX@       00000000101708c8     freetype:psaux.obj
 0002:000368cc       ??_C@_03IMHAAGDD@KPX@      00000000101708cc     freetype:psaux.obj
 0002:000368d0       ??_C@_0BA@PIDAKDPC@FONTBOUNDINGBOX@ 00000000101708d0     freetype:bdf.obj
 0002:000368e0       ??_C@_03OONKDOKH@BBX@      00000000101708e0     freetype:bdf.obj
 0002:000368e4       ??_C@_03NPKKEPAD@W1X@      00000000101708e4     freetype:psaux.obj
 0002:000368e8       ??_C@_03NOGICFDE@W0X@      00000000101708e8     freetype:psaux.obj
 0002:000368ec       ??_C@_05OBPKJLMP@StdVW@    00000000101708ec     freetype:type1.obj
 0002:000368f4       ??_C@_05PHECBFLF@StdHW@    00000000101708f4     freetype:type1.obj
 0002:000368f8       ??_C@_01ELNMCGJD@W@        00000000101708f8     freetype:psaux.obj
 0002:000368fc       ??_C@_09GOBAKHA@StemSnapV@ 00000000101708fc     freetype:type1.obj
 0002:00036908       ??_C@_08CHFNODLO@IsFixedV@ 0000000010170908     freetype:psaux.obj
 0002:00036914       ??_C@_02IEGOIODN@VV@       0000000010170914     freetype:psaux.obj
 0002:00036918       ??_C@_03LLHODHFI@IRV@      0000000010170918     freetype:pcf.obj
 0002:0003691c       ??_C@_05CIIKKFON@lenIV@    000000001017091c     freetype:type1.obj
 0002:00036924       ??_C@_03DOACNACD@NDV@      0000000010170924     freetype:type1.obj
 0002:00036928       ??_C@_03MMGIAIPO@CDV@      0000000010170928     freetype:type1.obj
 0002:0003692c       ??_C@_09BHJNBHKM@STARTFONT@ 000000001017092c     freetype:bdf.obj
 0002:00036938       ??_C@_07MLEKHHFJ@ENDFONT@  0000000010170938     freetype:bdf.obj
 0002:00036940       ??_C@_04IJMKNFPK@FONT@     0000000010170940     freetype:bdf.obj
 0002:00036948       ??_C@_0M@FPCOPFGH@Windows?5FNT@ 0000000010170948     freetype:winfnt.obj
 0002:00036954       ??_C@_07JEDAPFNH@COMMENT@  0000000010170954     freetype:bdf.obj
 0002:0003695c       ??_C@_0M@JDDLHGCG@RAW_DESCENT@ 000000001017095c     freetype:bdf.obj
 0002:00036968       ??_C@_0BG@DCPBCGDJ@RAW_STRIKEOUT_DESCENT@ 0000000010170968     freetype:bdf.obj
 0002:0003696c       ??_C@_0BC@PCLONKLB@STRIKEOUT_DESCENT@ 000000001017096c     freetype:bdf.obj
 0002:00036980       ??_C@_0N@BAIKBLGK@FONT_DESCENT@ 0000000010170980     freetype:bdf.obj
 0002:00036990       ??_C@_0L@CAMLDNCF@RAW_ASCENT@ 0000000010170990     freetype:bdf.obj
 0002:0003699c       ??_C@_0BF@DLAIFMIE@RAW_STRIKEOUT_ASCENT@ 000000001017099c     freetype:bdf.obj
 0002:000369a0       ??_C@_0BB@MOJIHJPL@STRIKEOUT_ASCENT@ 00000000101709a0     freetype:bdf.obj
 0002:000369b4       ??_C@_0M@ECCDLGDC@FONT_ASCENT@ 00000000101709b4     freetype:bdf.obj
 0002:000369c0       ??_C@_05NOFPJGIP@SLANT@    00000000101709c0     freetype:pcf.obj
 0002:000369c8       ??_C@_09DJIAAPDG@COPYRIGHT@ 00000000101709c8     freetype:bdf.obj
 0002:000369d4       ??_C@_0BA@NKHOPHOP@RELATIVE_WEIGHT@ 00000000101709d4     freetype:bdf.obj
 0002:000369e4       ??_C@_06CIAKHCPD@WEIGHT@   00000000101709e4     freetype:bdf.obj
 0002:000369ec       ??_C@_0N@LFICGJOL@RAW_X_HEIGHT@ 00000000101709ec     freetype:bdf.obj
 0002:000369f0       ??_C@_08IHHFFHAA@X_HEIGHT@ 00000000101709f0     freetype:bdf.obj
 0002:000369fc       ??_C@_0P@PDBKEGFB@RAW_CAP_HEIGHT@ 00000000101709fc     freetype:bdf.obj
 0002:00036a00       ??_C@_0L@IPPBEDCK@CAP_HEIGHT@ 0000000010170a00     freetype:bdf.obj
 0002:00036a0c       ??_C@_0BG@NJJHMBCE@_MULE_BASELINE_OFFSET@ 0000000010170a0c     freetype:bdf.obj
 0002:00036a24       ??_C@_0BI@OEPMFPAK@RAW_UNDERLINE_THICKNESS@ 0000000010170a24     freetype:bdf.obj
 0002:00036a28       ??_C@_0BE@KDKNDDDB@UNDERLINE_THICKNESS@ 0000000010170a28     freetype:bdf.obj
 0002:00036a3c       ??_C@_05HCHEPOAH@CHARS@    0000000010170a3c     freetype:bdf.obj
 0002:00036a44       ??_C@_0BE@KNHMGHPI@CHARSET_COLLECTIONS@ 0000000010170a44     freetype:bdf.obj
 0002:00036a58       ??_C@_0BA@HGECMEMA@STARTPROPERTIES@ 0000000010170a58     freetype:bdf.obj
 0002:00036a68       ??_C@_0O@JFDPHGFD@ENDPROPERTIES@ 0000000010170a68     freetype:bdf.obj
 0002:00036a78       ??_C@_0BG@NDMEGDOA@_XFREE86_GLYPH_RANGES@ 0000000010170a78     freetype:bdf.obj
 0002:00036a90       ??_C@_03OJCMOBOF@PFR@      0000000010170a90     freetype:pfr.obj
 0002:00036a94       ??_C@_0N@LOGJBDOF@DEFAULT_CHAR@ 0000000010170a94     freetype:bdf.obj
 0002:00036aa4       ??_C@_09BPKMEANO@STARTCHAR@ 0000000010170aa4     freetype:bdf.obj
 0002:00036ab0       ??_C@_07MDHLCACL@ENDCHAR@  0000000010170ab0     freetype:bdf.obj
 0002:00036ab8       ??_C@_02MGMKBJJI@KP@       0000000010170ab8     freetype:psaux.obj
 0002:00036abc       ??_C@_06PGFOEMDN@BITMAP@   0000000010170abc     freetype:bdf.obj
 0002:00036ac4       ??_C@_0L@JGAABLGD@RESOLUTION@ 0000000010170ac4     freetype:bdf.obj
 0002:00036ad0       ??_C@_0BH@LIHCGIBB@RAW_UNDERLINE_POSITION@ 0000000010170ad0     freetype:bdf.obj
 0002:00036ad4       ??_C@_0BD@FLNBCMPP@UNDERLINE_POSITION@ 0000000010170ad4     freetype:bdf.obj
 0002:00036ae8       ??_C@_0M@LFJMPFGC@DESTINATION@ 0000000010170ae8     freetype:bdf.obj
 0002:00036af4       ??_C@_01NANMIPIL@N@        0000000010170af4     freetype:psaux.obj
 0002:00036af8       ??_C@_01OCOKONAJ@L@        0000000010170af8     freetype:psaux.obj
 0002:00036afc       ??_C@_09NCKADFKP@StemSnapH@ 0000000010170afc     freetype:type1.obj
 0002:00036b08       ??_C@_0BG@PEMOHOIO@RAW_AVG_CAPITAL_WIDTH@ 0000000010170b08     freetype:bdf.obj
 0002:00036b0c       ??_C@_0BC@DEIBICAG@AVG_CAPITAL_WIDTH@ 0000000010170b0c     freetype:bdf.obj
 0002:00036b20       ??_C@_0BI@BEKJFFLM@RAW_AVG_LOWERCASE_WIDTH@ 0000000010170b20     freetype:bdf.obj
 0002:00036b24       ??_C@_0BE@FDPIDJIH@AVG_LOWERCASE_WIDTH@ 0000000010170b24     freetype:bdf.obj
 0002:00036b38       ??_C@_0BB@LHIJKBAI@RAW_FIGURE_WIDTH@ 0000000010170b38     freetype:bdf.obj
 0002:00036b3c       ??_C@_0N@LCIIJFB@FIGURE_WIDTH@ 0000000010170b3c     freetype:bdf.obj
 0002:00036b4c       ??_C@_0BC@LNOEENJF@RAW_AVERAGE_WIDTH@ 0000000010170b4c     freetype:bdf.obj
 0002:00036b50       ??_C@_0O@KPOPAFON@AVERAGE_WIDTH@ 0000000010170b50     freetype:pcf.obj
 0002:00036b60       ??_C@_0P@LMDGMIPB@RAW_QUAD_WIDTH@ 0000000010170b60     freetype:bdf.obj
 0002:00036b64       ??_C@_0L@MANNMNIK@QUAD_WIDTH@ 0000000010170b64     freetype:bdf.obj
 0002:00036b70       ??_C@_0BC@JMGAMBDF@RELATIVE_SETWIDTH@ 0000000010170b70     freetype:bdf.obj
 0002:00036b84       ??_C@_06HDKFFNNH@SWIDTH@   0000000010170b84     freetype:bdf.obj
 0002:00036b8c       ??_C@_06NBNMPPJH@DWIDTH@   0000000010170b8c     freetype:bdf.obj
 0002:00036b94       ??_C@_03MGLCBEGC@KPH@      0000000010170b94     freetype:psaux.obj
 0002:00036b98       ??_C@_02EKMCNAHJ@CH@       0000000010170b98     freetype:psaux.obj
 0002:00036b9c       ??_C@_0BB@OBJAMPOC@CHARSET_ENCODING@ 0000000010170b9c     freetype:pcf.obj
 0002:00036ba4       ??_C@_08LEFKDKKN@ENCODING@ 0000000010170ba4     freetype:bdf.obj
 0002:00036bb0       ??_C@_07JKNGKIOL@SPACING@  0000000010170bb0     freetype:bdf.obj
 0002:00036bb8       ??_C@_03IFCOMOMB@CFF@      0000000010170bb8     freetype:cff.obj
 0002:00036bbc       ??_C@_03DOBGHNMK@BDF@      0000000010170bbc     freetype:bdf.obj
 0002:00036bc0       ??_C@_03MBEJPEFL@PCF@      0000000010170bc0     freetype:pcf.obj
 0002:00036bc4       ??_C@_0BF@ILCJEECH@RAW_SUPERSCRIPT_SIZE@ 0000000010170bc4     freetype:bdf.obj
 0002:00036bc8       ??_C@_0BB@HOLJGBFI@SUPERSCRIPT_SIZE@ 0000000010170bc8     freetype:bdf.obj
 0002:00036bdc       ??_C@_0BD@FGAMCDPE@RAW_SUBSCRIPT_SIZE@ 0000000010170bdc     freetype:bdf.obj
 0002:00036be0       ??_C@_0P@IMANBLC@SUBSCRIPT_SIZE@ 0000000010170be0     freetype:bdf.obj
 0002:00036bf0       ??_C@_0P@OOHCGKOO@RAW_POINT_SIZE@ 0000000010170bf0     freetype:bdf.obj
 0002:00036bf4       ??_C@_0L@JCJJGPJF@POINT_SIZE@ 0000000010170bf4     freetype:pcf.obj
 0002:00036c00       ??_C@_0BD@HHNHPPKD@RAW_SMALL_CAP_SIZE@ 0000000010170c00     freetype:bdf.obj
 0002:00036c04       ??_C@_0P@CJBLANOF@SMALL_CAP_SIZE@ 0000000010170c04     freetype:bdf.obj
 0002:00036c14       ??_C@_0P@FBIMICGE@RAW_PIXEL_SIZE@ 0000000010170c14     freetype:bdf.obj
 0002:00036c18       ??_C@_0L@CNGHIHBP@PIXEL_SIZE@ 0000000010170c18     freetype:pcf.obj
 0002:00036c24       ??_C@_0O@FDNDDOFA@RAW_POINTSIZE@ 0000000010170c24     freetype:bdf.obj
 0002:00036c34       ??_C@_0O@HNFKKCGD@RAW_PIXELSIZE@ 0000000010170c34     freetype:bdf.obj
 0002:00036c44       ??_C@_04EMFHLKGI@SIZE@     0000000010170c44     freetype:bdf.obj
 0002:00036c4c       ??_C@_0BH@EGBLCDE@_MULE_RELATIVE_COMPOSE@ 0000000010170c4c     freetype:bdf.obj
 0002:00036c64       ??_C@_0M@FBEHGJKE@FAMILY_NAME@ 0000000010170c64     freetype:pcf.obj
 0002:00036c70       ??_C@_0BB@PJMJCLEI@DEVICE_FONT_NAME@ 0000000010170c70     freetype:bdf.obj
 0002:00036c84       ??_C@_0M@FCJHKPGH@WEIGHT_NAME@ 0000000010170c84     freetype:pcf.obj
 0002:00036c90       ??_C@_09IGHCOKHJ@FULL_NAME@ 0000000010170c90     freetype:bdf.obj
 0002:00036c9c       ??_C@_0O@DANCJNNA@SETWIDTH_NAME@ 0000000010170c9c     freetype:pcf.obj
 0002:00036cac       ??_C@_0P@BLEODLOA@ADD_STYLE_NAME@ 0000000010170cac     freetype:pcf.obj
 0002:00036cbc       ??_C@_09DLOGKOHL@FACE_NAME@ 0000000010170cbc     freetype:bdf.obj
 0002:00036cc8       ??_C@_0N@LHJKBLMB@ITALIC_ANGLE@ 0000000010170cc8     freetype:bdf.obj
 0002:00036cd8       ??_C@_06FMPEGAHJ@NOTICE@   0000000010170cd8     freetype:bdf.obj
 0002:00036ce0       ??_C@_0O@LEBPLDCN@RAW_MAX_SPACE@ 0000000010170ce0     freetype:bdf.obj
 0002:00036ce4       ??_C@_09IDPFHPOD@MAX_SPACE@ 0000000010170ce4     freetype:bdf.obj
 0002:00036cf0       ??_C@_0O@LFBDCJJJ@RAW_MIN_SPACE@ 0000000010170cf0     freetype:bdf.obj
 0002:00036cf4       ??_C@_09ICPJOFFH@MIN_SPACE@ 0000000010170cf4     freetype:bdf.obj
 0002:00036d00       ??_C@_0P@FGMOAACN@RAW_NORM_SPACE@ 0000000010170d00     freetype:bdf.obj
 0002:00036d04       ??_C@_0L@CKCFAFFG@NORM_SPACE@ 0000000010170d04     freetype:bdf.obj
 0002:00036d10       ??_C@_0O@FDGFBIGM@RAW_END_SPACE@ 0000000010170d10     freetype:bdf.obj
 0002:00036d14       ??_C@_09GEIPNEKC@END_SPACE@ 0000000010170d14     freetype:bdf.obj
 0002:00036d20       ??_C@_08OMJGNOHD@UniqueID@ 0000000010170d20     freetype:type1.obj
 0002:00036d2c       ??_C@_03LMEEOLHO@CID@      0000000010170d2c     freetype:cff.obj
 0002:00036d30       ??_C@_03LMDOAABO@PCC@      0000000010170d30     freetype:psaux.obj
 0002:00036d34       ??_C@_02KJDGAJLC@CC@       0000000010170d34     freetype:psaux.obj
 0002:00036d38       ??_C@_01GFHCPBMG@C@        0000000010170d38     freetype:psaux.obj
 0002:00036d3c       ??_C@_01HMGJMAIH@B@        0000000010170d3c     freetype:psaux.obj
 0002:00036d40       ??_C@_04LBDHIBCK@8859@     0000000010170d40     freetype:pcf.obj
 0002:00036d48       ??_C@_0BE@MOFLNEOP@0?51?52?53?54?55?56?57?58?59@ 0000000010170d48     freetype:autofit.obj
 0002:00036d5c       ??_C@_05FPAEEJJG@10646@    0000000010170d5c     freetype:pcf.obj
 0002:00036d64       ??_C@_05DOIEBMOI@1?41?44@  0000000010170d64     freetype:ftgzip.obj
 0002:00036d6c       ??_C@_06GNKBHGHD@type42@   0000000010170d6c     freetype:ftbase.obj
 0002:00036d74       ??_C@_07GJBALKN@Type?542@  0000000010170d74     freetype:type42.obj
 0002:00036d7c       ??_C@_0BA@GONDPLHF@StartKernPairs1@ 0000000010170d7c     freetype:psaux.obj
 0002:00036d8c       ??_C@_07EFFNHEPH@raster1@  0000000010170d8c     freetype:raster.obj
 0002:00036d94       ??_C@_05MJDCDNNA@type1@    0000000010170d94     freetype:ftbase.obj
 0002:00036d9c       ??_C@_02KPBABJGK@W1@       0000000010170d9c     freetype:psaux.obj
 0002:00036da0       ??_C@_08EPMKAEBA@646?41991@ 0000000010170da0     freetype:pcf.obj
 0002:00036dac       ??_C@_0L@DDPIBKML@CID?5Type?51@ 0000000010170dac     freetype:type1cid.obj
 0002:00036db0       ??_C@_06JCBOBHIA@Type?51@  0000000010170db0     freetype:ftbase.obj
 0002:00036db8       ??_C@_01HIHLOKLC@1@        0000000010170db8     freetype:pcf.obj
 0002:00036dbc       ??_C@_0BA@HHMIMKDE@StartKernPairs0@ 0000000010170dbc     freetype:psaux.obj
 0002:00036dcc       ??_C@_02LGALCICL@W0@       0000000010170dcc     freetype:psaux.obj
 0002:00036dd0       ??_C@_05FCCCPEKP@o?5O?50@  0000000010170dd0     freetype:autofit.obj
 0002:00036dd8       ??_C@_0O@FDMCFKOC@resource?4frk?1@ 0000000010170dd8     freetype:ftbase.obj
 0002:00036de8       ??_C@_0O@KCDCBAF@?4AppleDouble?1@ 0000000010170de8     freetype:ftbase.obj
 0002:00036df8       ??_C@_0L@FGJFJHGF@?4resource?1@ 0000000010170df8     freetype:ftbase.obj
 0002:00036e04       ??_C@_01JOAMLHOP@?9@       0000000010170e04     freetype:bdf.obj
 0002:00036e08       ??_C@_02EOIDJNGE@?5?$CL@   0000000010170e08     freetype:bdf.obj
 0002:00036e0c       ??_C@_05NPBNGLLN@?$CIHex?$CJ@ 0000000010170e0c     freetype:type1cid.obj
 0002:00036e14       ??_C@_01FGNFDNOH@?$CF@     0000000010170e14     freetype:ftbase.obj
 0002:00036e18       ??_C@_1CM@BFAMBNFD@?$AA?$CB?$AAx?$AA?9?$AAs?$AAy?$AAs?$AA?9?$AAd?$AAe?$AAf?$AAa?$AAu?$AAl?$AAt?$AA?9@ 0000000010170e18     msvcprt:syserror_import_lib.obj
 0000:00000000       ___safe_se_handler_table   0000000010170ea8     <linker-defined>
 0002:00037270       ___xc_a                    0000000010171270     msvcrt:initializers.obj
 0002:00037340       ___xc_z                    0000000010171340     msvcrt:initializers.obj
 0002:00037344       ___xi_a                    0000000010171344     msvcrt:initializers.obj
 0002:00037348       ___xi_z                    0000000010171348     msvcrt:initializers.obj
 0002:0003734c       ___xl_a                    000000001017134c     msvcrt:tlssup.obj
 0002:00037350       ___xl_z                    0000000010171350     msvcrt:tlssup.obj
 0002:00037354       ___xp_a                    0000000010171354     msvcrt:initializers.obj
 0002:00037358       ___xp_z                    0000000010171358     msvcrt:initializers.obj
 0002:0003735c       ___xt_a                    000000001017135c     msvcrt:initializers.obj
 0002:00037360       ___xt_z                    0000000010171360     msvcrt:initializers.obj
 0002:00037910       __imp__D3DXCreateTextureFromFileInMemoryEx@60 0000000010171910     d3dx9:d3dx9_43.dll
 0002:00037918       __imp_??0?$basic_streambuf@DU?$char_traits@D@std@@@std@@IAE@XZ 0000000010171918     msvcprt:MSVCP140.dll
 0002:0003791c       __imp_??0_Lockit@std@@QAE@H@Z 000000001017191c     msvcprt:MSVCP140.dll
 0002:00037920       __imp_??0ios_base@std@@IAE@XZ 0000000010171920     msvcprt:MSVCP140.dll
 0002:00037924       __imp_??1?$basic_streambuf@DU?$char_traits@D@std@@@std@@UAE@XZ 0000000010171924     msvcprt:MSVCP140.dll
 0002:00037928       __imp_??1_Lockit@std@@QAE@XZ 0000000010171928     msvcprt:MSVCP140.dll
 0002:0003792c       __imp_??1ios_base@std@@UAE@XZ 000000001017192c     msvcprt:MSVCP140.dll
 0002:00037930       __imp_??6?$basic_ostream@DU?$char_traits@D@std@@@std@@QAEAAV01@H@Z 0000000010171930     msvcprt:MSVCP140.dll
 0002:00037934       __imp_?_Fiopen@std@@YAPAU_iobuf@@PBDHH@Z 0000000010171934     msvcprt:MSVCP140.dll
 0002:00037938       __imp_?_Fiopen@std@@YAPAU_iobuf@@PB_WHH@Z 0000000010171938     msvcprt:MSVCP140.dll
 0002:0003793c       __imp_?_Getcat@?$codecvt@DDU_Mbstatet@@@std@@SAIPAPBVfacet@locale@2@PBV42@@Z 000000001017193c     msvcprt:MSVCP140.dll
 0002:00037940       __imp_?_Getcat@?$ctype@D@std@@SAIPAPBVfacet@locale@2@PBV42@@Z 0000000010171940     msvcprt:MSVCP140.dll
 0002:00037944       __imp_?_Getgloballocale@locale@std@@CAPAV_Locimp@12@XZ 0000000010171944     msvcprt:MSVCP140.dll
 0002:00037948       __imp_?_Id_cnt@id@locale@std@@0HA 0000000010171948     msvcprt:MSVCP140.dll
 0002:0003794c       __imp_?_Ipfx@?$basic_istream@DU?$char_traits@D@std@@@std@@QAE_N_N@Z 000000001017194c     msvcprt:MSVCP140.dll
 0002:00037950       __imp_?_Lock@?$basic_streambuf@DU?$char_traits@D@std@@@std@@UAEXXZ 0000000010171950     msvcprt:MSVCP140.dll
 0002:00037954       __imp_?_Osfx@?$basic_ostream@DU?$char_traits@D@std@@@std@@QAEXXZ 0000000010171954     msvcprt:MSVCP140.dll
 0002:00037958       __imp_?_Syserror_map@std@@YAPBDH@Z 0000000010171958     msvcprt:MSVCP140.dll
 0002:0003795c       __imp_?_Throw_C_error@std@@YAXH@Z 000000001017195c     msvcprt:MSVCP140.dll
 0002:00037960       __imp_?_Throw_Cpp_error@std@@YAXH@Z 0000000010171960     msvcprt:MSVCP140.dll
 0002:00037964       __imp_?_Unlock@?$basic_streambuf@DU?$char_traits@D@std@@@std@@UAEXXZ 0000000010171964     msvcprt:MSVCP140.dll
 0002:00037968       __imp_?_Winerror_map@std@@YAHH@Z 0000000010171968     msvcprt:MSVCP140.dll
 0002:0003796c       __imp_?_Xbad_function_call@std@@YAXXZ 000000001017196c     msvcprt:MSVCP140.dll
 0002:00037970       __imp_?_Xlength_error@std@@YAXPBD@Z 0000000010171970     msvcprt:MSVCP140.dll
 0002:00037974       __imp_?_Xout_of_range@std@@YAXPBD@Z 0000000010171974     msvcprt:MSVCP140.dll
 0002:00037978       __imp_?__ExceptionPtrAssign@@YAXPAXPBX@Z 0000000010171978     msvcprt:MSVCP140.dll
 0002:0003797c       __imp_?__ExceptionPtrCopy@@YAXPAXPBX@Z 000000001017197c     msvcprt:MSVCP140.dll
 0002:00037980       __imp_?__ExceptionPtrCopyException@@YAXPAXPBX1@Z 0000000010171980     msvcprt:MSVCP140.dll
 0002:00037984       __imp_?__ExceptionPtrCreate@@YAXPAX@Z 0000000010171984     msvcprt:MSVCP140.dll
 0002:00037988       __imp_?__ExceptionPtrCurrentException@@YAXPAX@Z 0000000010171988     msvcprt:MSVCP140.dll
 0002:0003798c       __imp_?__ExceptionPtrDestroy@@YAXPAX@Z 000000001017198c     msvcprt:MSVCP140.dll
 0002:00037990       __imp_?__ExceptionPtrRethrow@@YAXPBX@Z 0000000010171990     msvcprt:MSVCP140.dll
 0002:00037994       __imp_?__ExceptionPtrToBool@@YA_NPBX@Z 0000000010171994     msvcprt:MSVCP140.dll
 0002:00037998       __imp_?clear@?$basic_ios@DU?$char_traits@D@std@@@std@@QAEXH_N@Z 0000000010171998     msvcprt:MSVCP140.dll
 0002:0003799c       __imp_?copyfmt@ios_base@std@@QAEAAV12@ABV12@@Z 000000001017199c     msvcprt:MSVCP140.dll
 0002:000379a0       __imp_?fail@ios_base@std@@QBE_NXZ 00000000101719a0     msvcprt:MSVCP140.dll
 0002:000379a4       __imp_?flush@?$basic_ostream@DU?$char_traits@D@std@@@std@@QAEAAV12@XZ 00000000101719a4     msvcprt:MSVCP140.dll
 0002:000379a8       __imp_?getloc@?$basic_streambuf@DU?$char_traits@D@std@@@std@@QBE?AVlocale@2@XZ 00000000101719a8     msvcprt:MSVCP140.dll
 0002:000379ac       __imp_?getloc@ios_base@std@@QBE?AVlocale@2@XZ 00000000101719ac     msvcprt:MSVCP140.dll
 0002:000379b0       __imp_?good@ios_base@std@@QBE_NXZ 00000000101719b0     msvcprt:MSVCP140.dll
 0002:000379b4       __imp_?id@?$codecvt@DDU_Mbstatet@@@std@@2V0locale@2@A 00000000101719b4     msvcprt:MSVCP140.dll
 0002:000379b8       __imp_?id@?$ctype@D@std@@2V0locale@2@A 00000000101719b8     msvcprt:MSVCP140.dll
 0002:000379bc       __imp_?imbue@?$basic_streambuf@DU?$char_traits@D@std@@@std@@MAEXABVlocale@2@@Z 00000000101719bc     msvcprt:MSVCP140.dll
 0002:000379c0       __imp_?init@?$basic_ios@DU?$char_traits@D@std@@@std@@IAEXPAV?$basic_streambuf@DU?$char_traits@D@std@@@2@_N@Z 00000000101719c0     msvcprt:MSVCP140.dll
 0002:000379c4       __imp_?setbuf@?$basic_streambuf@DU?$char_traits@D@std@@@std@@MAEPAV12@PAD_J@Z 00000000101719c4     msvcprt:MSVCP140.dll
 0002:000379c8       __imp_?sgetc@?$basic_streambuf@DU?$char_traits@D@std@@@std@@QAEHXZ 00000000101719c8     msvcprt:MSVCP140.dll
 0002:000379cc       __imp_?showmanyc@?$basic_streambuf@DU?$char_traits@D@std@@@std@@MAE_JXZ 00000000101719cc     msvcprt:MSVCP140.dll
 0002:000379d0       __imp_?snextc@?$basic_streambuf@DU?$char_traits@D@std@@@std@@QAEHXZ 00000000101719d0     msvcprt:MSVCP140.dll
 0002:000379d4       __imp_?sputc@?$basic_streambuf@DU?$char_traits@D@std@@@std@@QAEHD@Z 00000000101719d4     msvcprt:MSVCP140.dll
 0002:000379d8       __imp_?sync@?$basic_streambuf@DU?$char_traits@D@std@@@std@@MAEHXZ 00000000101719d8     msvcprt:MSVCP140.dll
 0002:000379dc       __imp_?uflow@?$basic_streambuf@DU?$char_traits@D@std@@@std@@MAEHXZ 00000000101719dc     msvcprt:MSVCP140.dll
 0002:000379e0       __imp_?uncaught_exceptions@std@@YAHXZ 00000000101719e0     msvcprt:MSVCP140.dll
 0002:000379e4       __imp_?write@?$basic_ostream@DU?$char_traits@D@std@@@std@@QAEAAV12@PBD_J@Z 00000000101719e4     msvcprt:MSVCP140.dll
 0002:000379e8       __imp_?xsgetn@?$basic_streambuf@DU?$char_traits@D@std@@@std@@MAE_JPAD_J@Z 00000000101719e8     msvcprt:MSVCP140.dll
 0002:000379ec       __imp_?xsputn@?$basic_streambuf@DU?$char_traits@D@std@@@std@@MAE_JPBD_J@Z 00000000101719ec     msvcprt:MSVCP140.dll
 0002:000379f0       __imp___Cnd_broadcast      00000000101719f0     msvcprt:MSVCP140.dll
 0002:000379f4       __imp___Cnd_destroy_in_situ 00000000101719f4     msvcprt:MSVCP140.dll
 0002:000379f8       __imp___Cnd_do_broadcast_at_thread_exit 00000000101719f8     msvcprt:MSVCP140.dll
 0002:000379fc       __imp___Cnd_init_in_situ   00000000101719fc     msvcprt:MSVCP140.dll
 0002:00037a00       __imp___Cnd_register_at_thread_exit 0000000010171a00     msvcprt:MSVCP140.dll
 0002:00037a04       __imp___Cnd_unregister_at_thread_exit 0000000010171a04     msvcprt:MSVCP140.dll
 0002:00037a08       __imp___Cnd_wait           0000000010171a08     msvcprt:MSVCP140.dll
 0002:00037a0c       __imp___Mtx_destroy_in_situ 0000000010171a0c     msvcprt:MSVCP140.dll
 0002:00037a10       __imp___Mtx_init_in_situ   0000000010171a10     msvcprt:MSVCP140.dll
 0002:00037a14       __imp___Mtx_lock           0000000010171a14     msvcprt:MSVCP140.dll
 0002:00037a18       __imp___Mtx_trylock        0000000010171a18     msvcprt:MSVCP140.dll
 0002:00037a1c       __imp___Mtx_unlock         0000000010171a1c     msvcprt:MSVCP140.dll
 0002:00037a20       __imp___Query_perf_counter 0000000010171a20     msvcprt:MSVCP140.dll
 0002:00037a24       __imp___Query_perf_frequency 0000000010171a24     msvcprt:MSVCP140.dll
 0002:00037a28       __imp___Thrd_detach        0000000010171a28     msvcprt:MSVCP140.dll
 0002:00037a2c       __imp___Thrd_hardware_concurrency 0000000010171a2c     msvcprt:MSVCP140.dll
 0002:00037a30       __imp___Thrd_id            0000000010171a30     msvcprt:MSVCP140.dll
 0002:00037a34       __imp___Thrd_join          0000000010171a34     msvcprt:MSVCP140.dll
 0002:00037a38       __imp___Thrd_sleep         0000000010171a38     msvcprt:MSVCP140.dll
 0002:00037a3c       __imp___Thrd_yield         0000000010171a3c     msvcprt:MSVCP140.dll
 0002:00037a40       __imp___Xtime_get_ticks    0000000010171a40     msvcprt:MSVCP140.dll
 0002:00037a48       __imp____std_atomic_notify_all_direct@4 0000000010171a48     msvcprt:MSVCP140_ATOMIC_WAIT.dll
 0002:00037a4c       __imp____std_atomic_notify_one_direct@4 0000000010171a4c     msvcprt:MSVCP140_ATOMIC_WAIT.dll
 0002:00037a50       __imp____std_atomic_wait_direct@16 0000000010171a50     msvcprt:MSVCP140_ATOMIC_WAIT.dll
 0002:00037a58       __imp__PlaySoundA@12       0000000010171a58     Winmm:WINMM.dll
 0002:00037a60       __imp__ClientToScreen@8    0000000010171a60     user32:USER32.dll
 0002:00037a64       __imp__CloseClipboard@0    0000000010171a64     user32:USER32.dll
 0002:00037a68       __imp__EmptyClipboard@0    0000000010171a68     user32:USER32.dll
 0002:00037a6c       __imp__GetAsyncKeyState@4  0000000010171a6c     user32:USER32.dll
 0002:00037a70       __imp__GetCapture@0        0000000010171a70     user32:USER32.dll
 0002:00037a74       __imp__GetClientRect@8     0000000010171a74     user32:USER32.dll
 0002:00037a78       __imp__GetClipboardData@4  0000000010171a78     user32:USER32.dll
 0002:00037a7c       __imp__GetCursorPos@4      0000000010171a7c     user32:USER32.dll
 0002:00037a80       __imp__GetForegroundWindow@0 0000000010171a80     user32:USER32.dll
 0002:00037a84       __imp__GetKeyState@4       0000000010171a84     user32:USER32.dll
 0002:00037a88       __imp__IsChild@8           0000000010171a88     user32:USER32.dll
 0002:00037a8c       __imp__LoadCursorA@8       0000000010171a8c     user32:USER32.dll
 0002:00037a90       __imp__OpenClipboard@4     0000000010171a90     user32:USER32.dll
 0002:00037a94       __imp__ReleaseCapture@0    0000000010171a94     user32:USER32.dll
 0002:00037a98       __imp__ScreenToClient@8    0000000010171a98     user32:USER32.dll
 0002:00037a9c       __imp__SetCapture@4        0000000010171a9c     user32:USER32.dll
 0002:00037aa0       __imp__SetClipboardData@8  0000000010171aa0     user32:USER32.dll
 0002:00037aa4       __imp__SetCursor@4         0000000010171aa4     user32:USER32.dll
 0002:00037aa8       __imp__SetCursorPos@8      0000000010171aa8     user32:USER32.dll
 0002:00037ab0       __imp__AreFileApisANSI@0   0000000010171ab0     kernel32:KERNEL32.dll
 0002:00037ab4       __imp__CloseHandle@4       0000000010171ab4     kernel32:KERNEL32.dll
 0002:00037ab8       __imp__CreateDirectoryW@8  0000000010171ab8     kernel32:KERNEL32.dll
 0002:00037abc       __imp__CreateFileW@28      0000000010171abc     kernel32:KERNEL32.dll
 0002:00037ac0       __imp__CreateToolhelp32Snapshot@8 0000000010171ac0     kernel32:KERNEL32.dll
 0002:00037ac4       __imp__FindClose@4         0000000010171ac4     kernel32:KERNEL32.dll
 0002:00037ac8       __imp__FindFirstFileW@8    0000000010171ac8     kernel32:KERNEL32.dll
 0002:00037acc       __imp__FlushInstructionCache@12 0000000010171acc     kernel32:KERNEL32.dll
 0002:00037ad0       __imp__FormatMessageA@28   0000000010171ad0     kernel32:KERNEL32.dll
 0002:00037ad4       __imp__GetCurrentProcess@0 0000000010171ad4     kernel32:KERNEL32.dll
 0002:00037ad8       __imp__GetCurrentProcessId@0 0000000010171ad8     kernel32:KERNEL32.dll
 0002:00037adc       __imp__GetCurrentThread@0  0000000010171adc     kernel32:KERNEL32.dll
 0002:00037ae0       __imp__GetCurrentThreadId@0 0000000010171ae0     kernel32:KERNEL32.dll
 0002:00037ae4       __imp__GetFileAttributesExW@12 0000000010171ae4     kernel32:KERNEL32.dll
 0002:00037ae8       __imp__GetFileInformationByHandleEx@16 0000000010171ae8     kernel32:KERNEL32.dll
 0002:00037aec       __imp__GetLastError@0      0000000010171aec     kernel32:KERNEL32.dll
 0002:00037af0       __imp__GetLocaleInfoEx@16  0000000010171af0     kernel32:KERNEL32.dll
 0002:00037af4       __imp__GetModuleHandleA@4  0000000010171af4     kernel32:KERNEL32.dll
 0002:00037af8       __imp__GetProcAddress@8    0000000010171af8     kernel32:KERNEL32.dll
 0002:00037afc       __imp__GetSystemTimeAsFileTime@4 0000000010171afc     kernel32:KERNEL32.dll
 0002:00037b00       __imp__GetThreadContext@8  0000000010171b00     kernel32:KERNEL32.dll
 0002:00037b04       __imp__GlobalAlloc@8       0000000010171b04     kernel32:KERNEL32.dll
 0002:00037b08       __imp__GlobalFree@4        0000000010171b08     kernel32:KERNEL32.dll
 0002:00037b0c       __imp__GlobalLock@4        0000000010171b0c     kernel32:KERNEL32.dll
 0002:00037b10       __imp__GlobalUnlock@4      0000000010171b10     kernel32:KERNEL32.dll
 0002:00037b14       __imp__HeapAlloc@12        0000000010171b14     kernel32:KERNEL32.dll
 0002:00037b18       __imp__HeapCreate@12       0000000010171b18     kernel32:KERNEL32.dll
 0002:00037b1c       __imp__HeapFree@12         0000000010171b1c     kernel32:KERNEL32.dll
 0002:00037b20       __imp__HeapReAlloc@16      0000000010171b20     kernel32:KERNEL32.dll
 0002:00037b24       __imp__InitializeSListHead@4 0000000010171b24     kernel32:KERNEL32.dll
 0002:00037b28       __imp__IsDebuggerPresent@0 0000000010171b28     kernel32:KERNEL32.dll
 0002:00037b2c       __imp__IsProcessorFeaturePresent@4 0000000010171b2c     kernel32:KERNEL32.dll
 0002:00037b30       __imp__LocalFree@4         0000000010171b30     kernel32:KERNEL32.dll
 0002:00037b34       __imp__MultiByteToWideChar@24 0000000010171b34     kernel32:KERNEL32.dll
 0002:00037b38       __imp__OpenThread@12       0000000010171b38     kernel32:KERNEL32.dll
 0002:00037b3c       __imp__QueryPerformanceCounter@4 0000000010171b3c     kernel32:KERNEL32.dll
 0002:00037b40       __imp__QueryPerformanceFrequency@4 0000000010171b40     kernel32:KERNEL32.dll
 0002:00037b44       __imp__ResumeThread@4      0000000010171b44     kernel32:KERNEL32.dll
 0002:00037b48       __imp__SetThreadContext@8  0000000010171b48     kernel32:KERNEL32.dll
 0002:00037b4c       __imp__SetThreadPriority@8 0000000010171b4c     kernel32:KERNEL32.dll
 0002:00037b50       __imp__SetThreadPriorityBoost@8 0000000010171b50     kernel32:KERNEL32.dll
 0002:00037b54       __imp__SetUnhandledExceptionFilter@4 0000000010171b54     kernel32:KERNEL32.dll
 0002:00037b58       __imp__Sleep@4             0000000010171b58     kernel32:KERNEL32.dll
 0002:00037b5c       __imp__SuspendThread@4     0000000010171b5c     kernel32:KERNEL32.dll
 0002:00037b60       __imp__TerminateProcess@8  0000000010171b60     kernel32:KERNEL32.dll
 0002:00037b64       __imp__Thread32First@8     0000000010171b64     kernel32:KERNEL32.dll
 0002:00037b68       __imp__Thread32Next@8      0000000010171b68     kernel32:KERNEL32.dll
 0002:00037b6c       __imp__UnhandledExceptionFilter@4 0000000010171b6c     kernel32:KERNEL32.dll
 0002:00037b70       __imp__VirtualAlloc@16     0000000010171b70     kernel32:KERNEL32.dll
 0002:00037b74       __imp__VirtualFree@12      0000000010171b74     kernel32:KERNEL32.dll
 0002:00037b78       __imp__VirtualProtect@16   0000000010171b78     kernel32:KERNEL32.dll
 0002:00037b7c       __imp__VirtualQuery@12     0000000010171b7c     kernel32:KERNEL32.dll
 0002:00037b80       __imp__WideCharToMultiByte@32 0000000010171b80     kernel32:KERNEL32.dll
 0002:00037b88       __imp__ImmGetContext@4     0000000010171b88     imm32:IMM32.dll
 0002:00037b8c       __imp__ImmReleaseContext@8 0000000010171b8c     imm32:IMM32.dll
 0002:00037b90       __imp__ImmSetCompositionWindow@8 0000000010171b90     imm32:IMM32.dll
 0002:00037b98       __imp__XInputGetCapabilities@12 0000000010171b98     xinput:XINPUT1_3.dll
 0002:00037b9c       __imp__XInputGetState@8    0000000010171b9c     xinput:XINPUT1_3.dll
 0002:00037ba4       __imp___CxxThrowException@8 0000000010171ba4     vcruntime:VCRUNTIME140.dll
 0002:00037ba8       __imp____CxxFrameHandler3  0000000010171ba8     vcruntime:VCRUNTIME140.dll
 0002:00037bac       __imp____std_exception_copy 0000000010171bac     vcruntime:VCRUNTIME140.dll
 0002:00037bb0       __imp____std_exception_destroy 0000000010171bb0     vcruntime:VCRUNTIME140.dll
 0002:00037bb4       __imp____std_terminate     0000000010171bb4     vcruntime:VCRUNTIME140.dll
 0002:00037bb8       __imp____std_type_info_destroy_list 0000000010171bb8     vcruntime:VCRUNTIME140.dll
 0002:00037bbc       __imp___except_handler4_common 0000000010171bbc     vcruntime:VCRUNTIME140.dll
 0002:00037bc0       __imp___setjmp3            0000000010171bc0     vcruntime:VCRUNTIME140.dll
 0002:00037bc4       __imp__longjmp             0000000010171bc4     vcruntime:VCRUNTIME140.dll
 0002:00037bc8       __imp__memchr              0000000010171bc8     vcruntime:VCRUNTIME140.dll
 0002:00037bcc       __imp__memcmp              0000000010171bcc     vcruntime:VCRUNTIME140.dll
 0002:00037bd0       __imp__memcpy              0000000010171bd0     vcruntime:VCRUNTIME140.dll
 0002:00037bd4       __imp__memmove             0000000010171bd4     vcruntime:VCRUNTIME140.dll
 0002:00037bd8       __imp__memset              0000000010171bd8     vcruntime:VCRUNTIME140.dll
 0002:00037bdc       __imp__strrchr             0000000010171bdc     vcruntime:VCRUNTIME140.dll
 0002:00037be0       __imp__strstr              0000000010171be0     vcruntime:VCRUNTIME140.dll
 0002:00037be8       __imp____stdio_common_vsprintf 0000000010171be8     ucrt:api-ms-win-crt-stdio-l1-1-0.dll
 0002:00037bec       __imp____stdio_common_vsprintf_s 0000000010171bec     ucrt:api-ms-win-crt-stdio-l1-1-0.dll
 0002:00037bf0       __imp____stdio_common_vsscanf 0000000010171bf0     ucrt:api-ms-win-crt-stdio-l1-1-0.dll
 0002:00037bf4       __imp___fseeki64           0000000010171bf4     ucrt:api-ms-win-crt-stdio-l1-1-0.dll
 0002:00037bf8       __imp___get_stream_buffer_pointers 0000000010171bf8     ucrt:api-ms-win-crt-stdio-l1-1-0.dll
 0002:00037bfc       __imp___wfopen             0000000010171bfc     ucrt:api-ms-win-crt-stdio-l1-1-0.dll
 0002:00037c00       __imp__fclose              0000000010171c00     ucrt:api-ms-win-crt-stdio-l1-1-0.dll
 0002:00037c04       __imp__fflush              0000000010171c04     ucrt:api-ms-win-crt-stdio-l1-1-0.dll
 0002:00037c08       __imp__fgetc               0000000010171c08     ucrt:api-ms-win-crt-stdio-l1-1-0.dll
 0002:00037c0c       __imp__fgetpos             0000000010171c0c     ucrt:api-ms-win-crt-stdio-l1-1-0.dll
 0002:00037c10       __imp__fopen               0000000010171c10     ucrt:api-ms-win-crt-stdio-l1-1-0.dll
 0002:00037c14       __imp__fputc               0000000010171c14     ucrt:api-ms-win-crt-stdio-l1-1-0.dll
 0002:00037c18       __imp__fread               0000000010171c18     ucrt:api-ms-win-crt-stdio-l1-1-0.dll
 0002:00037c1c       __imp__fseek               0000000010171c1c     ucrt:api-ms-win-crt-stdio-l1-1-0.dll
 0002:00037c20       __imp__fsetpos             0000000010171c20     ucrt:api-ms-win-crt-stdio-l1-1-0.dll
 0002:00037c24       __imp__ftell               0000000010171c24     ucrt:api-ms-win-crt-stdio-l1-1-0.dll
 0002:00037c28       __imp__fwrite              0000000010171c28     ucrt:api-ms-win-crt-stdio-l1-1-0.dll
 0002:00037c2c       __imp__setvbuf             0000000010171c2c     ucrt:api-ms-win-crt-stdio-l1-1-0.dll
 0002:00037c30       __imp__ungetc              0000000010171c30     ucrt:api-ms-win-crt-stdio-l1-1-0.dll
 0002:00037c38       __imp___callnewh           0000000010171c38     ucrt:api-ms-win-crt-heap-l1-1-0.dll
 0002:00037c3c       __imp__free                0000000010171c3c     ucrt:api-ms-win-crt-heap-l1-1-0.dll
 0002:00037c40       __imp__malloc              0000000010171c40     ucrt:api-ms-win-crt-heap-l1-1-0.dll
 0002:00037c48       __imp___beginthreadex      0000000010171c48     ucrt:api-ms-win-crt-runtime-l1-1-0.dll
 0002:00037c4c       __imp___cexit              0000000010171c4c     ucrt:api-ms-win-crt-runtime-l1-1-0.dll
 0002:00037c50       __imp___configure_narrow_argv 0000000010171c50     ucrt:api-ms-win-crt-runtime-l1-1-0.dll
 0002:00037c54       __imp___crt_atexit         0000000010171c54     ucrt:api-ms-win-crt-runtime-l1-1-0.dll
 0002:00037c58       __imp___errno              0000000010171c58     ucrt:api-ms-win-crt-runtime-l1-1-0.dll
 0002:00037c5c       __imp___execute_onexit_table 0000000010171c5c     ucrt:api-ms-win-crt-runtime-l1-1-0.dll
 0002:00037c60       __imp___initialize_narrow_environment 0000000010171c60     ucrt:api-ms-win-crt-runtime-l1-1-0.dll
 0002:00037c64       __imp___initialize_onexit_table 0000000010171c64     ucrt:api-ms-win-crt-runtime-l1-1-0.dll
 0002:00037c68       __imp___initterm           0000000010171c68     ucrt:api-ms-win-crt-runtime-l1-1-0.dll
 0002:00037c6c       __imp___initterm_e         0000000010171c6c     ucrt:api-ms-win-crt-runtime-l1-1-0.dll
 0002:00037c70       __imp___invalid_parameter_noinfo_noreturn 0000000010171c70     ucrt:api-ms-win-crt-runtime-l1-1-0.dll
 0002:00037c74       __imp___register_onexit_function 0000000010171c74     ucrt:api-ms-win-crt-runtime-l1-1-0.dll
 0002:00037c78       __imp___seh_filter_dll     0000000010171c78     ucrt:api-ms-win-crt-runtime-l1-1-0.dll
 0002:00037c7c       __imp__abort               0000000010171c7c     ucrt:api-ms-win-crt-runtime-l1-1-0.dll
 0002:00037c80       __imp__terminate           0000000010171c80     ucrt:api-ms-win-crt-runtime-l1-1-0.dll
 0002:00037c88       __imp_____lc_codepage_func 0000000010171c88     ucrt:api-ms-win-crt-locale-l1-1-0.dll
 0002:00037c8c       __imp__localeconv          0000000010171c8c     ucrt:api-ms-win-crt-locale-l1-1-0.dll
 0002:00037c94       __imp___dsign              0000000010171c94     ucrt:api-ms-win-crt-math-l1-1-0.dll
 0002:00037c98       __imp___dtest              0000000010171c98     ucrt:api-ms-win-crt-math-l1-1-0.dll
 0002:00037c9c       __imp___fdtest             0000000010171c9c     ucrt:api-ms-win-crt-math-l1-1-0.dll
 0002:00037ca0       __imp__acos                0000000010171ca0     ucrt:api-ms-win-crt-math-l1-1-0.dll
 0002:00037ca4       __imp__atan                0000000010171ca4     ucrt:api-ms-win-crt-math-l1-1-0.dll
 0002:00037ca8       __imp__atan2               0000000010171ca8     ucrt:api-ms-win-crt-math-l1-1-0.dll
 0002:00037cac       __imp__ceil                0000000010171cac     ucrt:api-ms-win-crt-math-l1-1-0.dll
 0002:00037cb0       __imp__cos                 0000000010171cb0     ucrt:api-ms-win-crt-math-l1-1-0.dll
 0002:00037cb4       __imp__exp                 0000000010171cb4     ucrt:api-ms-win-crt-math-l1-1-0.dll
 0002:00037cb8       __imp__floor               0000000010171cb8     ucrt:api-ms-win-crt-math-l1-1-0.dll
 0002:00037cbc       __imp__fmod                0000000010171cbc     ucrt:api-ms-win-crt-math-l1-1-0.dll
 0002:00037cc0       __imp__log                 0000000010171cc0     ucrt:api-ms-win-crt-math-l1-1-0.dll
 0002:00037cc4       __imp__pow                 0000000010171cc4     ucrt:api-ms-win-crt-math-l1-1-0.dll
 0002:00037cc8       __imp__remainderf          0000000010171cc8     ucrt:api-ms-win-crt-math-l1-1-0.dll
 0002:00037ccc       __imp__sin                 0000000010171ccc     ucrt:api-ms-win-crt-math-l1-1-0.dll
 0002:00037cd0       __imp__sqrt                0000000010171cd0     ucrt:api-ms-win-crt-math-l1-1-0.dll
 0002:00037cd8       __imp___lock_file          0000000010171cd8     ucrt:api-ms-win-crt-filesystem-l1-1-0.dll
 0002:00037cdc       __imp___unlock_file        0000000010171cdc     ucrt:api-ms-win-crt-filesystem-l1-1-0.dll
 0002:00037ce4       __imp__atof                0000000010171ce4     ucrt:api-ms-win-crt-convert-l1-1-0.dll
 0002:00037ce8       __imp__strtod              0000000010171ce8     ucrt:api-ms-win-crt-convert-l1-1-0.dll
 0002:00037cec       __imp__strtol              0000000010171cec     ucrt:api-ms-win-crt-convert-l1-1-0.dll
 0002:00037cf0       __imp__strtoll             0000000010171cf0     ucrt:api-ms-win-crt-convert-l1-1-0.dll
 0002:00037cf4       __imp__strtoull            0000000010171cf4     ucrt:api-ms-win-crt-convert-l1-1-0.dll
 0002:00037cfc       __imp__clock               0000000010171cfc     ucrt:api-ms-win-crt-time-l1-1-0.dll
 0002:00037d04       __imp__qsort               0000000010171d04     ucrt:api-ms-win-crt-utility-l1-1-0.dll
 0002:00037d0c       __imp__strcat_s            0000000010171d0c     ucrt:api-ms-win-crt-string-l1-1-0.dll
 0002:00037d10       __imp__strcmp              0000000010171d10     ucrt:api-ms-win-crt-string-l1-1-0.dll
 0002:00037d14       __imp__strcpy_s            0000000010171d14     ucrt:api-ms-win-crt-string-l1-1-0.dll
 0002:00037d18       __imp__strlen              0000000010171d18     ucrt:api-ms-win-crt-string-l1-1-0.dll
 0002:00037d1c       __imp__strncmp             0000000010171d1c     ucrt:api-ms-win-crt-string-l1-1-0.dll
 0002:00037d20       __imp__strncpy             0000000010171d20     ucrt:api-ms-win-crt-string-l1-1-0.dll
 0002:00037d24       __imp__toupper             0000000010171d24     ucrt:api-ms-win-crt-string-l1-1-0.dll
 0002:000395ac       ___rtc_iaa                 00000000101735ac     msvcrt:initsect.obj
 0002:000395b0       ___rtc_izz                 00000000101735b0     msvcrt:initsect.obj
 0002:000395b4       ___rtc_taa                 00000000101735b4     msvcrt:initsect.obj
 0002:000395b8       ___rtc_tzz                 00000000101735b8     msvcrt:initsect.obj
 0002:000395c0       __CT??_R0?AVruntime_error@std@@@8??0runtime_error@std@@QAE@ABV01@@Z12 00000000101735c0     ctx.obj
 0002:000395e0       __CT??_R0?AVexception@std@@@8??0exception@std@@QAE@ABV01@@Z12 00000000101735e0     ctx.obj
 0002:000395fc       __CTA2?AVruntime_error@std@@ 00000000101735fc     ctx.obj
 0002:00039608       __TI2?AVruntime_error@std@@ 0000000010173608     ctx.obj
 0002:00039620       __CT??_R0?AVbad_array_new_length@std@@@8??0bad_array_new_length@std@@QAE@ABV01@@Z12 0000000010173620     ctx.obj
 0002:00039640       __CT??_R0?AVbad_alloc@std@@@8??0bad_alloc@std@@QAE@ABV01@@Z12 0000000010173640     ctx.obj
 0002:0003965c       __CTA3?AVbad_array_new_length@std@@ 000000001017365c     ctx.obj
 0002:0003966c       __TI3?AVbad_array_new_length@std@@ 000000001017366c     ctx.obj
 0002:00039680       __CT??_R0?AVtype_error@detail@nlohmann@@@8??0type_error@detail@nlohmann@@QAE@ABV012@@Z28 0000000010173680     ctx.obj
 0002:000396a0       __CT??_R0?AVexception@detail@nlohmann@@@8??0exception@detail@nlohmann@@QAE@ABV012@@Z28 00000000101736a0     ctx.obj
 0002:000396bc       __CTA3?AVtype_error@detail@nlohmann@@ 00000000101736bc     ctx.obj
 0002:000396cc       __TI3?AVtype_error@detail@nlohmann@@ 00000000101736cc     ctx.obj
